 Armada2

 Timestamp is 3c4c76bd (Mon Jan 21 15:14:53 2002)

 Preferred load address is 00400000

 Start         Length     Name                   Class
 0001:00000000 00298402H .text                   CODE
 0001:00298410 000142b4H .text$x                 CODE
 0002:00000000 000161d0H .rdata                  DATA
 0002:000161d0 0000e78cH .rdata$r                DATA
 0002:00024960 00019530H .xdata$x                DATA
 0002:0003de90 00000000H .edata                  DATA
 0003:00000000 00000004H .CRT$XCA                DATA
 0003:00000004 00000ffcH .CRT$XCU                DATA
 0003:00001000 00000004H .CRT$XCZ                DATA
 0003:00001004 00000004H .CRT$XIA                DATA
 0003:00001008 00000004H .CRT$XIZ                DATA
 0003:00001010 0004779cH .data                   DATA
 0003:000487b0 00081a08H .bss                    DATA
 0004:00000000 00000190H .idata$2                DATA
 0004:00000190 00000014H .idata$3                DATA
 0004:000001a4 0000089cH .idata$4                DATA
 0004:00000a40 0000089cH .idata$5                DATA
 0004:000012dc 0000431eH .idata$6                DATA
 0005:00000000 00000d18H .rsrc$01                DATA
 0005:00000d20 00005d70H .rsrc$02                DATA

  Address         Publics by Value              Rva+Base     Lib:Object

 0001:000000b0       ?CreateObject@AiMission@@SAPAVSObject@@XZ 004010b0 f   AiMission.obj
 0001:00000210       ?GetRtimeClass@AiMission@@UAEPAVRtimeClass@@XZ 00401210 f   AiMission.obj
 0001:00000220       ??0AiMissionClass@@QAE@PAD@Z 00401220 f   AiMission.obj
 0001:00000250       ?Matches@AiMissionClass@@UAEHPAD@Z 00401250 f   AiMission.obj
 0001:000002b0       ?Register@AiMission@@SAXPAVAiMissionClass@@@Z 004012b0 f   AiMission.obj
	0001:00000370       ?GetCurrent@AiMission@@SAPAV1@XZ 00401370 f   AiMission.obj
 0001:00000380       ?Create@AiMission@@SAPAV1@PAD@Z 00401380 f   AiMission.obj
 0001:00000400       ?LoadMission@AiMission@@SA_NAAVFileReader@@@Z 00401400 f   AiMission.obj
 0001:00000440       ?PostLoadMission@AiMission@@SA_NXZ 00401440 f   AiMission.obj
 0001:00000460       ?SaveMission@AiMission@@SA_NAAVFileWriter@@@Z 00401460 f   AiMission.obj
 0001:00000480       ??0AiMission@@QAE@XZ       00401480 f   AiMission.obj
 0001:00000590       ??0AiMission@@QAE@H@Z      00401590 f   AiMission.obj
 0001:00000630       ??1AiMission@@UAE@XZ       00401630 f   AiMission.obj
 0001:00000740       ?AddObject@AiMission@@UAEXPAVGameObject@@@Z 00401740 f   AiMission.obj
 0001:00000760       ?AddProcess@AiMission@@QAEXPAVAiProcess@@@Z 00401760 f   AiMission.obj
 0001:000007c0       ?RemoveProcess@AiMission@@QAEXPAVAiProcess@@@Z 004017c0 f   AiMission.obj
	0001:00000810       ?DoEndOfMission@AiMission@@SAX_N@Z 00401810 f   AiMission.obj
 0001:000008a0       ?Update@AiMission@@UAEXM@Z 004018a0 f   AiMission.obj
 0001:00000a30       ?Load@AiMission@@UAE_NAAVFileReader@@@Z 00401a30 f   AiMission.obj
 0001:00000c10       ?PostLoad@AiMission@@UAE_NXZ 00401c10 f   AiMission.obj
 0001:00000c90       ?Save@AiMission@@UAE_NAAVFileWriter@@@Z 00401c90 f   AiMission.obj
 0001:00000e30       ?Init@AiMission@@UAEXXZ    00401e30 f i AiMission.obj
 0001:00000e40       ?GetTeam@AiMission@@UAEHH@Z 00401e40 f i AiMission.obj
 0001:00000e50       ?SetMostRecentKilled@AiMission@@UAEXH@Z 00401e50 f i AiMission.obj
 0001:00000e60       ??_GAiMission@@UAEPAXI@Z   00401e60 f i AiMission.obj
 0001:00000e60       ??_EAiMission@@UAEPAXI@Z   00401e60 f i AiMission.obj
 0001:00000e90       ??1?$list@PAVAiProcess@@V?$allocator@PAVAiProcess@@@std@@@std@@QAE@XZ 00401e90 f i AiMission.obj
 0001:00000ee0       ?erase@?$list@PAVAiProcess@@V?$allocator@PAVAiProcess@@@std@@@std@@QAE?AViterator@12@V312@@Z 00401ee0 f i AiMission.obj
 0001:00000f20       ?_Buynode@?$list@PAVAiProcess@@V?$allocator@PAVAiProcess@@@std@@@std@@IAEPAU_Node@12@PAU312@0@Z 00401f20 f i AiMission.obj
 0001:00000f50       ?_Construct@std@@YAXPAPAVAiProcess@@ABQAV2@@Z 00401f50 f i AiMission.obj
 0001:00001250       ?Log_Message@@YAXPAD@Z     00402250 f   CCA.obj
 0001:00001280       ?update@variable_list@@QAEXXZ 00402280 f   CCA.obj
 0001:000012c0       ?CCA_configure@@YAXPAD@Z   004022c0 f   CCA.obj
 0001:000012d0       ?CCA_init@@YAXPAD@Z        004022d0 f   CCA.obj
 0001:00001330       ?CCA_trash@@YAXXZ          00402330 f   CCA.obj
 0001:00001470       ?CCA_character_update@@YAXM@Z 00402470 f   CCA.obj
 0001:00001550       ?CCA_load_scripts@@YA_NAAVFileReader@@@Z 00402550 f   CCA.obj
 0001:00001700       ?CCA_save_scripts@@YA_NAAVFileWriter@@@Z 00402700 f   CCA.obj
 0001:000018b0       ??1variable_list@@QAE@XZ   004028b0 f i CCA.obj
 0001:000019c0       ??0variable_list@@QAE@XZ   004029c0 f i CCA.obj
 0001:000019e0       ?Add_Data@linked_list@@QAEPAVlist_cell@@PAX@Z 004029e0 f i CCA.obj
 0001:00001b20       ?Prepare_New_Chunk@?$Pointer_Pool@Vlist_cell@@@@IAE_NXZ 00402b20 f i CCA.obj
 0001:00001c90       ??1?$list_array@PAV?$Pool_Element@Vlist_cell@@@@@@QAE@XZ 00402c90 f i CCA.obj
 0001:00001cb0       ??0?$semi_dynamic_array@PAV?$Pool_Element@Vlist_cell@@@@@@QAE@H@Z 00402cb0 f i CCA.obj
 0001:00001d00       ??1?$semi_dynamic_array@PAV?$Pool_Element@Vlist_cell@@@@@@QAE@XZ 00402d00 f i CCA.obj
 0001:00001d20       ??0character@@QAE@PADW4EntityType@@@Z 00402d20 f   Character.obj
 0001:00001e20       ??1character@@QAE@XZ       00402e20 f   Character.obj
 0001:00002020       ?Init@character@@QAEXPADW4EntityType@@@Z 00403020 f   Character.obj
 0001:00002070       ?CleanUp@character@@QAEXXZ 00403070 f   Character.obj
	0001:00002250       ?GetIIIE@character@@UAEAAVIIIE@@XZ 00403250 f   Character.obj
	0001:00002260       ?new_script@character@@UAEPAVscript@@PAD@Z 00403260 f   Character.obj
 0001:000024e0       ?clear_scripts@character@@QAEXXZ 004034e0 f   Character.obj
 0001:00002640       ?execute_scripts@character@@QAEXXZ 00403640 f   Character.obj
 0001:00002700       ?Add_Group_Membership@character@@QAEXPAVgroup@@@Z 00403700 f   Character.obj
 0001:00002720       ?Remove_Group_Membership@character@@QAEXPAVgroup@@@Z 00403720 f   Character.obj
 0001:00002740       ??1linked_list@@QAE@XZ     00403740 f i Character.obj
 0001:00002850       ??_G?$Pointer_Pool@Vlist_cell@@@@QAEPAXI@Z 00403850 f i Character.obj
 0001:000028f0       ?Random_Access_Lookup@linked_list@@QAEPAVlist_cell@@H@Z 004038f0 f i Character.obj
 0001:000029b0       ?Return_Data_By_Number@linked_list@@QAEPAXH@Z 004039b0 f i Character.obj
 0001:00002b00       ??_Gscript@@QAEPAXI@Z      00403b00 f i Character.obj
 0001:00002b30       ?Get_Next_Pointer@?$Pointer_Pool@Vlist_cell@@@@QAEPAVlist_cell@@XZ 00403b30 f i Character.obj
 0001:00002cb0       ??0?$list_array@PAV?$Pool_Element@Vlist_cell@@@@@@QAE@HHH@Z 00403cb0 f i Character.obj
 0001:00002d30       ?Allocate@?$semi_dynamic_array@PAV?$Pool_Element@Vlist_cell@@@@@@IAEXH@Z 00403d30 f i Character.obj
 0001:00002d70       ??0group@@QAE@PAD@Z        00403d70 f   Group.obj
 0001:00002db0       ??1group@@QAE@XZ           00403db0 f   Group.obj
 0001:00002f30       ?add_group_rules_to_unit@group@@AAEXAAVcharacter@@@Z 00403f30 f   Group.obj
 0001:00003080       ?remove_group_rules_from_unit@group@@AAEXAAVcharacter@@@Z 00404080 f   Group.obj
 0001:000031d0       ?add_unit_to_group@group@@QAEXAAVcharacter@@@Z 004041d0 f   Group.obj
 0001:00003340       ?add_unit_to_group@@YAXAAVgroup@@AAVcharacter@@@Z 00404340 f   Group.obj
 0001:000034a0       ?remove_unit_from_group@group@@QAEXAAVcharacter@@@Z 004044a0 f   Group.obj
 0001:00003610       ?remove_unit_from_group@@YAXAAVgroup@@AAVcharacter@@@Z 00404610 f   Group.obj
 0001:00003770       ?add_group_entry_function@group@@QAEXP6AXAAVcharacter@@@Z1@Z 00404770 f   Group.obj
 0001:000038d0       ?remove_group_entry_function@group@@QAEXP6AXAAVcharacter@@@Z1@Z 004048d0 f   Group.obj
 0001:00003a30       ??1?$Pointer_Pool@Vlist_cell@@@@QAE@XZ 00404a30 f i Group.obj
 0001:00003ac0       ?Common_Upper_Case_It@@YAXPAD@Z 00404ac0 f   common.obj
 0001:00003b10       ?Common_Find_Next_Partial@@YAHPADH0HAAH1H@Z 00404b10 f   common.obj
 0001:00003c00       ?Common_Find_Next@@YAHPADH0HAAH1HH@Z 00404c00 f   common.obj
 0001:00003d30       ?Common_String_Contains_Key@@YAHPAD0@Z 00404d30 f   common.obj
 0001:00003d60       ?Common_Substitute@@YAHPADH00@Z 00404d60 f   common.obj
 0001:00003e10       ?Common_Strings_Are_Same@@YAHPAD0@Z 00404e10 f   common.obj
 0001:00003e60       ?Common_Get_Base_Name@@YAXPAD0@Z 00404e60 f   common.obj
 0001:00003ee0       ??0dirty_int@@QAE@XZ       00404ee0 f   dirty_int.obj
 0001:00004040       ??0dirty_int@@QAE@PAD@Z    00405040 f   dirty_int.obj
 0001:000041a0       ??1dirty_int@@UAE@XZ       004051a0 f   dirty_int.obj
 0001:000041b0       ?is_dirty@dirty_int@@UAEFXZ 004051b0 f   dirty_int.obj
 0001:000041c0       ?set_clean@dirty_int@@UAEXXZ 004051c0 f   dirty_int.obj
 0001:000041d0       ??_Gdirty_int@@UAEPAXI@Z   004051d0 f i dirty_int.obj
 0001:000041d0       ??_Edirty_int@@UAEPAXI@Z   004051d0 f i dirty_int.obj
 0001:00004200       ??0hot_float@@QAE@XZ       00405200 f   hot_float.obj
 0001:00004220       ??0hot_float@@QAE@PAD@Z    00405220 f   hot_float.obj
 0001:00004250       ??1hot_float@@UAE@XZ       00405250 f   hot_float.obj
 0001:00004260       ?set@hot_float@@QAEXM@Z    00405260 f   hot_float.obj
 0001:000042a0       ?get@hot_float@@QAEFAAM@Z  004052a0 f   hot_float.obj
 0001:000042d0       ??4hot_float@@UAEXM@Z      004052d0 f   hot_float.obj
 0001:00004310       ??Bhot_float@@UAEMXZ       00405310 f   hot_float.obj
 0001:00004320       ??_Ehot_float@@UAEPAXI@Z   00405320 f i hot_float.obj
 0001:00004320       ??_Ghot_float@@UAEPAXI@Z   00405320 f i hot_float.obj
 0001:00004350       ??0hot_int@@QAE@XZ         00405350 f   hot_int.obj
 0001:00004370       ??0hot_int@@QAE@PAD@Z      00405370 f   hot_int.obj
 0001:000043a0       ??1hot_int@@UAE@XZ         004053a0 f   hot_int.obj
 0001:000043b0       ?set@hot_int@@QAEXH@Z      004053b0 f   hot_int.obj
 0001:000043f0       ?get@hot_int@@QAEHAAH@Z    004053f0 f   hot_int.obj
 0001:00004420       ??4hot_int@@UAEXH@Z        00405420 f   hot_int.obj
 0001:00004460       ??Bhot_int@@UAEHXZ         00405460 f   hot_int.obj
 0001:00004470       ??_Ehot_int@@UAEPAXI@Z     00405470 f i hot_int.obj
 0001:00004470       ??_Ghot_int@@UAEPAXI@Z     00405470 f i hot_int.obj
 0001:000044a0       ??0hot_type@@QAE@XZ        004054a0 f   hot_type.obj
 0001:000044d0       ??1hot_type@@UAE@XZ        004054d0 f   hot_type.obj
	0001:000045e0       ?add_dependent_rule@hot_type@@UAEXPAVrule@@@Z 004055e0 f   hot_type.obj
 0001:00004600       ?remove_dependent_rule@hot_type@@UAEXPAVrule@@@Z 00405600 f   hot_type.obj
 0001:00004620       ?construct_affected_rules_lists@hot_type@@UAEXXZ 00405620 f   hot_type.obj
 0001:00004790       ?is_dirty@hot_type@@UAEFXZ 00405790 f   hot_type.obj
 0001:000047a0       ?set_clean@hot_type@@UAEXXZ 004057a0 f   hot_type.obj
 0001:000047b0       ?mark_dirty@hot_type@@UAEXXZ 004057b0 f   hot_type.obj
 0001:000047c0       ??_Ghot_type@@UAEPAXI@Z    004057c0 f i hot_type.obj
 0001:000047c0       ??_Ehot_type@@UAEPAXI@Z    004057c0 f i hot_type.obj
 0001:000047f0       ??0IIIE@@QAE@XZ            004057f0 f   IIIE.obj
 0001:00004830       ??0IIIE@@QAE@H@Z           00405830 f   IIIE.obj
 0001:00004880       ??1IIIE@@QAE@XZ            00405880 f   IIIE.obj
	0001:00004a00       ?add_rule_to_affected_list@IIIE@@QAEXPAVrule@@@Z 00405a00 f   IIIE.obj
 0001:00004a20       ?evaluate@IIIE@@QAEXXZ     00405a20 f   IIIE.obj
 0001:00004bb0       ?trash_affected_list@IIIE@@QAEXXZ 00405bb0 f   IIIE.obj
 0001:00004cc0       ?choose_a_satisfied_rule@IIIE@@QAEXXZ 00405cc0 f   IIIE.obj
 0001:00004e30       ?Fire_A_Rule@IIIE@@AAEXPAVrule@@@Z 00405e30 f   IIIE.obj
 0001:00004e60       ?fire_the_current_rule@IIIE@@QAEXXZ 00405e60 f   IIIE.obj
 0001:00004e90       ?fire_all_satisfied_rules@IIIE@@QAEXXZ 00405e90 f   IIIE.obj
	0001:00004fd0       ?create_rule@IIIE@@UAEPAVrule@@P6AHXZP6AXXZPAD@Z 00405fd0 f   IIIE.obj
 0001:00005040       ?create_rule@IIIE@@UAEPAVrule@@P6AHAAVcharacter@@@ZP6AX0@ZPAD@Z 00406040 f   IIIE.obj
	 0001:000051d0       ?trash_rule@IIIE@@UAEXPAVrule@@@Z 004061d0 f   IIIE.obj
	 0001:00005210       ?trash_rule@IIIE@@UAEXPAD@Z 00406210 f   IIIE.obj
 0001:00005400       ??0rule@@QAE@XZ            00406400 f   rules.obj
 0001:00005420       ??0rule@@QAE@PAD@Z         00406420 f   rules.obj
 0001:00005470       ??1rule@@QAE@XZ            00406470 f   rules.obj
 0001:00005480       ?Load_Rules@@YAHPAD@Z      00406480 f   rules.obj
 0001:00005660       ?Trash_Rules@@YAXH@Z       00406660 f   rules.obj
	0001:000057c0       ?Trash_All_Rules@@YAXXZ    004067c0 f   rules.obj
 0001:00005900       ??0unique_ID_list@@QAE@XZ  00406900 f i rules.obj
 0001:000059c0       ??1unique_ID_list@@QAE@XZ  004069c0 f i rules.obj
 0001:00005ab0       ?begin@?$_Tree@HU?$pair@$$CBHPAX@std@@U_Kfn@?$map@HPAXU?$less@H@std@@V?$allocator@PAX@2@@2@U?$less@H@2@V?$allocator@PAX@2@@std@@QAE?AViterator@12@XZ 00406ab0 f i rules.obj
 0001:00005ad0       ?erase@?$_Tree@HU?$pair@$$CBHPAX@std@@U_Kfn@?$map@HPAXU?$less@H@std@@V?$allocator@PAX@2@@2@U?$less@H@2@V?$allocator@PAX@2@@std@@QAE?AViterator@12@V312@0@Z 00406ad0 f i rules.obj
 0001:00005ba0       ?find@?$_Tree@HU?$pair@$$CBHPAX@std@@U_Kfn@?$map@HPAXU?$less@H@std@@V?$allocator@PAX@2@@2@U?$less@H@2@V?$allocator@PAX@2@@std@@QBE?AVconst_iterator@12@ABH@Z 00406ba0 f i rules.obj
 0001:00005c10       ?erase@?$_Tree@HU?$pair@$$CBHPAX@std@@U_Kfn@?$map@HPAXU?$less@H@std@@V?$allocator@PAX@2@@2@U?$less@H@2@V?$allocator@PAX@2@@std@@QAE?AViterator@12@V312@@Z 00406c10 f i rules.obj
 0001:00006030       ?_Erase@?$_Tree@HU?$pair@$$CBHPAX@std@@U_Kfn@?$map@HPAXU?$less@H@std@@V?$allocator@PAX@2@@2@U?$less@H@2@V?$allocator@PAX@2@@std@@IAEXPAU_Node@12@@Z 00407030 f i rules.obj
 0001:00006070       ??0const_iterator@?$_Tree@HU?$pair@$$CBHPAX@std@@U_Kfn@?$map@HPAXU?$less@H@std@@V?$allocator@PAX@2@@2@U?$less@H@2@V?$allocator@PAX@2@@std@@QAE@PAU_Node@12@@Z 00407070 f i rules.obj
 0001:00006080       ?_Dec@const_iterator@?$_Tree@HU?$pair@$$CBHPAX@std@@U_Kfn@?$map@HPAXU?$less@H@std@@V?$allocator@PAX@2@@2@U?$less@H@2@V?$allocator@PAX@2@@std@@QAEXXZ 00407080 f i rules.obj
 0001:000060e0       ??0?$pair@Viterator@?$_Tree@HU?$pair@$$CBHPAX@std@@U_Kfn@?$map@HPAXU?$less@H@std@@V?$allocator@PAX@2@@2@U?$less@H@2@V?$allocator@PAX@2@@std@@_N@std@@QAE@ABViterator@?$_Tree@HU?$pair@$$CBHPAX@std@@U_Kfn@?$map@HPAXU?$less@H@std@@V?$allocator@PAX@2@@2@U?$less@H@2@V?$allocator@PAX@2@@1@AB_N@Z 004070e0 f i rules.obj
 0001:00006100       ?lower_bound@?$_Tree@HU?$pair@$$CBHPAX@std@@U_Kfn@?$map@HPAXU?$less@H@std@@V?$allocator@PAX@2@@2@U?$less@H@2@V?$allocator@PAX@2@@std@@QAE?AViterator@12@ABH@Z 00407100 f i rules.obj
 0001:00006140       ?_Insert@?$_Tree@HU?$pair@$$CBHPAX@std@@U_Kfn@?$map@HPAXU?$less@H@std@@V?$allocator@PAX@2@@2@U?$less@H@2@V?$allocator@PAX@2@@std@@IAE?AViterator@12@PAU_Node@12@0ABU?$pair@$$CBHPAX@2@@Z 00407140 f i rules.obj
 0001:000063c0       ?_Lbound@?$_Tree@HU?$pair@$$CBHPAX@std@@U_Kfn@?$map@HPAXU?$less@H@std@@V?$allocator@PAX@2@@2@U?$less@H@2@V?$allocator@PAX@2@@std@@IBEPAU_Node@12@ABH@Z 004073c0 f i rules.obj
 0001:000063f0       ?_Max@?$_Tree@HU?$pair@$$CBHPAX@std@@U_Kfn@?$map@HPAXU?$less@H@std@@V?$allocator@PAX@2@@2@U?$less@H@2@V?$allocator@PAX@2@@std@@KAPAU_Node@12@PAU312@@Z 004073f0 f i rules.obj
 0001:00006410       ?_Min@?$_Tree@HU?$pair@$$CBHPAX@std@@U_Kfn@?$map@HPAXU?$less@H@std@@V?$allocator@PAX@2@@2@U?$less@H@2@V?$allocator@PAX@2@@std@@KAPAU_Node@12@PAU312@@Z 00407410 f i rules.obj
 0001:00006430       ??8iterator@?$_Tree@HU?$pair@$$CBHPAX@std@@U_Kfn@?$map@HPAXU?$less@H@std@@V?$allocator@PAX@2@@2@U?$less@H@2@V?$allocator@PAX@2@@std@@QBE_NABV012@@Z 00407430 f i rules.obj
 0001:00006450       ?_Ubound@?$_Tree@HU?$pair@$$CBHPAX@std@@U_Kfn@?$map@HPAXU?$less@H@std@@V?$allocator@PAX@2@@2@U?$less@H@2@V?$allocator@PAX@2@@std@@IBEPAU_Node@12@ABH@Z 00407450 f i rules.obj
 0001:00006480       ?_Inc@const_iterator@?$_Tree@HU?$pair@$$CBHPAX@std@@U_Kfn@?$map@HPAXU?$less@H@std@@V?$allocator@PAX@2@@2@U?$less@H@2@V?$allocator@PAX@2@@std@@QAEXXZ 00407480 f i rules.obj
 0001:000064d0       ?_Construct@std@@YAXPAU?$pair@$$CBHPAX@1@ABU21@@Z 004074d0 f i rules.obj
 0001:00006520       ??0script@@QAE@XZ          00407520 f   scripts.obj
 0001:00006570       ??1script@@QAE@XZ          00407570 f   scripts.obj
 0001:00006790       ?add_int_param@script@@QAEXH@Z 00407790 f   scripts.obj
 0001:000067d0       ?add_character_param@script@@QAEXPAVcharacter@@@Z 004077d0 f   scripts.obj
 0001:00006800       ?nth_param_ptr@script@@QAEPAXH@Z 00407800 f   scripts.obj
 0001:00006960       ?add_step@script@@UAEXP6AHPAV1@@Z@Z 00407960 f   scripts.obj
 0001:00006990       ?ExecuteNextStep@script@@QAEHXZ 00407990 f   scripts.obj
 0001:00006b40       ?AddOneToReferenceCountForCurrentStep@script@@QAEXXZ 00407b40 f   scripts.obj
 0001:00006b50       ?SubtractOneFromReferenceCountForCurrentStep@script@@QAEXXZ 00407b50 f   scripts.obj
 0001:00006b60       ?execute@step@@QAEXPAVscript@@@Z 00407b60 f   scripts.obj
 0001:00006b70       ?Load_Action_Scripts@@YAHPAD@Z 00407b70 f   scripts.obj
 0001:00006db0       ?Init_Action_Scripts@@YAXH@Z 00407db0 f   scripts.obj
 0001:00006e20       ?Init_All_Action_Scripts@@YAXXZ 00407e20 f   scripts.obj
 0001:00006ee0       ?Action_Scripts_Active@@YA_NXZ 00407ee0 f   scripts.obj
 0001:00006ef0       ?Trash_Action_Scripts@@YAXH@Z 00407ef0 f   scripts.obj
 0001:00007050       ?Trash_All_Action_Scripts@@YAXXZ 00408050 f   scripts.obj
 0001:000071c0       ??0timer_int@@QAE@XZ       004081c0 f   timer_int.obj
 0001:000071e0       ??0timer_int@@QAE@PAD@Z    004081e0 f   timer_int.obj
 0001:00007210       ??1timer_int@@UAE@XZ       00408210 f   timer_int.obj
 0001:00007280       ?start@timer_int@@UAEXM@Z  00408280 f   timer_int.obj
 0001:000072d0       ?stop@timer_int@@UAEXXZ    004082d0 f   timer_int.obj
 0001:00007300       ?set_clean@timer_int@@UAEXXZ 00408300 f   timer_int.obj
 0001:00007320       ?update@timer_int@@UAEXM@Z 00408320 f   timer_int.obj
 0001:00007370       ?update@timer_list@@QAEXM@Z 00408370 f   timer_int.obj
 0001:000073a0       ??1timer_list@@QAE@XZ      004083a0 f i timer_int.obj
 0001:000074b0       ??0timer_list@@QAE@XZ      004084b0 f i timer_int.obj
 0001:000074d0       ?time@timer_int@@UAEMXZ    004084d0 f i timer_int.obj
 0001:000074e0       ??_Etimer_int@@UAEPAXI@Z   004084e0 f i timer_int.obj
 0001:000074e0       ??_Gtimer_int@@UAEPAXI@Z   004084e0 f i timer_int.obj
 0001:00007510       ??0A_Star_Graph_Map@@QAE@XZ 00408510 f   A_Star_Graph_Map.obj
 0001:00007600       ??1A_Star_Graph_Map@@QAE@XZ 00408600 f   A_Star_Graph_Map.obj
 0001:000077d0       ?Insert_New_Node@A_Star_Graph_Map@@QAEXPAVA_Star_Graph_Node@@@Z 004087d0 f   A_Star_Graph_Map.obj
 0001:00007890       ?Remove_Node@A_Star_Graph_Map@@QAEXPAVA_Star_Graph_Node@@@Z 00408890 f   A_Star_Graph_Map.obj
 0001:00007980       ?Reset@A_Star_Graph_Map@@UAEXXZ 00408980 f   A_Star_Graph_Map.obj
 0001:000079e0       ?Clear@A_Star_Graph_Map@@UAEXXZ 004089e0 f   A_Star_Graph_Map.obj
 0001:00007ad0       ??1?$set@PAVA_Star_Graph_Node@@U?$less@PAVA_Star_Graph_Node@@@std@@V?$allocator@PAVA_Star_Graph_Node@@@3@@std@@QAE@XZ 00408ad0 f i A_Star_Graph_Map.obj
 0001:00007bc0       ??Eiterator@?$_Tree@PAVA_Star_Graph_Node@@PAV1@U_Kfn@?$set@PAVA_Star_Graph_Node@@U?$less@PAVA_Star_Graph_Node@@@std@@V?$allocator@PAVA_Star_Graph_Node@@@3@@std@@U?$less@PAVA_Star_Graph_Node@@@4@V?$allocator@PAVA_Star_Graph_Node@@@4@@std@@QAE?AV012@H@Z 00408bc0 f i A_Star_Graph_Map.obj
 0001:00007c20       ?begin@?$_Tree@PAVA_Star_Graph_Node@@PAV1@U_Kfn@?$set@PAVA_Star_Graph_Node@@U?$less@PAVA_Star_Graph_Node@@@std@@V?$allocator@PAVA_Star_Graph_Node@@@3@@std@@U?$less@PAVA_Star_Graph_Node@@@4@V?$allocator@PAVA_Star_Graph_Node@@@4@@std@@QAE?AViterator@12@XZ 00408c20 f i A_Star_Graph_Map.obj
 0001:00007c40       ?erase@?$_Tree@PAVA_Star_Graph_Node@@PAV1@U_Kfn@?$set@PAVA_Star_Graph_Node@@U?$less@PAVA_Star_Graph_Node@@@std@@V?$allocator@PAVA_Star_Graph_Node@@@3@@std@@U?$less@PAVA_Star_Graph_Node@@@4@V?$allocator@PAVA_Star_Graph_Node@@@4@@std@@QAE?AViterator@12@V312@@Z 00408c40 f i A_Star_Graph_Map.obj
 0001:00008060       ?_Erase@?$_Tree@PAVA_Star_Graph_Node@@PAV1@U_Kfn@?$set@PAVA_Star_Graph_Node@@U?$less@PAVA_Star_Graph_Node@@@std@@V?$allocator@PAVA_Star_Graph_Node@@@3@@std@@U?$less@PAVA_Star_Graph_Node@@@4@V?$allocator@PAVA_Star_Graph_Node@@@4@@std@@IAEXPAU_Node@12@@Z 00409060 f i A_Star_Graph_Map.obj
 0001:000080a0       ?_Insert@?$_Tree@PAVA_Star_Graph_Node@@PAV1@U_Kfn@?$set@PAVA_Star_Graph_Node@@U?$less@PAVA_Star_Graph_Node@@@std@@V?$allocator@PAVA_Star_Graph_Node@@@3@@std@@U?$less@PAVA_Star_Graph_Node@@@4@V?$allocator@PAVA_Star_Graph_Node@@@4@@std@@IAE?AViterator@12@PAU_Node@12@0ABQAVA_Star_Graph_Node@@@Z 004090a0 f i A_Star_Graph_Map.obj
 0001:00008320       ?_Inc@const_iterator@?$_Tree@PAVA_Star_Graph_Node@@PAV1@U_Kfn@?$set@PAVA_Star_Graph_Node@@U?$less@PAVA_Star_Graph_Node@@@std@@V?$allocator@PAVA_Star_Graph_Node@@@3@@std@@U?$less@PAVA_Star_Graph_Node@@@4@V?$allocator@PAVA_Star_Graph_Node@@@4@@std@@QAEXXZ 00409320 f i A_Star_Graph_Map.obj
 0001:00008370       ?_Min@?$_Tree@PAVA_Star_Graph_Node@@PAV1@U_Kfn@?$set@PAVA_Star_Graph_Node@@U?$less@PAVA_Star_Graph_Node@@@std@@V?$allocator@PAVA_Star_Graph_Node@@@3@@std@@U?$less@PAVA_Star_Graph_Node@@@4@V?$allocator@PAVA_Star_Graph_Node@@@4@@std@@KAPAU_Node@12@PAU312@@Z 00409370 f i A_Star_Graph_Map.obj
 0001:00008390       ?_Dec@const_iterator@?$_Tree@PAVA_Star_Graph_Node@@PAV1@U_Kfn@?$set@PAVA_Star_Graph_Node@@U?$less@PAVA_Star_Graph_Node@@@std@@V?$allocator@PAVA_Star_Graph_Node@@@3@@std@@U?$less@PAVA_Star_Graph_Node@@@4@V?$allocator@PAVA_Star_Graph_Node@@@4@@std@@QAEXXZ 00409390 f i A_Star_Graph_Map.obj
 0001:000083f0       ?_Lbound@?$_Tree@PAVA_Star_Graph_Node@@PAV1@U_Kfn@?$set@PAVA_Star_Graph_Node@@U?$less@PAVA_Star_Graph_Node@@@std@@V?$allocator@PAVA_Star_Graph_Node@@@3@@std@@U?$less@PAVA_Star_Graph_Node@@@4@V?$allocator@PAVA_Star_Graph_Node@@@4@@std@@IBEPAU_Node@12@ABQAVA_Star_Graph_Node@@@Z 004093f0 f i A_Star_Graph_Map.obj
 0001:00008420       ?_Ubound@?$_Tree@PAVA_Star_Graph_Node@@PAV1@U_Kfn@?$set@PAVA_Star_Graph_Node@@U?$less@PAVA_Star_Graph_Node@@@std@@V?$allocator@PAVA_Star_Graph_Node@@@3@@std@@U?$less@PAVA_Star_Graph_Node@@@4@V?$allocator@PAVA_Star_Graph_Node@@@4@@std@@IBEPAU_Node@12@ABQAVA_Star_Graph_Node@@@Z 00409420 f i A_Star_Graph_Map.obj
 0001:00008450       ?_Construct@std@@YAXPAPAVA_Star_Graph_Node@@ABQAV2@@Z 00409450 f i A_Star_Graph_Map.obj
 0001:00008470       ??0A_Star_Graph_Node@@QAE@MMH@Z 00409470 f   a_star_graph_node.obj
 0001:00008530       ??1A_Star_Graph_Node@@UAE@XZ 00409530 f   a_star_graph_node.obj
 0001:000085f0       ?Init@A_Star_Graph_Node@@QAEHMMH@Z 004095f0 f   a_star_graph_node.obj
 0001:00008680       ?Clean_Up@A_Star_Graph_Node@@QAEHXZ 00409680 f   a_star_graph_node.obj
 0001:00008740       ??2A_Star_Graph_Node@@SAPAXI@Z 00409740 f   a_star_graph_node.obj
 0001:00008900       ??3A_Star_Graph_Node@@SAXPAX@Z 00409900 f   a_star_graph_node.obj
 0001:000089d0       ?Force_Deletion_Of_Pointer_Pool@A_Star_Graph_Node@@SAXXZ 004099d0 f   a_star_graph_node.obj
 0001:00008ac0       ?Get_A_Star_Graph_Node_Pointer_From_Pool@A_Star_Graph_Node@@SAPAV1@MM@Z 00409ac0 f   a_star_graph_node.obj
 0001:00008c90       ?Release_A_Star_Graph_Node_To_Pool@A_Star_Graph_Node@@SAXPAV1@@Z 00409c90 f   a_star_graph_node.obj
 0001:00008d60       ?Expand_Open_List@A_Star_Graph_Node@@UAEXPAVA_Star_Search@@@Z 00409d60 f   a_star_graph_node.obj
 0001:00008ee0       ?Add_Neighbor@A_Star_Graph_Node@@QAEXPAVA_Star_Node@@M@Z 00409ee0 f   a_star_graph_node.obj
 0001:000090a0       ?Remove_Neighbor@A_Star_Graph_Node@@QAEXPAVA_Star_Node@@@Z 0040a0a0 f   a_star_graph_node.obj
 0001:00009100       ?Remove_Neighbor@A_Star_Graph_Node@@QAEXH@Z 0040a100 f   a_star_graph_node.obj
 0001:00009150       ?Clear_Neighbors@A_Star_Graph_Node@@QAEXXZ 0040a150 f   a_star_graph_node.obj
 0001:00009230       ?Reset@A_Star_Graph_Node@@UAEXH@Z 0040a230 f   a_star_graph_node.obj
 0001:00009250       ??1A_Star_Node@@UAE@XZ     0040a250 f i a_star_graph_node.obj
 0001:00009260       ??_GA_Star_Node@@UAEPAXI@Z 0040a260 f i a_star_graph_node.obj
 0001:00009260       ??_EA_Star_Node@@UAEPAXI@Z 0040a260 f i a_star_graph_node.obj
 0001:00009290       ?Get_Expanded@A_Star_Graph_Node@@UAEHXZ 0040a290 f i a_star_graph_node.obj
 0001:000092a0       ?Set_Expanded@A_Star_Graph_Node@@UAEXI@Z 0040a2a0 f i a_star_graph_node.obj
 0001:000092c0       ?Get_X@A_Star_Graph_Node@@UAEMXZ 0040a2c0 f i a_star_graph_node.obj
 0001:000092d0       ?Get_Y@A_Star_Graph_Node@@UAEMXZ 0040a2d0 f i a_star_graph_node.obj
 0001:000092e0       ?Set_X@A_Star_Graph_Node@@UAEXM@Z 0040a2e0 f i a_star_graph_node.obj
 0001:000092f0       ?Set_Y@A_Star_Graph_Node@@UAEXM@Z 0040a2f0 f i a_star_graph_node.obj
 0001:00009300       ?Get_F@A_Star_Graph_Node@@UAEMXZ 0040a300 f i a_star_graph_node.obj
 0001:00009310       ?Get_G@A_Star_Graph_Node@@UAEMXZ 0040a310 f i a_star_graph_node.obj
 0001:00009320       ?Set_F@A_Star_Graph_Node@@UAEXM@Z 0040a320 f i a_star_graph_node.obj
 0001:00009330       ?Set_G@A_Star_Graph_Node@@UAEXM@Z 0040a330 f i a_star_graph_node.obj
 0001:00009340       ?Get_From@A_Star_Graph_Node@@UAEPAVA_Star_Node@@XZ 0040a340 f i a_star_graph_node.obj
 0001:00009350       ?Set_From@A_Star_Graph_Node@@UAEXPAVA_Star_Node@@@Z 0040a350 f i a_star_graph_node.obj
 0001:00009360       ??_GA_Star_Graph_Node@@UAEPAXI@Z 0040a360 f i a_star_graph_node.obj
 0001:00009360       ??_EA_Star_Graph_Node@@UAEPAXI@Z 0040a360 f i a_star_graph_node.obj
 0001:00009440       ??3list_cell@@SAXPAX@Z     0040a440 f i a_star_graph_node.obj
 0001:00009510       ?Append_Data@linked_list@@QAEPAVlist_cell@@PAX@Z 0040a510 f i a_star_graph_node.obj
	 0001:00009650       ?_Destroy@?$vector@MV?$allocator@M@std@@@std@@IAEXPAM0@Z 0040a650 f i a_star_graph_node.obj
	 0001:00009660       ?_Ucopy@?$vector@MV?$allocator@M@std@@@std@@IAEPAMPBM0PAM@Z 0040a660 f i a_star_graph_node.obj
	 0001:00009690       ?_Ufill@?$vector@MV?$allocator@M@std@@@std@@IAEXPAMIABM@Z 0040a690 f i a_star_graph_node.obj
 0001:000096c0       ?_Construct@std@@YAXPAMABM@Z 0040a6c0 f i a_star_graph_node.obj
 0001:000096e0       ?Prepare_New_Chunk@?$Pointer_Pool@VA_Star_Graph_Node@@@@IAE_NXZ 0040a6e0 f i a_star_graph_node.obj
 0001:00009850       ??1?$list_array@PAV?$Pool_Element@VA_Star_Graph_Node@@@@@@QAE@XZ 0040a850 f i a_star_graph_node.obj
 0001:00009870       ?Append_Data@?$list_array@PAV?$Pool_Element@VA_Star_Graph_Node@@@@@@QAEHPAV?$Pool_Element@VA_Star_Graph_Node@@@@@Z 0040a870 f i a_star_graph_node.obj
 0001:000099a0       ?Check_Size@?$list_array@PAV?$Pool_Element@VA_Star_Graph_Node@@@@@@IAE_NH@Z 0040a9a0 f i a_star_graph_node.obj
 0001:00009ac0       ?Allocate@?$semi_dynamic_array@PAV?$Pool_Element@VA_Star_Graph_Node@@@@@@IAEXH@Z 0040aac0 f i a_star_graph_node.obj
 0001:00009b00       ?Euclidean_distance@@YAMPAVA_Star_Node@@0@Z 0040ab00 f   A_Star_Search.obj
 0001:00009b80       ??M@YA_NABVPQ_Item@@0@Z    0040ab80 f   A_Star_Search.obj
 0001:00009bc0       ??0A_Star_Search@@QAE@XZ   0040abc0 f   A_Star_Search.obj
 0001:00009c10       ??1A_Star_Search@@QAE@XZ   0040ac10 f   A_Star_Search.obj
 0001:00009d40       ?Plan_Path@A_Star_Search@@QAE?AW4A_Star_Result@@PAVA_Star_Node@@0_N@Z 0040ad40 f   A_Star_Search.obj
 0001:00009ea0       ?Add_Node_To_Open_List@A_Star_Search@@QAEXPAVA_Star_Node@@0M@Z 0040aea0 f   A_Star_Search.obj
 0001:0000a160       ?Setup_Search@A_Star_Search@@IAEXPAVA_Star_Node@@0@Z 0040b160 f   A_Star_Search.obj
 0001:0000a270       ?Heuristic@A_Star_Search@@IAEMPAVA_Star_Node@@0@Z 0040b270 f   A_Star_Search.obj
 0001:0000a300       ?Construct_Path@A_Star_Search@@IAEHXZ 0040b300 f   A_Star_Search.obj
 0001:0000a350       ??1?$priority_queue@VPQ_Item@@V?$vector@VPQ_Item@@V?$allocator@VPQ_Item@@@std@@@std@@U?$less@VPQ_Item@@@3@@std@@QAE@XZ 0040b350 f i A_Star_Search.obj
 0001:0000a380       ?insert@?$vector@VPQ_Item@@V?$allocator@VPQ_Item@@@std@@@std@@QAEXPAVPQ_Item@@IABV3@@Z 0040b380 f i A_Star_Search.obj
 0001:0000a5d0       ??A?$semi_dynamic_array@PAV?$Pool_Element@Vlist_cell@@@@@@QAEAAPAV?$Pool_Element@Vlist_cell@@@@H@Z 0040b5d0 f i A_Star_Search.obj
 0001:0000a5e0       ?_Adjust_heap@std@@YAXPAVPQ_Item@@HHV2@U?$less@VPQ_Item@@@1@@Z 0040b5e0 f i A_Star_Search.obj
 0001:0000a6c0       ?GetNeighbor@@YA?AW4eChildDirection@@W41@W4eNeighborDirection@@@Z 0040b6c0 f   Path_Planner.obj
 0001:0000a740       ??0Path_Planner@@QAE@XZ    0040b740 f   Path_Planner.obj
 0001:0000aa60       ??1Path_Planner@@QAE@XZ    0040ba60 f   Path_Planner.obj
	0001:0000ac80       ?Calculate_Full_A_Star_Graph@Path_Planner@@QAEX_N@Z 0040bc80 f   Path_Planner.obj
 0001:0000af20       ?Debug_Draw@Path_Planner@@QAEXXZ 0040bf20 f   Path_Planner.obj
 0001:0000b330       ?GetQuadTreeMemoryStr@Path_Planner@@QAE?AV?$basic_string@DU?$char_traits@D@std@@V?$allocator@D@2@@std@@XZ 0040c330 f   Path_Planner.obj
 0001:0000b460       ?Add_Wormhole_Link@Path_Planner@@QAEXPAVWormhole@@0@Z 0040c460 f   Path_Planner.obj
 0001:0000b640       ?Remove_Wormhole_Link@Path_Planner@@QAEXPAVWormhole@@0@Z 0040c640 f   Path_Planner.obj
	0001:0000b7e0       ?Add_Rectangle@Path_Planner@@QAEXMMMMMMABH_N@Z 0040c7e0 f   Path_Planner.obj
	0001:0000bb00       ?Add_Circle@Path_Planner@@QAEXMMMMABH@Z 0040cb00 f   Path_Planner.obj
 0001:0000bd80       ?Subtract_Circle@Path_Planner@@QAEXMMMM@Z 0040cd80 f   Path_Planner.obj
	0001:0000c000       ?Subtract_Rectangle@Path_Planner@@QAEXMMMMMM_N@Z 0040d000 f   Path_Planner.obj
 0001:0000c300       ?Is_This_A_Valid_Pathing_Target@Path_Planner@@QAE_NABM0@Z 0040d300 f   Path_Planner.obj
 0001:0000c470       ?Is_This_A_Valid_Pathing_Target@Path_Planner@@QAE_NABVVector3@@@Z 0040d470 f   Path_Planner.obj
 0001:0000c5e0       ?Is_This_Spot_Totally_Clear_For_Pathing@Path_Planner@@QAE_NABM0@Z 0040d5e0 f   Path_Planner.obj
 0001:0000c760       ?Is_This_Spot_Totally_Clear_For_Pathing@Path_Planner@@QAE_NABVVector3@@@Z 0040d760 f   Path_Planner.obj
 0001:0000c8e0       ?Convert_Path_To_Real_World_Coordinates@Path_Planner@@QAEXVVector3@@0PAVlinked_list@@PAVAiPath@@@Z 0040d8e0 f   Path_Planner.obj
	 0001:0000cbd0       ?Plan_A_Path@Path_Planner@@QAEPAVAiPath@@VVector3@@0_N1AAPAVWormhole@@1@Z 0040dbd0 f   Path_Planner.obj
 0001:0000d1a0       ?Convert_World_To_Internal_Coords@Path_Planner@@IAE_NAAM0@Z 0040e1a0 f   Path_Planner.obj
 0001:0000d240       ?Convert_Internal_To_World_Coords@Path_Planner@@IAEXAAM0@Z 0040e240 f   Path_Planner.obj
 0001:0000d270       ?Find_Shared_Edge_Corners@Path_Planner@@IAE?AW4Transition@@PAV?$QuadTree_Cell@HM@@0AAPAVA_Star_Graph_Node@@1@Z 0040e270 f   Path_Planner.obj
 0001:0000d520       ?Cut_Corners_Of_Path@Path_Planner@@IAE_NPAVlinked_list@@ABVVector3@@1AAV2@@Z 0040e520 f   Path_Planner.obj
 0001:0000dd40       ?Path_Planner_Find_Turn_Direction@@YA?AW4Turn_Type@@ABVVector3@@00@Z 0040ed40 f   Path_Planner.obj
 0001:0000dda0       ?Mark_Corners_As_Left_And_Right@Path_Planner@@IAEXPAVA_Star_Node@@PAVA_Star_Graph_Node@@1AAVVector3@@2@Z 0040eda0 f   Path_Planner.obj
 0001:0000de90       ?Is_Valid_Transition@Path_Planner@@IAE_NPAVA_Star_Node@@ABVVector3@@1ABW4Transition@@@Z 0040ee90 f   Path_Planner.obj
 0001:0000df30       ?Shrink_Visibility_Edges@Path_Planner@@IAE_NPAVA_Star_Node@@AAVVector3@@1ABV3@2@Z 0040ef30 f   Path_Planner.obj
 0001:0000e0a0       ?Can_We_See_Point_From_Segment_Start@Path_Planner@@IAE_NPAVA_Star_Node@@0ABVVector3@@1@Z 0040f0a0 f   Path_Planner.obj
 0001:0000e170       ?Full_Rubber_Banding@Path_Planner@@IAEPAVlinked_list@@PAV2@ABVVector3@@1AAV2@@Z 0040f170 f   Path_Planner.obj
 0001:0000e600       ?Link_Wormhole_Pair_To_Graph@Path_Planner@@IAEXPAVWormhole_Pair@@@Z 0040f600 f   Path_Planner.obj
 0001:0000e8f0       ?Add_Wormhole_Link@Path_Planner@@IAEXPAVWormhole_Pair@@@Z 0040f8f0 f   Path_Planner.obj
 0001:0000eb10       ?Link_All_Wormhole_Pairs@Path_Planner@@IAEXXZ 0040fb10 f   Path_Planner.obj
 0001:0000ebc0       ?Does_Path_Contain_Wormhole_Links@Path_Planner@@IAEPAVWormhole@@PAVlinked_list@@@Z 0040fbc0 f   Path_Planner.obj
 0001:0000ed40       ??_Glist_cell@@QAEPAXI@Z   0040fd40 f i Path_Planner.obj
 0001:0000ee20       ?Empty@linked_list@@QAEXXZ 0040fe20 f i Path_Planner.obj
 0001:0000ef30       ??0list_cell@@QAE@PAXPAV0@1@Z 0040ff30 f i Path_Planner.obj
 0001:0000ef50       ?Lock_X_And_Y_To_Proper_Range@?$QuadTree@HM@@QAE_NAAM0@Z 0040ff50 f i Path_Planner.obj
 0001:0000efd0       ??1?$vector@MV?$allocator@M@std@@@std@@QAE@XZ 0040ffd0 f i Path_Planner.obj
 0001:0000f000       ?GetCellsAllocated@?$QuadTree_Cell@HM@@QAEHXZ 00410000 f i Path_Planner.obj
 0001:0000f030       ?size@?$vector@MV?$allocator@M@std@@@std@@QBEIXZ 00410030 f i Path_Planner.obj
 0001:0000f050       ?insert@?$vector@MV?$allocator@M@std@@@std@@QAEXPAMIABM@Z 00410050 f i Path_Planner.obj
 0001:0000f260       ?erase@?$vector@MV?$allocator@M@std@@@std@@QAEPAMPAM0@Z 00410260 f i Path_Planner.obj
 0001:0000f2a0       ??0?$Pointer_Pool@Vlist_cell@@@@QAE@HH@Z 004102a0 f i Path_Planner.obj
 0001:0000f400       ?Release_Pointer@?$Pointer_Pool@Vlist_cell@@@@QAEXPAVlist_cell@@@Z 00410400 f i Path_Planner.obj
 0001:0000f420       ?mClear_Graph_Nodes@?$QuadTree@HM@@AAEXPAV?$QuadTree_Cell@HM@@@Z 00410420 f i Path_Planner.obj
 0001:0000f460       ?Get_QT_Cell_At_X_Y@?$QuadTree@HM@@QAEPAV?$QuadTree_Cell@HM@@MM@Z 00410460 f i Path_Planner.obj
	0001:0000f540       ?mAdd_Rectangle@?$QuadTree@HM@@AAEPAV?$QuadTree_Rect@HM@@MMMMABHPAV?$QuadTree_Cell@HM@@_N@Z 00410540 f i Path_Planner.obj
 0001:0000f800       ?mAdd_Circle@?$QuadTree@HM@@AAEXMMMABHPAV?$QuadTree_Cell@HM@@_N@Z 00410800 f i Path_Planner.obj
 0001:0000fae0       ??_G?$list_array@PAV?$Pool_Element@Vlist_cell@@@@@@QAEPAXI@Z 00410ae0 f i Path_Planner.obj
 0001:0000fb10       ??1?$_Tree@PAVA_Star_Graph_Node@@PAV1@U_Kfn@?$set@PAVA_Star_Graph_Node@@U?$less@PAVA_Star_Graph_Node@@@std@@V?$allocator@PAVA_Star_Graph_Node@@@3@@std@@U?$less@PAVA_Star_Graph_Node@@@4@V?$allocator@PAVA_Star_Graph_Node@@@4@@std@@QAE@XZ 00410b10 f i Path_Planner.obj
	0001:0000fbf0       ?Clear@?$QuadTree@HM@@QAEXXZ 00410bf0 f i Path_Planner.obj
 0001:0000fc50       ?Get_Cell_X_And_Y@?$QuadTree@HM@@QAEXPBV?$QuadTree_Cell@HM@@AAM1@Z 00410c50 f i Path_Planner.obj
 0001:0000fc80       ?Set_Cell_Data@?$QuadTree@HM@@QAEXPAV?$QuadTree_Cell@HM@@_NABH@Z 00410c80 f i Path_Planner.obj
 0001:0000fcc0       ??0?$_Tree@PAVA_Star_Graph_Node@@PAV1@U_Kfn@?$set@PAVA_Star_Graph_Node@@U?$less@PAVA_Star_Graph_Node@@@std@@V?$allocator@PAVA_Star_Graph_Node@@@3@@std@@U?$less@PAVA_Star_Graph_Node@@@4@V?$allocator@PAVA_Star_Graph_Node@@@4@@std@@QAE@ABU?$less@PAVA_Star_Graph_Node@@@1@_NABV?$allocator@PAVA_Star_Graph_Node@@@1@@Z 00410cc0 f i Path_Planner.obj
 0001:0000fcf0       ?_Init@?$_Tree@PAVA_Star_Graph_Node@@PAV1@U_Kfn@?$set@PAVA_Star_Graph_Node@@U?$less@PAVA_Star_Graph_Node@@@std@@V?$allocator@PAVA_Star_Graph_Node@@@3@@std@@U?$less@PAVA_Star_Graph_Node@@@4@V?$allocator@PAVA_Star_Graph_Node@@@4@@std@@IAEXXZ 00410cf0 f i Path_Planner.obj
	0001:0000fd90       ?mClear@?$QuadTree@HM@@AAEXPAV?$QuadTree_Cell@HM@@@Z 00410d90 f i Path_Planner.obj
 0001:0000fdd0       ?mRemoveFromNeighbors@?$QuadTree@HM@@AAEXPAV?$QuadTree_Cell@HM@@@Z 00410dd0 f i Path_Planner.obj
 0001:0000ff80       ?Rectangles_Overlap@?$QuadTree@HM@@IAE_NMMMMMMMM@Z 00410f80 f i Path_Planner.obj
 0001:00010010       ?CircleOverlapsRectangle@?$QuadTree@HM@@IAE_NMMMMMMM@Z 00411010 f i Path_Planner.obj
 0001:00010170       ?PointInCircle@?$QuadTree@HM@@IAE_NMMMMM@Z 00411170 f i Path_Planner.obj
 0001:000101b0       ?Recursively_Get_All_Cells@?$QuadTree@HM@@IAEXPAV?$QuadTree_Cell@HM@@PAVlinked_list@@@Z 004111b0 f i Path_Planner.obj
 0001:00010200       ?Recursively_Simplify_Quadtree@?$QuadTree@HM@@IAE_NPAV?$QuadTree_Cell@HM@@AAH@Z 00411200 f i Path_Planner.obj
 0001:00010300       ??0?$QuadTree_Cell@HM@@QAE@HHHHPAV0@@Z 00411300 f i Path_Planner.obj
 0001:00010360       ??0linked_list@@QAE@XZ     00411360 f i Path_Planner.obj
 0001:00010380       ??1?$QuadTree_Cell@HM@@QAE@XZ 00411380 f i Path_Planner.obj
 0001:00010400       ?GetChild@?$QuadTree_Cell@HM@@QAEPAV1@W4eChildDirection@@_N@Z 00411400 f i Path_Planner.obj
 0001:00010530       ?insert@?$_Tree@PAVA_Star_Graph_Node@@PAV1@U_Kfn@?$set@PAVA_Star_Graph_Node@@U?$less@PAVA_Star_Graph_Node@@@std@@V?$allocator@PAVA_Star_Graph_Node@@@3@@std@@U?$less@PAVA_Star_Graph_Node@@@4@V?$allocator@PAVA_Star_Graph_Node@@@4@@std@@QAE?AU?$pair@Viterator@?$_Tree@PAVA_Star_Graph_Node@@PAV1@U_Kfn@?$set@PAVA_Star_Graph_Node@@U?$less@PAVA_Star_Graph_Node@@@std@@V?$allocator@PAVA_Star_Graph_Node@@@3@@std@@U?$less@PAVA_Star_Graph_Node@@@4@V?$allocator@PAVA_Star_Graph_Node@@@4@@std@@_N@2@ABQAVA_Star_Graph_Node@@@Z 00411530 f i Path_Planner.obj
 0001:00010760       ?_Lrotate@?$_Tree@PAVA_Star_Graph_Node@@PAV1@U_Kfn@?$set@PAVA_Star_Graph_Node@@U?$less@PAVA_Star_Graph_Node@@@std@@V?$allocator@PAVA_Star_Graph_Node@@@3@@std@@U?$less@PAVA_Star_Graph_Node@@@4@V?$allocator@PAVA_Star_Graph_Node@@@4@@std@@IAEXPAU_Node@12@@Z 00411760 f i Path_Planner.obj
 0001:000107c0       ?_Rrotate@?$_Tree@PAVA_Star_Graph_Node@@PAV1@U_Kfn@?$set@PAVA_Star_Graph_Node@@U?$less@PAVA_Star_Graph_Node@@@std@@V?$allocator@PAVA_Star_Graph_Node@@@3@@std@@U?$less@PAVA_Star_Graph_Node@@@4@V?$allocator@PAVA_Star_Graph_Node@@@4@@std@@IAEXPAU_Node@12@@Z 004117c0 f i Path_Planner.obj
 0001:00010820       ?_Buynode@?$_Tree@PAVA_Star_Graph_Node@@PAV1@U_Kfn@?$set@PAVA_Star_Graph_Node@@U?$less@PAVA_Star_Graph_Node@@@std@@V?$allocator@PAVA_Star_Graph_Node@@@3@@std@@U?$less@PAVA_Star_Graph_Node@@@4@V?$allocator@PAVA_Star_Graph_Node@@@4@@std@@IAEPAU_Node@12@PAU312@W4_Redbl@12@@Z 00411820 f i Path_Planner.obj
 0001:00010840       ?find@?$_Tree@PAVA_Star_Graph_Node@@PAV1@U_Kfn@?$set@PAVA_Star_Graph_Node@@U?$less@PAVA_Star_Graph_Node@@@std@@V?$allocator@PAVA_Star_Graph_Node@@@3@@std@@U?$less@PAVA_Star_Graph_Node@@@4@V?$allocator@PAVA_Star_Graph_Node@@@4@@std@@QAE?AViterator@12@ABQAVA_Star_Graph_Node@@@Z 00411840 f i Path_Planner.obj
 0001:000108b0       ?Make_A_Star_Graph_From_Divided_Cell@?$QuadTree@HM@@IAEXAAVA_Star_Graph_Map@@PAV?$QuadTree_Cell@HM@@@Z 004118b0 f i Path_Planner.obj
 0001:00010c00       ?Make_A_Star_Graph_From_Undivided_Cell@?$QuadTree@HM@@IAEXAAVA_Star_Graph_Map@@PAV?$QuadTree_Cell@HM@@@Z 00411c00 f i Path_Planner.obj
 0001:00010e70       ??0?$pair@Viterator@?$_Tree@PAVA_Star_Graph_Node@@PAV1@U_Kfn@?$set@PAVA_Star_Graph_Node@@U?$less@PAVA_Star_Graph_Node@@@std@@V?$allocator@PAVA_Star_Graph_Node@@@3@@std@@U?$less@PAVA_Star_Graph_Node@@@4@V?$allocator@PAVA_Star_Graph_Node@@@4@@std@@_N@std@@QAE@ABViterator@?$_Tree@PAVA_Star_Graph_Node@@PAV1@U_Kfn@?$set@PAVA_Star_Graph_Node@@U?$less@PAVA_Star_Graph_Node@@@std@@V?$allocator@PAVA_Star_Graph_Node@@@3@@std@@U?$less@PAVA_Star_Graph_Node@@@4@V?$allocator@PAVA_Star_Graph_Node@@@4@@1@AB_N@Z 00411e70 f i Path_Planner.obj
 0001:00010e90       ?Link_Internal_Nodes_In_A_Star_Graph@?$QuadTree@HM@@IAEXAAVA_Star_Graph_Map@@AAVlinked_list@@1_N@Z 00411e90 f i Path_Planner.obj
 0001:00011240       ?Get_Cell_Rect@?$QuadTree@HM@@QAE?AV?$QuadTree_Rect@HM@@PAV?$QuadTree_Cell@HM@@@Z 00412240 f i Path_Planner.obj
 0001:00011290       ?Resize@?$semi_dynamic_array@PAV?$Pool_Element@Vlist_cell@@@@@@QAEXH@Z 00412290 f i Path_Planner.obj
 0001:00011350       ?Link_Two_Cells@?$QuadTree@HM@@IAEXPAV?$QuadTree_Cell@HM@@0@Z 00412350 f i Path_Planner.obj
 0001:000114f0       ?Compute_Transition_Cost@?$QuadTree@HM@@IAEMPAV?$QuadTree_Cell@HM@@0@Z 004124f0 f i Path_Planner.obj
 0001:000115e0       ??0AttackBaseGoal@@QAE@XZ  004125e0 f   AttackBaseGoal.obj
 0001:00011650       ??1AttackBaseGoal@@UAE@XZ  00412650 f   AttackBaseGoal.obj
 0001:000116a0       ?Compute_Needed_Troop_Flow@AttackBaseGoal@@UAEXXZ 004126a0 f   AttackBaseGoal.obj
 0001:00011700       ?Compute_Raw_Priority@AttackBaseGoal@@UAEJXZ 00412700 f   AttackBaseGoal.obj
 0001:00011850       ?GetNewAIFleetForGoal@AttackBaseGoal@@UAEPAVAIFleet@@XZ 00412850 f   AttackBaseGoal.obj
 0001:000118b0       ?Get_Totally_Complete@AttackBaseGoal@@UAE_NXZ 004128b0 f   AttackBaseGoal.obj
 0001:000118f0       ?Find_Attack_Target@AttackBaseGoal@@IBEPAVCraft@@XZ 004128f0 f   AttackBaseGoal.obj
 0001:00011ae0       ??_GAttackBaseGoal@@UAEPAXI@Z 00412ae0 f i AttackBaseGoal.obj
 0001:00011ae0       ??_EAttackBaseGoal@@UAEPAXI@Z 00412ae0 f i AttackBaseGoal.obj
 0001:00011b10       ?Search@?$Range@H@@QAEXMMMMAAV?$Generic_Range_Search_Results@H@@@Z 00412b10 f i AttackBaseGoal.obj
 0001:00011c60       ??0AttackGoal@@QAE@XZ      00412c60 f   AttackGoal.obj
 0001:00011cd0       ??1AttackGoal@@UAE@XZ      00412cd0 f   AttackGoal.obj
 0001:00011d20       ?Compute_Needed_Troop_Flow@AttackGoal@@UAEXXZ 00412d20 f   AttackGoal.obj
 0001:00011d80       ?Compute_Raw_Priority@AttackGoal@@UAEJXZ 00412d80 f   AttackGoal.obj
 0001:00011ef0       ?GetNewAIFleetForGoal@AttackGoal@@UAEPAVAIFleet@@XZ 00412ef0 f   AttackGoal.obj
 0001:00011f50       ?Get_Totally_Complete@AttackGoal@@UAE_NXZ 00412f50 f   AttackGoal.obj
 0001:00011fc0       ??_EAttackGoal@@UAEPAXI@Z  00412fc0 f i AttackGoal.obj
 0001:00011fc0       ??_GAttackGoal@@UAEPAXI@Z  00412fc0 f i AttackGoal.obj
 0001:00011ff0       ??0DefendGoal@@QAE@XZ      00412ff0 f   DefendGoal.obj
 0001:00012060       ??1DefendGoal@@UAE@XZ      00413060 f   DefendGoal.obj
 0001:000120b0       ?Compute_Needed_Troop_Flow@DefendGoal@@UAEXXZ 004130b0 f   DefendGoal.obj
 0001:00012110       ?Compute_Raw_Priority@DefendGoal@@UAEJXZ 00413110 f   DefendGoal.obj
 0001:00012230       ?GetNewAIFleetForGoal@DefendGoal@@UAEPAVAIFleet@@XZ 00413230 f   DefendGoal.obj
 0001:00012290       ?Get_Totally_Complete@DefendGoal@@UAE_NXZ 00413290 f   DefendGoal.obj
 0001:000122f0       ??_EDefendGoal@@UAEPAXI@Z  004132f0 f i DefendGoal.obj
 0001:000122f0       ??_GDefendGoal@@UAEPAXI@Z  004132f0 f i DefendGoal.obj
 0001:00012320       ??0EscortGoal@@QAE@XZ      00413320 f   EscortGoal.obj
 0001:00012390       ??1EscortGoal@@UAE@XZ      00413390 f   EscortGoal.obj
 0001:000123e0       ?Set_Target_Craft@EscortGoal@@QAEXABH@Z 004133e0 f   EscortGoal.obj
 0001:000123f0       ?Get_Pos@EscortGoal@@QBEABVVector3@@XZ 004133f0 f   EscortGoal.obj
 0001:00012480       ?Compute_Needed_Troop_Flow@EscortGoal@@UAEXXZ 00413480 f   EscortGoal.obj
 0001:000124c0       ?Compute_Raw_Priority@EscortGoal@@UAEJXZ 004134c0 f   EscortGoal.obj
 0001:00012610       ?Execute_Task@EscortGoal@@UAE?AW4GOAL_RESULT@@XZ 00413610 f   EscortGoal.obj
 0001:00012760       ?Get_Totally_Complete@EscortGoal@@UAE_NXZ 00413760 f   EscortGoal.obj
 0001:000127c0       ?GetNewAIFleetForGoal@EscortGoal@@UAEPAVAIFleet@@XZ 004137c0 f i EscortGoal.obj
 0001:000127d0       ??_GEscortGoal@@UAEPAXI@Z  004137d0 f i EscortGoal.obj
 0001:000127d0       ??_EEscortGoal@@UAEPAXI@Z  004137d0 f i EscortGoal.obj
 0001:00012800       ?GetCraftUnlessDestroyed@Craft@@SAPAV1@H@Z 00413800 f i EscortGoal.obj
 0001:00012830       ??0ExploreGoal@@QAE@XZ     00413830 f   ExploreGoal.obj
 0001:000128a0       ??1ExploreGoal@@UAE@XZ     004138a0 f   ExploreGoal.obj
 0001:000128f0       ?Compute_Needed_Troop_Flow@ExploreGoal@@UAEXXZ 004138f0 f   ExploreGoal.obj
 0001:00012930       ?Compute_Raw_Priority@ExploreGoal@@UAEJXZ 00413930 f   ExploreGoal.obj
 0001:00012ae0       ?GetNewAIFleetForGoal@ExploreGoal@@UAEPAVAIFleet@@XZ 00413ae0 f   ExploreGoal.obj
 0001:00012b40       ?Get_Totally_Complete@ExploreGoal@@UAE_NXZ 00413b40 f   ExploreGoal.obj
 0001:00012bd0       ?Find_Attack_Target@ExploreGoal@@IBEPAVCraft@@XZ 00413bd0 f   ExploreGoal.obj
 0001:00012c00       ??_GExploreGoal@@UAEPAXI@Z 00413c00 f i ExploreGoal.obj
 0001:00012c00       ??_EExploreGoal@@UAEPAXI@Z 00413c00 f i ExploreGoal.obj
 0001:00012c50       ??0Goal@@QAE@XZ            00413c50 f   goal.obj
 0001:00012d80       ??0Goal@@QAE@ABV0@@Z       00413d80 f   goal.obj
 0001:00012e30       ??1Goal@@UAE@XZ            00413e30 f   goal.obj
 0001:00012f10       ??4Goal@@UAEAAV0@ABV0@@Z   00413f10 f   goal.obj
 0001:00013080       ??MGoal@@QBE_NABV0@@Z      00414080 f   goal.obj
 0001:000130a0       ?Init@Goal@@UAEXXZ         004140a0 f   goal.obj
 0001:00013150       ?Get_Goal_Type@Goal@@QBE?AW4GOAL_TYPE@@XZ 00414150 f   goal.obj
 0001:00013160       ?Set_Team_Index@Goal@@QAEXABF@Z 00414160 f   goal.obj
 0001:00013180       ?Get_Team_Index@Goal@@QBEFXZ 00414180 f   goal.obj
 0001:00013190       ?Is_Satisfied@Goal@@UBE_NXZ 00414190 f   goal.obj
 0001:000131b0       ?Is_Goal_Undercommitted@Goal@@UBE_NXZ 004141b0 f   goal.obj
 0001:000131d0       ?Get_Agent_Count@Goal@@QBEFXZ 004141d0 f   goal.obj
 0001:000131e0       ?Commit_Agent@Goal@@QAE?AViterator@?$list@PAVAgent@@V?$allocator@PAVAgent@@@std@@@std@@ABQAVAgent@@@Z 004141e0 f   goal.obj
 0001:00013260       ?Rollback_Agent@Goal@@UAEPAVAgent@@ABViterator@?$list@PAVAgent@@V?$allocator@PAVAgent@@@std@@@std@@@Z 00414260 f   goal.obj
 0001:000132c0       ?Is_Execute_Incrementally@Goal@@UAE_NXZ 004142c0 f   goal.obj
 0001:000132d0       ?Compute_Needed_Troop_Flow@Goal@@UAEXXZ 004142d0 f   goal.obj
 0001:000132e0       ?Compute_Matching_Value@Goal@@UAEJPAVAgent@@@Z 004142e0 f   goal.obj
 0001:000132f0       ?Compute_Raw_Priority@Goal@@UAEJXZ 004142f0 f   goal.obj
 0001:00013300       ?Execute_Task@Goal@@UAE?AW4GOAL_RESULT@@XZ 00414300 f   goal.obj
 0001:00013320       ?Get_Totally_Complete@Goal@@UAE_NXZ 00414320 f   goal.obj
 0001:000133a0       ?Set_Totally_Complete@Goal@@UAEXAB_N@Z 004143a0 f   goal.obj
 0001:000133b0       ?Set_Invalid@Goal@@UAEXAB_N@Z 004143b0 f   goal.obj
 0001:000133c0       ?Get_Invalid@Goal@@QBE_NXZ 004143c0 f   goal.obj
 0001:000133d0       ?Get_Removal_Time@Goal@@QBE?AW4REMOVAL_TIME@1@XZ 004143d0 f   goal.obj
 0001:000133e0       ?Set_Removal_Time@Goal@@QAEXABW4REMOVAL_TIME@1@@Z 004143e0 f   goal.obj
 0001:000133f0       ?Can_Be_Executed@Goal@@QBE_NXZ 004143f0 f   goal.obj
 0001:00013410       ?Validate@Goal@@UBE_NXZ    00414410 f   goal.obj
 0001:00013420       ?Get_Debug_Name@Goal@@UBEXPAD@Z 00414420 f   goal.obj
 0001:00013460       ?Add_Match_Reference@Goal@@QAEXABViterator@?$list@VPlan@@V?$allocator@VPlan@@@std@@@std@@@Z 00414460 f   goal.obj
 0001:000134c0       ?Remove_Match_Reference@Goal@@QAEXABViterator@?$list@VPlan@@V?$allocator@VPlan@@@std@@@std@@@Z 004144c0 f   goal.obj
 0001:00013510       ?Get_Match_References@Goal@@QAEAAV?$list@Viterator@?$list@VPlan@@V?$allocator@VPlan@@@std@@@std@@V?$allocator@Viterator@?$list@VPlan@@V?$allocator@VPlan@@@std@@@std@@@3@@std@@XZ 00414510 f   goal.obj
 0001:00013520       ?Set_Pos@Goal@@QAEXABF0@Z  00414520 f   goal.obj
 0001:00013540       ?Get_Pos@Goal@@QBE?AU?$pair@FF@std@@XZ 00414540 f   goal.obj
 0001:00013550       ?Set_Type@Goal@@QAEXABW4GOAL_TYPE@@@Z 00414550 f   goal.obj
 0001:00013560       ?Set_Raw_Priority@Goal@@QAEXABJ@Z 00414560 f   goal.obj
 0001:00013570       ?Get_Raw_Priority@Goal@@QBEJXZ 00414570 f   goal.obj
 0001:00013580       ?Set_Class@Goal@@QAEXABW4GOAL_CLASS@@@Z 00414580 f   goal.obj
 0001:00013590       ?Get_Class@Goal@@QBE?AW4GOAL_CLASS@@XZ 00414590 f   goal.obj
 0001:000135a0       ?Get_Is_Appropriate@Goal@@QBE_NXZ 004145a0 f   goal.obj
 0001:000135b0       ??_EGoal@@UAEPAXI@Z        004145b0 f i goal.obj
 0001:000135b0       ??_GGoal@@UAEPAXI@Z        004145b0 f i goal.obj
 0001:000135e0       ??1?$list@PAVAgent@@V?$allocator@PAVAgent@@@std@@@std@@QAE@XZ 004145e0 f i goal.obj
 0001:00013630       ?erase@?$list@PAVAgent@@V?$allocator@PAVAgent@@@std@@@std@@QAE?AViterator@12@V312@@Z 00414630 f i goal.obj
 0001:00013670       ??1?$list@Viterator@?$list@VPlan@@V?$allocator@VPlan@@@std@@@std@@V?$allocator@Viterator@?$list@VPlan@@V?$allocator@VPlan@@@std@@@std@@@3@@std@@QAE@XZ 00414670 f i goal.obj
 0001:000136c0       ?insert@?$list@PAVAgent@@V?$allocator@PAVAgent@@@std@@@std@@QAEXViterator@12@Vconst_iterator@12@1@Z 004146c0 f i goal.obj
 0001:00013730       ?erase@?$list@Viterator@?$list@VPlan@@V?$allocator@VPlan@@@std@@@std@@V?$allocator@Viterator@?$list@VPlan@@V?$allocator@VPlan@@@std@@@std@@@3@@std@@QAE?AViterator@12@V312@@Z 00414730 f i goal.obj
 0001:00013770       ?_Buynode@?$list@Viterator@?$list@VPlan@@V?$allocator@VPlan@@@std@@@std@@V?$allocator@Viterator@?$list@VPlan@@V?$allocator@VPlan@@@std@@@std@@@3@@std@@IAEPAU_Node@12@PAU312@0@Z 00414770 f i goal.obj
 0001:000137a0       ?_Construct@std@@YAXPAViterator@?$list@VPlan@@V?$allocator@VPlan@@@std@@@1@ABV231@@Z 004147a0 f i goal.obj
 0001:000137c0       ??0ResourceGoal@@QAE@XZ    004147c0 f   ResourceGoal.obj
 0001:00013830       ??1ResourceGoal@@UAE@XZ    00414830 f   ResourceGoal.obj
 0001:00013880       ?Compute_Needed_Troop_Flow@ResourceGoal@@UAEXXZ 00414880 f   ResourceGoal.obj
 0001:000138e0       ?Compute_Raw_Priority@ResourceGoal@@UAEJXZ 004148e0 f   ResourceGoal.obj
 0001:00013a00       ?GetNewAIFleetForGoal@ResourceGoal@@UAEPAVAIFleet@@XZ 00414a00 f   ResourceGoal.obj
 0001:00013a60       ?Get_Totally_Complete@ResourceGoal@@UAE_NXZ 00414a60 f   ResourceGoal.obj
 0001:00013ad0       ??_EResourceGoal@@UAEPAXI@Z 00414ad0 f i ResourceGoal.obj
 0001:00013ad0       ??_GResourceGoal@@UAEPAXI@Z 00414ad0 f i ResourceGoal.obj
 0001:00013b00       ??0STGoal@@QAE@XZ          00414b00 f   STGoal.obj
 0001:00013b90       ??1STGoal@@UAE@XZ          00414b90 f   STGoal.obj
 0001:00013bc0       ?Init@STGoal@@UAEXXZ       00414bc0 f   STGoal.obj
 0001:00013c00       ?CleanUp@STGoal@@QAEXXZ    00414c00 f   STGoal.obj
 0001:00013c20       ?Set_Pos@STGoal@@QAEXABVVector3@@@Z 00414c20 f   STGoal.obj
 0001:00013c40       ?Get_Pos@STGoal@@QBEABVVector3@@XZ 00414c40 f   STGoal.obj
 0001:00013c50       ?Rollback_Agent@STGoal@@UAEPAVAgent@@ABViterator@?$list@PAVAgent@@V?$allocator@PAVAgent@@@std@@@std@@@Z 00414c50 f   STGoal.obj
 0001:00013ca0       ?Compute_Needed_Troop_Flow@STGoal@@UAEXXZ 00414ca0 f   STGoal.obj
 0001:00013cf0       ?Compute_Matching_Value@STGoal@@UAEJPAVAgent@@@Z 00414cf0 f   STGoal.obj
 0001:00013dd0       ?Compute_Raw_Priority@STGoal@@UAEJXZ 00414dd0 f   STGoal.obj
 0001:00013e80       ?Execute_Task@STGoal@@UAE?AW4GOAL_RESULT@@XZ 00414e80 f   STGoal.obj
 0001:00013fa0       ?Get_Totally_Complete@STGoal@@UAE_NXZ 00414fa0 f   STGoal.obj
 0001:00013ff0       ?Pretest_Bid@STGoal@@UBE_NQAVAgent@@@Z 00414ff0 f   STGoal.obj
 0001:00014030       ?Pretest_Bid@STGoal@@MBE_NPAVCraft@@@Z 00415030 f   STGoal.obj
 0001:000140a0       ?Log_Debug_Info@STGoal@@UBEXABQBD@Z 004150a0 f   STGoal.obj
 0001:00014210       ?GetGoalTypeColor@STGoal@@UAEPAVST3D_Colour@@XZ 00415210 f   STGoal.obj
 0001:00014220       ?Find_Attack_Target@STGoal@@IBEPAVCraft@@XZ 00415220 f   STGoal.obj
 0001:00014410       ??_GSTGoal@@UAEPAXI@Z      00415410 f i STGoal.obj
 0001:00014410       ??_ESTGoal@@UAEPAXI@Z      00415410 f i STGoal.obj
 0001:00014440       ??0Agent@@QAE@XZ           00415440 f   agent.obj
 0001:00014460       ??0Agent@@QAE@ABV0@@Z      00415460 f   agent.obj
 0001:00014480       ??1Agent@@UAE@XZ           00415480 f   agent.obj
 0001:00014490       ?Init@Agent@@UAEXXZ        00415490 f   agent.obj
 0001:000144a0       ??4Agent@@UAEAAV0@ABV0@@Z  004154a0 f   agent.obj
 0001:000144c0       ?Get_Type@Agent@@QBEFXZ    004154c0 f   agent.obj
 0001:000144d0       ?Set_Type@Agent@@QAEXABF@Z 004154d0 f   agent.obj
 0001:000144f0       ?Get_Is_Used@Agent@@QBE_NXZ 004154f0 f   agent.obj
 0001:00014500       ?Set_Is_Used@Agent@@QAEXAB_N@Z 00415500 f   agent.obj
 0001:00014510       ?Get_Is_Dead@Agent@@UBE_NXZ 00415510 f   agent.obj
 0001:00014520       ?Set_Squad_Class@Agent@@QAEXABW4SQUAD_CLASS@@@Z 00415520 f   agent.obj
 0001:00014530       ?Get_Squad_Class@Agent@@QAE?AW4SQUAD_CLASS@@XZ 00415530 f   agent.obj
 0001:00014540       ?Set_Pos@Agent@@UAEXABF0@Z 00415540 f   agent.obj
 0001:00014550       ?Get_Pos@Agent@@UAE?AU?$pair@FF@std@@XZ 00415550 f   agent.obj
 0001:00014570       ?Get_Attack_Strength@Agent@@UAEMXZ 00415570 f   agent.obj
 0001:00014580       ?Get_Defense_Strength@Agent@@UAEMXZ 00415580 f   agent.obj
 0001:00014590       ?Get_Value@Agent@@UAEMXZ   00415590 f   agent.obj
 0001:000145a0       ??_GAgent@@UAEPAXI@Z       004155a0 f i agent.obj
 0001:000145a0       ??_EAgent@@UAEPAXI@Z       004155a0 f i agent.obj
 0001:000145d0       ??0STAgent@@QAE@XZ         004155d0 f   STAgent.obj
 0001:00014630       ??0STAgent@@QAE@ABV0@@Z    00415630 f   STAgent.obj
 0001:00014680       ??1STAgent@@UAE@XZ         00415680 f   STAgent.obj
 0001:00014690       ?Init@STAgent@@UAEXXZ      00415690 f   STAgent.obj
 0001:000146b0       ??4STAgent@@UAEAAV0@ABV0@@Z 004156b0 f   STAgent.obj
	0001:000146e0       ?Set_Handle@STAgent@@QAEXABH@Z 004156e0 f   STAgent.obj
 0001:00014730       ?Get_Is_Dead@STAgent@@UBE_NXZ 00415730 f   STAgent.obj
 0001:00014770       ?Get_Pos@STAgent@@QBE?AVVector3@@XZ 00415770 f   STAgent.obj
 0001:000147d0       ?Get_Attack_Strength@STAgent@@UAEMXZ 004157d0 f   STAgent.obj
 0001:000147e0       ?Get_Defense_Strength@STAgent@@UAEMXZ 004157e0 f   STAgent.obj
 0001:000147f0       ?Get_Value@STAgent@@UAEMXZ 004157f0 f   STAgent.obj
 0001:00014800       ?Log_Debug_Info@STAgent@@UBEXABQBD@Z 00415800 f   STAgent.obj
 0001:00014950       ??_GSTAgent@@UAEPAXI@Z     00415950 f i STAgent.obj
 0001:00014950       ??_ESTAgent@@UAEPAXI@Z     00415950 f i STAgent.obj
 0001:00014980       ??0Squad@@QAE@XZ           00415980 f   Squad.obj
 0001:00014a60       ??0Squad@@QAE@ABV0@@Z      00415a60 f   Squad.obj
 0001:00014af0       ??1Squad@@UAE@XZ           00415af0 f   Squad.obj
 0001:00014bf0       ?Init@Squad@@UAEXXZ        00415bf0 f   Squad.obj
 0001:00014c80       ??4Squad@@UAEAAV0@ABV0@@Z  00415c80 f   Squad.obj
 0001:00014db0       ?Remove_Dead_Agents@Squad@@QAEFXZ 00415db0 f   Squad.obj
 0001:00014e20       ?Remove_Used_Agents@Squad@@QAE_NXZ 00415e20 f   Squad.obj
 0001:00014e70       ?Get_Num_Agents@Squad@@QBEFXZ 00415e70 f   Squad.obj
 0001:00014e80       ?Get_Is_committed@Squad@@QAE_NXZ 00415e80 f   Squad.obj
 0001:00014ec0       ?Remove_Agent@Squad@@QAE?AViterator@?$list@PAVAgent@@V?$allocator@PAVAgent@@@std@@@std@@ABV234@AB_N@Z 00415ec0 f   Squad.obj
 0001:00014f40       ?Compute_Squad_Class@Squad@@QAE?AW4SQUAD_CLASS@@XZ 00415f40 f   Squad.obj
 0001:00014f80       ?Get_Squad_Class@Squad@@QBE?AW4SQUAD_CLASS@@XZ 00415f80 f   Squad.obj
 0001:00014f90       ?Add_Agent@Squad@@QAEXPAVAgent@@@Z 00415f90 f   Squad.obj
 0001:00014ff0       ?Remove_Agent@Squad@@QAEXPAVAgent@@@Z 00415ff0 f   Squad.obj
 0001:00015040       ?Add_Match_Reference@Squad@@QAEXABViterator@?$list@VPlan@@V?$allocator@VPlan@@@std@@@std@@@Z 00416040 f   Squad.obj
 0001:000150a0       ?Remove_Match_Reference@Squad@@QAEXABViterator@?$list@VPlan@@V?$allocator@VPlan@@@std@@@std@@@Z 004160a0 f   Squad.obj
 0001:000150f0       ?Get_Match_References@Squad@@QAEAAV?$list@Viterator@?$list@VPlan@@V?$allocator@VPlan@@@std@@@std@@V?$allocator@Viterator@?$list@VPlan@@V?$allocator@VPlan@@@std@@@std@@@3@@std@@XZ 004160f0 f   Squad.obj
 0001:00015100       ?Get_Agent_List@Squad@@QAEAAV?$list@PAVAgent@@V?$allocator@PAVAgent@@@std@@@std@@XZ 00416100 f   Squad.obj
 0001:00015110       ?Log_Debug_Info@Squad@@QBEXABQBD@Z 00416110 f   Squad.obj
 0001:00015140       ??_GSquad@@UAEPAXI@Z       00416140 f i Squad.obj
 0001:00015140       ??_ESquad@@UAEPAXI@Z       00416140 f i Squad.obj
 0001:00015170       ?_Buynode@?$list@PAVAgent@@V?$allocator@PAVAgent@@@std@@@std@@IAEPAU_Node@12@PAU312@0@Z 00416170 f i Squad.obj
 0001:000151a0       ?insert@?$list@Viterator@?$list@VPlan@@V?$allocator@VPlan@@@std@@@std@@V?$allocator@Viterator@?$list@VPlan@@V?$allocator@VPlan@@@std@@@std@@@3@@std@@QAEXViterator@12@Vconst_iterator@12@1@Z 004161a0 f i Squad.obj
 0001:00015210       ?_Construct@std@@YAXPAPAVAgent@@ABQAV2@@Z 00416210 f i Squad.obj
 0001:00015230       ??0Squad_Strength@@QAE@XZ  00416230 f   squad_Strength.obj
 0001:00015250       ??0Squad_Strength@@QAE@ABV0@@Z 00416250 f   squad_Strength.obj
 0001:00015270       ??1Squad_Strength@@UAE@XZ  00416270 f   squad_Strength.obj
 0001:00015280       ??4Squad_Strength@@UAEAAV0@ABV0@@Z 00416280 f   squad_Strength.obj
 0001:000152b0       ??OSquad_Strength@@UBE_NABV0@@Z 004162b0 f   squad_Strength.obj
 0001:00015300       ??HSquad_Strength@@UAEAAV0@ABV0@@Z 00416300 f   squad_Strength.obj
 0001:00015330       ??GSquad_Strength@@UAEAAV0@ABV0@@Z 00416330 f   squad_Strength.obj
 0001:00015360       ?Get_Agent_Count@Squad_Strength@@UBEJXZ 00416360 f   squad_Strength.obj
 0001:00015370       ?Set_Agent_Count@Squad_Strength@@UAEXABJ@Z 00416370 f   squad_Strength.obj
 0001:00015390       ?Add_Agent_Strength@Squad_Strength@@UAEXABQAVAgent@@@Z 00416390 f   squad_Strength.obj
 0001:000153d0       ?Remove_Agent_Strength@Squad_Strength@@UAEXABQAVAgent@@@Z 004163d0 f   squad_Strength.obj
 0001:00015410       ?Get_Attack@Squad_Strength@@UBEMXZ 00416410 f   squad_Strength.obj
 0001:00015420       ?Set_Attack@Squad_Strength@@UAEXABM@Z 00416420 f   squad_Strength.obj
 0001:00015430       ?Get_Defense@Squad_Strength@@UBEMXZ 00416430 f   squad_Strength.obj
 0001:00015440       ?Set_Defense@Squad_Strength@@UAEXABM@Z 00416440 f   squad_Strength.obj
 0001:00015450       ?Get_Value@Squad_Strength@@UBEMXZ 00416450 f   squad_Strength.obj
 0001:00015460       ?Set_Value@Squad_Strength@@UAEXABM@Z 00416460 f   squad_Strength.obj
 0001:00015470       ??_ESquad_Strength@@UAEPAXI@Z 00416470 f i squad_Strength.obj
 0001:00015470       ??_GSquad_Strength@@UAEPAXI@Z 00416470 f i squad_Strength.obj
 0001:000154a0       ?Init@Squad_Strength@@UAEXXZ 004164a0 f i squad_Strength.obj
 0001:000154b0       ??0Plan@@QAE@XZ            004164b0 f   Plan.obj
 0001:00015560       ??1Plan@@UAE@XZ            00416560 f   Plan.obj
 0001:000155c0       ??0Plan@@QAE@ABV0@@Z       004165c0 f   Plan.obj
 0001:00015710       ??4Plan@@QAEAAV0@ABV0@@Z   00416710 f   Plan.obj
 0001:00015830       ??MPlan@@QBE_NABV0@@Z      00416830 f   Plan.obj
 0001:00015850       ??OPlan@@QBE_NABV0@@Z      00416850 f   Plan.obj
 0001:00015870       ?Init@Plan@@QAEXXZ         00416870 f   Plan.obj
 0001:000158d0       ?Get_Goal_Type@Plan@@QBE?AW4GOAL_TYPE@@XZ 004168d0 f   Plan.obj
 0001:000158e0       ?Plan_Is_Needed_And_Valid@Plan@@QBE_NXZ 004168e0 f   Plan.obj
 0001:00015930       ?Compute_Matching_Value@Plan@@QAEJXZ 00416930 f   Plan.obj
 0001:000159b0       ?Get_Matching_Value@Plan@@QBEJXZ 004169b0 f   Plan.obj
 0001:000159c0       ?Set_Goal@Plan@@QAEXPAVGoal@@@Z 004169c0 f   Plan.obj
 0001:000159d0       ?Get_Goal@Plan@@QBEPAVGoal@@XZ 004169d0 f   Plan.obj
 0001:000159e0       ?Set_Squad@Plan@@QAEXPAVSquad@@@Z 004169e0 f   Plan.obj
 0001:00015ad0       ?Get_Squad@Plan@@QBEPAVSquad@@XZ 00416ad0 f   Plan.obj
 0001:00015ae0       ?Commit_Agents@Plan@@QAEFXZ 00416ae0 f   Plan.obj
 0001:00015b70       ?Execute_Task@Plan@@QAE?AW4GOAL_RESULT@@XZ 00416b70 f   Plan.obj
 0001:00015b80       ?Rollback_Invalid_Agents@Plan@@QAEFXZ 00416b80 f   Plan.obj
 0001:00015be0       ?Rollback_All_Agents@Plan@@QAEFXZ 00416be0 f   Plan.obj
 0001:00015c20       ?Move_All_Agents@Plan@@QAEFPAVSquad@@@Z 00416c20 f   Plan.obj
 0001:00015c90       ?Remove_Agent_Reference@Plan@@QAE_NABViterator@?$list@PAVAgent@@V?$allocator@PAVAgent@@@std@@@std@@@Z 00416c90 f   Plan.obj
 0001:00015d20       ??_EPlan@@UAEPAXI@Z        00416d20 f i Plan.obj
 0001:00015d20       ??_GPlan@@UAEPAXI@Z        00416d20 f i Plan.obj
 0001:00015d50       ??1?$list@UAgent_Match@Plan@@V?$allocator@UAgent_Match@Plan@@@std@@@std@@QAE@XZ 00416d50 f i Plan.obj
 0001:00015da0       ?sort@?$list@UAgent_Match@Plan@@V?$allocator@UAgent_Match@Plan@@@std@@@std@@QAEXU?$greater@UAgent_Match@Plan@@@2@@Z 00416da0 f i Plan.obj
 0001:00016030       ?begin@?$list@UAgent_Match@Plan@@V?$allocator@UAgent_Match@Plan@@@std@@@std@@QAE?AViterator@12@XZ 00417030 f i Plan.obj
 0001:00016050       ??_F?$list@UAgent_Match@Plan@@V?$allocator@UAgent_Match@Plan@@@std@@@std@@QAEXXZ 00417050 f i Plan.obj
 0001:00016080       ?pop_back@?$list@UAgent_Match@Plan@@V?$allocator@UAgent_Match@Plan@@@std@@@std@@QAEXXZ 00417080 f i Plan.obj
 0001:000160b0       ?swap@?$list@UAgent_Match@Plan@@V?$allocator@UAgent_Match@Plan@@@std@@@std@@QAEXAAV12@@Z 004170b0 f i Plan.obj
 0001:000160e0       ?merge@?$list@UAgent_Match@Plan@@V?$allocator@UAgent_Match@Plan@@@std@@@std@@QAEXAAV12@U?$greater@UAgent_Match@Plan@@@2@@Z 004170e0 f i Plan.obj
 0001:000161a0       ?_Buynode@?$list@UAgent_Match@Plan@@V?$allocator@UAgent_Match@Plan@@@std@@@std@@IAEPAU_Node@12@PAU312@0@Z 004171a0 f i Plan.obj
 0001:000161d0       ?insert@?$list@UAgent_Match@Plan@@V?$allocator@UAgent_Match@Plan@@@std@@@std@@QAE?AViterator@12@V312@ABUAgent_Match@Plan@@@Z 004171d0 f i Plan.obj
 0001:00016240       ?_Splice@?$list@UAgent_Match@Plan@@V?$allocator@UAgent_Match@Plan@@@std@@@std@@IAEXViterator@12@AAV12@00@Z 00417240 f i Plan.obj
 0001:00016280       ?_Construct@std@@YAXPAUAgent_Match@Plan@@ABU23@@Z 00417280 f i Plan.obj
 0001:000162b0       ?Associate_Squad_Class_With_Goal_Class@Scheduler@@SAXABW4SQUAD_CLASS@@ABW4GOAL_CLASS@@@Z 004172b0 f   Scheduler.obj
 0001:00016370       ??0Scheduler@@QAE@XZ       00417370 f   Scheduler.obj
 0001:00016470       ??0Scheduler@@QAE@ABV0@@Z  00417470 f   Scheduler.obj
 0001:00016570       ??1Scheduler@@UAE@XZ       00417570 f   Scheduler.obj
 0001:00016810       ??4Scheduler@@QAEAAV0@ABV0@@Z 00417810 f   Scheduler.obj
 0001:00016b50       ?Init@Scheduler@@QAEXXZ    00417b50 f   Scheduler.obj
 0001:00016e50       ?Set_Team_Index@Scheduler@@QAEXABF@Z 00417e50 f   Scheduler.obj
 0001:00016e70       ?Get_Team_Index@Scheduler@@QBEFXZ 00417e70 f   Scheduler.obj
 0001:00016e80       ?Reclassify_Squad@Scheduler@@QAEXPAVSquad@@ABW4SQUAD_CLASS@@@Z 00417e80 f   Scheduler.obj
 0001:00016f40       ?Planning_Status_Reset@Scheduler@@QAEXXZ 00417f40 f   Scheduler.obj
 0001:00016f60       ?Process_Squad_Changes@Scheduler@@QAE?AW4TIME_SLICE_STATE@1@XZ 00417f60 f   Scheduler.obj
 0001:00017260       ?Process_Goal_Changes@Scheduler@@QAE?AW4TIME_SLICE_STATE@1@XZ 00418260 f   Scheduler.obj
 0001:000173a0       ?Sort_Matches@Scheduler@@QAE_NXZ 004183a0 f   Scheduler.obj
 0001:00017400       ?Match_Resources@Scheduler@@QAEXXZ 00418400 f   Scheduler.obj
 0001:000176d0       ?Add_New_Goal@Scheduler@@QAEXABQAVGoal@@@Z 004186d0 f   Scheduler.obj
 0001:00017730       ?Add_New_Squad@Scheduler@@QAEXABQAVSquad@@@Z 00418730 f   Scheduler.obj
 0001:00017790       ?Remove_Goal@Scheduler@@QAEXABQAVGoal@@@Z 00418790 f   Scheduler.obj
 0001:00017880       ?Validate@Scheduler@@QAE_NXZ 00418880 f   Scheduler.obj
 0001:00017890       ?Get_Top_Goals@Scheduler@@QBE?AV?$list@VSorted_Goal_ptr@Scheduler@@V?$allocator@VSorted_Goal_ptr@Scheduler@@@std@@@std@@ABH@Z 00418890 f   Scheduler.obj
 0001:00017ad0       ?GetExecutedGoals@Scheduler@@QBE?AV?$list@PAVGoal@@V?$allocator@PAVGoal@@@std@@@std@@XZ 00418ad0 f   Scheduler.obj
 0001:00017ca0       ?Prioritize_Goals@Scheduler@@IAE_NXZ 00418ca0 f   Scheduler.obj
 0001:00017fd0       ?Prune_Goals@Scheduler@@IAE_NXZ 00418fd0 f   Scheduler.obj
 0001:000181c0       ?Add_New_Match_For_Goal_And_Squad@Scheduler@@IAE_NABViterator@?$list@VSorted_Goal_ptr@Scheduler@@V?$allocator@VSorted_Goal_ptr@Scheduler@@@std@@@std@@ABV2?$list@PAVSquad@@V?$allocator@PAVSquad@@@std@@@4@@Z 004191c0 f   Scheduler.obj
 0001:00018370       ?Add_New_Matches_For_Goal@Scheduler@@IAEJABViterator@?$list@VSorted_Goal_ptr@Scheduler@@V?$allocator@VSorted_Goal_ptr@Scheduler@@@std@@@std@@@Z 00419370 f   Scheduler.obj
 0001:00018420       ?Add_New_Matches_For_Squad@Scheduler@@IAEJABViterator@?$list@PAVSquad@@V?$allocator@PAVSquad@@@std@@@std@@@Z 00419420 f   Scheduler.obj
 0001:000184d0       ?Free_Undercommitted_Goal@Scheduler@@IAE_NXZ 004194d0 f   Scheduler.obj
 0001:00018680       ?Remove_Matches_For_Goal@Scheduler@@IAEXABQAVGoal@@@Z 00419680 f   Scheduler.obj
 0001:00018750       ?Remove_Matches_For_Squad@Scheduler@@IAEXABQAVSquad@@@Z 00419750 f   Scheduler.obj
 0001:00018820       ?Remove_Match@Scheduler@@IAEXAAViterator@?$list@VPlan@@V?$allocator@VPlan@@@std@@@std@@@Z 00419820 f   Scheduler.obj
 0001:00018880       ?Rollback_Matches_For_Goal@Scheduler@@IAEJABQAVGoal@@@Z 00419880 f   Scheduler.obj
 0001:000188e0       ?Form_Squad_From_Goal@Scheduler@@IAEPAVSquad@@ABQAVGoal@@@Z 004198e0 f   Scheduler.obj
 0001:000189d0       ??_GScheduler@@UAEPAXI@Z   004199d0 f i Scheduler.obj
 0001:000189d0       ??_EScheduler@@UAEPAXI@Z   004199d0 f i Scheduler.obj
 0001:00018a00       ??1?$list@VPlan@@V?$allocator@VPlan@@@std@@@std@@QAE@XZ 00419a00 f i Scheduler.obj
 0001:00018a70       ?sort@?$list@VPlan@@V?$allocator@VPlan@@@std@@@std@@QAEXU?$greater@VPlan@@@2@@Z 00419a70 f i Scheduler.obj
 0001:00018d20       ?begin@?$list@VPlan@@V?$allocator@VPlan@@@std@@@std@@QAE?AViterator@12@XZ 00419d20 f i Scheduler.obj
 0001:00018d40       ?begin@?$list@Viterator@?$list@VPlan@@V?$allocator@VPlan@@@std@@@std@@V?$allocator@Viterator@?$list@VPlan@@V?$allocator@VPlan@@@std@@@std@@@3@@std@@QAE?AViterator@12@XZ 00419d40 f i Scheduler.obj
 0001:00018d60       ?clear@?$list@Viterator@?$list@VPlan@@V?$allocator@VPlan@@@std@@@std@@V?$allocator@Viterator@?$list@VPlan@@V?$allocator@VPlan@@@std@@@std@@@3@@std@@QAEXXZ 00419d60 f i Scheduler.obj
 0001:00018da0       ??Eiterator@?$list@Viterator@?$list@VPlan@@V?$allocator@VPlan@@@std@@@std@@V?$allocator@Viterator@?$list@VPlan@@V?$allocator@VPlan@@@std@@@std@@@3@@std@@QAE?AV012@H@Z 00419da0 f i Scheduler.obj
 0001:00018dc0       ??1?$list@VSorted_Goal_ptr@Scheduler@@V?$allocator@VSorted_Goal_ptr@Scheduler@@@std@@@std@@QAE@XZ 00419dc0 f i Scheduler.obj
 0001:00018e10       ?begin@?$list@VSorted_Goal_ptr@Scheduler@@V?$allocator@VSorted_Goal_ptr@Scheduler@@@std@@@std@@QAE?AViterator@12@XZ 00419e10 f i Scheduler.obj
 0001:00018e30       ?erase@?$list@VSorted_Goal_ptr@Scheduler@@V?$allocator@VSorted_Goal_ptr@Scheduler@@@std@@@std@@QAE?AViterator@12@V312@@Z 00419e30 f i Scheduler.obj
 0001:00018e70       ?erase@?$list@VSorted_Goal_ptr@Scheduler@@V?$allocator@VSorted_Goal_ptr@Scheduler@@@std@@@std@@QAE?AViterator@12@V312@0@Z 00419e70 f i Scheduler.obj
 0001:00018ec0       ?sort@?$list@VSorted_Goal_ptr@Scheduler@@V?$allocator@VSorted_Goal_ptr@Scheduler@@@std@@@std@@QAEXXZ 00419ec0 f i Scheduler.obj
 0001:00019140       ?merge@?$list@VSorted_Goal_ptr@Scheduler@@V?$allocator@VSorted_Goal_ptr@Scheduler@@@std@@@std@@QAEXAAV12@@Z 0041a140 f i Scheduler.obj
 0001:00019200       ??0?$list@PAVSquad@@V?$allocator@PAVSquad@@@std@@@std@@QAE@ABV?$allocator@PAVSquad@@@1@@Z 0041a200 f i Scheduler.obj
 0001:00019230       ??1?$list@PAVSquad@@V?$allocator@PAVSquad@@@std@@@std@@QAE@XZ 0041a230 f i Scheduler.obj
 0001:00019280       ??4?$list@PAVSquad@@V?$allocator@PAVSquad@@@std@@@std@@QAEAAV01@ABV01@@Z 0041a280 f i Scheduler.obj
 0001:00019350       ?push_back@?$list@PAVSquad@@V?$allocator@PAVSquad@@@std@@@std@@QAEXABQAVSquad@@@Z 0041a350 f i Scheduler.obj
 0001:000193b0       ?insert@?$list@PAVSquad@@V?$allocator@PAVSquad@@@std@@@std@@QAE?AViterator@12@V312@ABQAVSquad@@@Z 0041a3b0 f i Scheduler.obj
 0001:00019410       ?remove@?$list@PAVSquad@@V?$allocator@PAVSquad@@@std@@@std@@QAEXABQAVSquad@@@Z 0041a410 f i Scheduler.obj
 0001:00019460       ??Eiterator@?$list@PAVSquad@@V?$allocator@PAVSquad@@@std@@@std@@QAE?AV012@H@Z 0041a460 f i Scheduler.obj
 0001:00019480       ??1?$vector@FV?$allocator@F@std@@@std@@QAE@XZ 0041a480 f i Scheduler.obj
 0001:000194b0       ??4?$vector@FV?$allocator@F@std@@@std@@QAEAAV01@ABV01@@Z 0041a4b0 f i Scheduler.obj
 0001:00019640       ?assign@?$vector@FV?$allocator@F@std@@@std@@QAEXIABF@Z 0041a640 f i Scheduler.obj
 0001:00019840       ??1?$vector@V?$list@VSorted_Goal_ptr@Scheduler@@V?$allocator@VSorted_Goal_ptr@Scheduler@@@std@@@std@@V?$allocator@V?$list@VSorted_Goal_ptr@Scheduler@@V?$allocator@VSorted_Goal_ptr@Scheduler@@@std@@@std@@@2@@std@@QAE@XZ 0041a840 f i Scheduler.obj
 0001:000198d0       ??1?$vector@Viterator@?$list@VSorted_Goal_ptr@Scheduler@@V?$allocator@VSorted_Goal_ptr@Scheduler@@@std@@@std@@V?$allocator@Viterator@?$list@VSorted_Goal_ptr@Scheduler@@V?$allocator@VSorted_Goal_ptr@Scheduler@@@std@@@std@@@3@@std@@QAE@XZ 0041a8d0 f i Scheduler.obj
 0001:00019900       ?resize@?$vector@Viterator@?$list@VSorted_Goal_ptr@Scheduler@@V?$allocator@VSorted_Goal_ptr@Scheduler@@@std@@@std@@V?$allocator@Viterator@?$list@VSorted_Goal_ptr@Scheduler@@V?$allocator@VSorted_Goal_ptr@Scheduler@@@std@@@std@@@3@@std@@QAEXIABViterator@?$list@VSorted_Goal_ptr@Scheduler@@V?$allocator@VSorted_Goal_ptr@Scheduler@@@std@@@2@@Z 0041a900 f i Scheduler.obj
 0001:00019b00       ??1?$vector@V?$list@PAVSquad@@V?$allocator@PAVSquad@@@std@@@std@@V?$allocator@V?$list@PAVSquad@@V?$allocator@PAVSquad@@@std@@@std@@@2@@std@@QAE@XZ 0041ab00 f i Scheduler.obj
 0001:00019b90       ?erase@?$list@PAVSquad@@V?$allocator@PAVSquad@@@std@@@std@@QAE?AViterator@12@V312@@Z 0041ab90 f i Scheduler.obj
 0001:00019bd0       ??4?$vector@V?$list@PAVSquad@@V?$allocator@PAVSquad@@@std@@@std@@V?$allocator@V?$list@PAVSquad@@V?$allocator@PAVSquad@@@std@@@std@@@2@@std@@QAEAAV01@ABV01@@Z 0041abd0 f i Scheduler.obj
 0001:00019e70       ?resize@?$vector@V?$list@PAVSquad@@V?$allocator@PAVSquad@@@std@@@std@@V?$allocator@V?$list@PAVSquad@@V?$allocator@PAVSquad@@@std@@@std@@@2@@std@@QAEXIABV?$list@PAVSquad@@V?$allocator@PAVSquad@@@std@@@2@@Z 0041ae70 f i Scheduler.obj
 0001:0001a130       ?begin@?$list@PAVSquad@@V?$allocator@PAVSquad@@@std@@@std@@QAE?AViterator@12@XZ 0041b130 f i Scheduler.obj
 0001:0001a150       ??1?$list@PAVGoal@@V?$allocator@PAVGoal@@@std@@@std@@QAE@XZ 0041b150 f i Scheduler.obj
 0001:0001a1a0       ?begin@?$list@PAVGoal@@V?$allocator@PAVGoal@@@std@@@std@@QAE?AViterator@12@XZ 0041b1a0 f i Scheduler.obj
 0001:0001a1c0       ??1?$vector@V?$list@W4GOAL_CLASS@@V?$allocator@W4GOAL_CLASS@@@std@@@std@@V?$allocator@V?$list@W4GOAL_CLASS@@V?$allocator@W4GOAL_CLASS@@@std@@@std@@@2@@std@@QAE@XZ 0041b1c0 f i Scheduler.obj
 0001:0001a250       ??1?$list@W4GOAL_CLASS@@V?$allocator@W4GOAL_CLASS@@@std@@@std@@QAE@XZ 0041b250 f i Scheduler.obj
 0001:0001a2a0       ?begin@?$list@W4GOAL_CLASS@@V?$allocator@W4GOAL_CLASS@@@std@@@std@@QAE?AViterator@12@XZ 0041b2a0 f i Scheduler.obj
 0001:0001a2c0       ??1?$list@W4SQUAD_CLASS@@V?$allocator@W4SQUAD_CLASS@@@std@@@std@@QAE@XZ 0041b2c0 f i Scheduler.obj
 0001:0001a310       ??_F?$list@VPlan@@V?$allocator@VPlan@@@std@@@std@@QAEXXZ 0041b310 f i Scheduler.obj
 0001:0001a340       ??_F?$list@VSorted_Goal_ptr@Scheduler@@V?$allocator@VSorted_Goal_ptr@Scheduler@@@std@@@std@@QAEXXZ 0041b340 f i Scheduler.obj
 0001:0001a370       ?erase@?$list@VPlan@@V?$allocator@VPlan@@@std@@@std@@QAE?AViterator@12@V312@0@Z 0041b370 f i Scheduler.obj
 0001:0001a3d0       ?swap@?$list@VPlan@@V?$allocator@VPlan@@@std@@@std@@QAEXAAV12@@Z 0041b3d0 f i Scheduler.obj
 0001:0001a400       ?merge@?$list@VPlan@@V?$allocator@VPlan@@@std@@@std@@QAEXAAV12@U?$greater@VPlan@@@2@@Z 0041b400 f i Scheduler.obj
 0001:0001a4d0       ?begin@?$list@VSorted_Goal_ptr@Scheduler@@V?$allocator@VSorted_Goal_ptr@Scheduler@@@std@@@std@@QBE?AVconst_iterator@12@XZ 0041b4d0 f i Scheduler.obj
 0001:0001a4f0       ?insert@?$list@VSorted_Goal_ptr@Scheduler@@V?$allocator@VSorted_Goal_ptr@Scheduler@@@std@@@std@@QAE?AViterator@12@V312@ABVSorted_Goal_ptr@Scheduler@@@Z 0041b4f0 f i Scheduler.obj
 0001:0001a550       ?insert@?$list@VSorted_Goal_ptr@Scheduler@@V?$allocator@VSorted_Goal_ptr@Scheduler@@@std@@@std@@QAEXViterator@12@Vconst_iterator@12@1@Z 0041b550 f i Scheduler.obj
 0001:0001a5c0       ?swap@?$list@VSorted_Goal_ptr@Scheduler@@V?$allocator@VSorted_Goal_ptr@Scheduler@@@std@@@std@@QAEXAAV12@@Z 0041b5c0 f i Scheduler.obj
 0001:0001a5f0       ?_Buynode@?$list@VSorted_Goal_ptr@Scheduler@@V?$allocator@VSorted_Goal_ptr@Scheduler@@@std@@@std@@IAEPAU_Node@12@PAU312@0@Z 0041b5f0 f i Scheduler.obj
 0001:0001a620       ?_Splice@?$list@VSorted_Goal_ptr@Scheduler@@V?$allocator@VSorted_Goal_ptr@Scheduler@@@std@@@std@@IAEXViterator@12@AAV12@00@Z 0041b620 f i Scheduler.obj
 0001:0001a660       ?_Next@_Acc@?$list@VSorted_Goal_ptr@Scheduler@@V?$allocator@VSorted_Goal_ptr@Scheduler@@@std@@@std@@SAAAPAU_Node@23@PAU423@@Z 0041b660 f i Scheduler.obj
 0001:0001a670       ?erase@?$list@PAVSquad@@V?$allocator@PAVSquad@@@std@@@std@@QAE?AViterator@12@V312@0@Z 0041b670 f i Scheduler.obj
 0001:0001a6c0       ?_Next@_Acc@?$list@PAVSquad@@V?$allocator@PAVSquad@@@std@@@std@@SAAAPAU_Node@23@PAU423@@Z 0041b6c0 f i Scheduler.obj
 0001:0001a6d0       ?capacity@?$vector@FV?$allocator@F@std@@@std@@QBEIXZ 0041b6d0 f i Scheduler.obj
 0001:0001a6f0       ?size@?$vector@FV?$allocator@F@std@@@std@@QBEIXZ 0041b6f0 f i Scheduler.obj
 0001:0001a710       ?insert@?$vector@FV?$allocator@F@std@@@std@@QAEXPAFIABF@Z 0041b710 f i Scheduler.obj
 0001:0001a920       ?erase@?$vector@FV?$allocator@F@std@@@std@@QAEPAFPAF0@Z 0041b920 f i Scheduler.obj
 0001:0001a960       ?_Destroy@?$vector@FV?$allocator@F@std@@@std@@IAEXPAF0@Z 0041b960 f i Scheduler.obj
 0001:0001a970       ?_Ucopy@?$vector@FV?$allocator@F@std@@@std@@IAEPAFPBF0PAF@Z 0041b970 f i Scheduler.obj
 0001:0001a9b0       ?capacity@?$vector@V?$list@VSorted_Goal_ptr@Scheduler@@V?$allocator@VSorted_Goal_ptr@Scheduler@@@std@@@std@@V?$allocator@V?$list@VSorted_Goal_ptr@Scheduler@@V?$allocator@VSorted_Goal_ptr@Scheduler@@@std@@@std@@@2@@std@@QBEIXZ 0041b9b0 f i Scheduler.obj
 0001:0001a9d0       ?size@?$vector@V?$list@VSorted_Goal_ptr@Scheduler@@V?$allocator@VSorted_Goal_ptr@Scheduler@@@std@@@std@@V?$allocator@V?$list@VSorted_Goal_ptr@Scheduler@@V?$allocator@VSorted_Goal_ptr@Scheduler@@@std@@@std@@@2@@std@@QBEIXZ 0041b9d0 f i Scheduler.obj
 0001:0001a9f0       ?insert@?$vector@V?$list@VSorted_Goal_ptr@Scheduler@@V?$allocator@VSorted_Goal_ptr@Scheduler@@@std@@@std@@V?$allocator@V?$list@VSorted_Goal_ptr@Scheduler@@V?$allocator@VSorted_Goal_ptr@Scheduler@@@std@@@std@@@2@@std@@QAEXPAV?$list@VSorted_Goal_ptr@Scheduler@@V?$allocator@VSorted_Goal_ptr@Scheduler@@@std@@@2@IABV32@@Z 0041b9f0 f i Scheduler.obj
 0001:0001ad40       ??4?$list@VSorted_Goal_ptr@Scheduler@@V?$allocator@VSorted_Goal_ptr@Scheduler@@@std@@@std@@QAEAAV01@ABV01@@Z 0041bd40 f i Scheduler.obj
 0001:0001ae20       ?erase@?$vector@V?$list@VSorted_Goal_ptr@Scheduler@@V?$allocator@VSorted_Goal_ptr@Scheduler@@@std@@@std@@V?$allocator@V?$list@VSorted_Goal_ptr@Scheduler@@V?$allocator@VSorted_Goal_ptr@Scheduler@@@std@@@std@@@2@@std@@QAEPAV?$list@VSorted_Goal_ptr@Scheduler@@V?$allocator@VSorted_Goal_ptr@Scheduler@@@std@@@2@PAV32@0@Z 0041be20 f i Scheduler.obj
 0001:0001af70       ??Eiterator@?$list@VSorted_Goal_ptr@Scheduler@@V?$allocator@VSorted_Goal_ptr@Scheduler@@@std@@@std@@QAE?AV012@H@Z 0041bf70 f i Scheduler.obj
 0001:0001af90       ?_Destroy@?$vector@V?$list@VSorted_Goal_ptr@Scheduler@@V?$allocator@VSorted_Goal_ptr@Scheduler@@@std@@@std@@V?$allocator@V?$list@VSorted_Goal_ptr@Scheduler@@V?$allocator@VSorted_Goal_ptr@Scheduler@@@std@@@std@@@2@@std@@IAEXPAV?$list@VSorted_Goal_ptr@Scheduler@@V?$allocator@VSorted_Goal_ptr@Scheduler@@@std@@@2@0@Z 0041bf90 f i Scheduler.obj
 0001:0001b010       ?_Ucopy@?$vector@V?$list@VSorted_Goal_ptr@Scheduler@@V?$allocator@VSorted_Goal_ptr@Scheduler@@@std@@@std@@V?$allocator@V?$list@VSorted_Goal_ptr@Scheduler@@V?$allocator@VSorted_Goal_ptr@Scheduler@@@std@@@std@@@2@@std@@IAEPAV?$list@VSorted_Goal_ptr@Scheduler@@V?$allocator@VSorted_Goal_ptr@Scheduler@@@std@@@2@PBV32@0PAV32@@Z 0041c010 f i Scheduler.obj
 0001:0001b050       ?size@?$vector@Viterator@?$list@VSorted_Goal_ptr@Scheduler@@V?$allocator@VSorted_Goal_ptr@Scheduler@@@std@@@std@@V?$allocator@Viterator@?$list@VSorted_Goal_ptr@Scheduler@@V?$allocator@VSorted_Goal_ptr@Scheduler@@@std@@@std@@@3@@std@@QBEIXZ 0041c050 f i Scheduler.obj
 0001:0001b070       ?_Destroy@?$vector@Viterator@?$list@VSorted_Goal_ptr@Scheduler@@V?$allocator@VSorted_Goal_ptr@Scheduler@@@std@@@std@@V?$allocator@Viterator@?$list@VSorted_Goal_ptr@Scheduler@@V?$allocator@VSorted_Goal_ptr@Scheduler@@@std@@@std@@@3@@std@@IAEXPAViterator@?$list@VSorted_Goal_ptr@Scheduler@@V?$allocator@VSorted_Goal_ptr@Scheduler@@@std@@@2@0@Z 0041c070 f i Scheduler.obj
 0001:0001b080       ?size@?$vector@V?$list@PAVSquad@@V?$allocator@PAVSquad@@@std@@@std@@V?$allocator@V?$list@PAVSquad@@V?$allocator@PAVSquad@@@std@@@std@@@2@@std@@QBEIXZ 0041c080 f i Scheduler.obj
 0001:0001b0a0       ?_Destroy@?$vector@V?$list@PAVSquad@@V?$allocator@PAVSquad@@@std@@@std@@V?$allocator@V?$list@PAVSquad@@V?$allocator@PAVSquad@@@std@@@std@@@2@@std@@IAEXPAV?$list@PAVSquad@@V?$allocator@PAVSquad@@@std@@@2@0@Z 0041c0a0 f i Scheduler.obj
 0001:0001b120       ?_Ucopy@?$vector@V?$list@PAVSquad@@V?$allocator@PAVSquad@@@std@@@std@@V?$allocator@V?$list@PAVSquad@@V?$allocator@PAVSquad@@@std@@@std@@@2@@std@@IAEPAV?$list@PAVSquad@@V?$allocator@PAVSquad@@@std@@@2@PBV32@0PAV32@@Z 0041c120 f i Scheduler.obj
 0001:0001b160       ?begin@?$list@PAVGoal@@V?$allocator@PAVGoal@@@std@@@std@@QBE?AVconst_iterator@12@XZ 0041c160 f i Scheduler.obj
 0001:0001b180       ?insert@?$list@PAVGoal@@V?$allocator@PAVGoal@@@std@@@std@@QAE?AViterator@12@V312@ABQAVGoal@@@Z 0041c180 f i Scheduler.obj
 0001:0001b1e0       ?insert@?$list@PAVGoal@@V?$allocator@PAVGoal@@@std@@@std@@QAEXViterator@12@Vconst_iterator@12@1@Z 0041c1e0 f i Scheduler.obj
 0001:0001b250       ?erase@?$list@PAVGoal@@V?$allocator@PAVGoal@@@std@@@std@@QAE?AViterator@12@V312@0@Z 0041c250 f i Scheduler.obj
 0001:0001b2a0       ?_Buynode@?$list@PAVGoal@@V?$allocator@PAVGoal@@@std@@@std@@IAEPAU_Node@12@PAU312@0@Z 0041c2a0 f i Scheduler.obj
 0001:0001b2d0       ?_Ufill@?$vector@V?$list@W4GOAL_CLASS@@V?$allocator@W4GOAL_CLASS@@@std@@@std@@V?$allocator@V?$list@W4GOAL_CLASS@@V?$allocator@W4GOAL_CLASS@@@std@@@std@@@2@@std@@IAEXPAV?$list@W4GOAL_CLASS@@V?$allocator@W4GOAL_CLASS@@@std@@@2@IABV32@@Z 0041c2d0 f i Scheduler.obj
 0001:0001b300       ?erase@?$list@W4GOAL_CLASS@@V?$allocator@W4GOAL_CLASS@@@std@@@std@@QAE?AViterator@12@V312@0@Z 0041c300 f i Scheduler.obj
 0001:0001b350       ?_Buynode@?$list@W4GOAL_CLASS@@V?$allocator@W4GOAL_CLASS@@@std@@@std@@IAEPAU_Node@12@PAU312@0@Z 0041c350 f i Scheduler.obj
 0001:0001b380       ?_Next@_Acc@?$list@W4GOAL_CLASS@@V?$allocator@W4GOAL_CLASS@@@std@@@std@@SAAAPAU_Node@23@PAU423@@Z 0041c380 f i Scheduler.obj
 0001:0001b390       ?_Destroy@?$vector@V?$list@W4SQUAD_CLASS@@V?$allocator@W4SQUAD_CLASS@@@std@@@std@@V?$allocator@V?$list@W4SQUAD_CLASS@@V?$allocator@W4SQUAD_CLASS@@@std@@@std@@@2@@std@@IAEXPAV?$list@W4SQUAD_CLASS@@V?$allocator@W4SQUAD_CLASS@@@std@@@2@0@Z 0041c390 f i Scheduler.obj
 0001:0001b410       ?_Ufill@?$vector@V?$list@W4SQUAD_CLASS@@V?$allocator@W4SQUAD_CLASS@@@std@@@std@@V?$allocator@V?$list@W4SQUAD_CLASS@@V?$allocator@W4SQUAD_CLASS@@@std@@@std@@@2@@std@@IAEXPAV?$list@W4SQUAD_CLASS@@V?$allocator@W4SQUAD_CLASS@@@std@@@2@IABV32@@Z 0041c410 f i Scheduler.obj
 0001:0001b440       ?erase@?$list@W4SQUAD_CLASS@@V?$allocator@W4SQUAD_CLASS@@@std@@@std@@QAE?AViterator@12@V312@0@Z 0041c440 f i Scheduler.obj
 0001:0001b490       ?_Buynode@?$list@W4SQUAD_CLASS@@V?$allocator@W4SQUAD_CLASS@@@std@@@std@@IAEPAU_Node@12@PAU312@0@Z 0041c490 f i Scheduler.obj
 0001:0001b4c0       ?_Next@_Acc@?$list@W4SQUAD_CLASS@@V?$allocator@W4SQUAD_CLASS@@@std@@@std@@SAAAPAU_Node@23@PAU423@@Z 0041c4c0 f i Scheduler.obj
 0001:0001b4d0       ?_Splice@?$list@VPlan@@V?$allocator@VPlan@@@std@@@std@@IAEXViterator@12@AAV12@00@Z 0041c4d0 f i Scheduler.obj
 0001:0001b510       ?deallocate@?$allocator@VSorted_Goal_ptr@Scheduler@@@std@@QAEXPAXI@Z 0041c510 f i Scheduler.obj
 0001:0001b530       ??0const_iterator@?$list@PAVSquad@@V?$allocator@PAVSquad@@@std@@@std@@QAE@PAU_Node@12@@Z 0041c530 f i Scheduler.obj
 0001:0001b540       ?_Ufill@?$vector@FV?$allocator@F@std@@@std@@IAEXPAFIABF@Z 0041c540 f i Scheduler.obj
 0001:0001b570       ?_Ucopy@?$vector@Viterator@?$list@VSorted_Goal_ptr@Scheduler@@V?$allocator@VSorted_Goal_ptr@Scheduler@@@std@@@std@@V?$allocator@Viterator@?$list@VSorted_Goal_ptr@Scheduler@@V?$allocator@VSorted_Goal_ptr@Scheduler@@@std@@@std@@@3@@std@@IAEPAViterator@?$list@VSorted_Goal_ptr@Scheduler@@V?$allocator@VSorted_Goal_ptr@Scheduler@@@std@@@2@PBV342@0PAV342@@Z 0041c570 f i Scheduler.obj
 0001:0001b5a0       ?_Ufill@?$vector@Viterator@?$list@VSorted_Goal_ptr@Scheduler@@V?$allocator@VSorted_Goal_ptr@Scheduler@@@std@@@std@@V?$allocator@Viterator@?$list@VSorted_Goal_ptr@Scheduler@@V?$allocator@VSorted_Goal_ptr@Scheduler@@@std@@@std@@@3@@std@@IAEXPAViterator@?$list@VSorted_Goal_ptr@Scheduler@@V?$allocator@VSorted_Goal_ptr@Scheduler@@@std@@@2@IABV342@@Z 0041c5a0 f i Scheduler.obj
 0001:0001b5d0       ?_Ufill@?$vector@V?$list@PAVSquad@@V?$allocator@PAVSquad@@@std@@@std@@V?$allocator@V?$list@PAVSquad@@V?$allocator@PAVSquad@@@std@@@std@@@2@@std@@IAEXPAV?$list@PAVSquad@@V?$allocator@PAVSquad@@@std@@@2@IABV32@@Z 0041c5d0 f i Scheduler.obj
 0001:0001b600       ?erase@?$list@W4GOAL_CLASS@@V?$allocator@W4GOAL_CLASS@@@std@@@std@@QAE?AViterator@12@V312@@Z 0041c600 f i Scheduler.obj
 0001:0001b640       ?copy@std@@YAPAFPBF0PAF@Z  0041c640 f i Scheduler.obj
 0001:0001b670       ?copy@std@@YAPAV?$list@VSorted_Goal_ptr@Scheduler@@V?$allocator@VSorted_Goal_ptr@Scheduler@@@std@@@1@PBV21@0PAV21@@Z 0041c670 f i Scheduler.obj
 0001:0001b780       ?_Construct@std@@YAXPAVPlan@@ABV2@@Z 0041c780 f i Scheduler.obj
 0001:0001b7d0       ??3@YAXPAX0@Z              0041c7d0 f i Scheduler.obj
 0001:0001b7e0       ?_Destroy@std@@YAXPAVSorted_Goal_ptr@Scheduler@@@Z 0041c7e0 f i Scheduler.obj
 0001:0001b7f0       ?_Construct@std@@YAXPAPAVSquad@@ABQAV2@@Z 0041c7f0 f i Scheduler.obj
 0001:0001b810       ?fill@std@@YAXPAV?$list@PAVSquad@@V?$allocator@PAVSquad@@@std@@@1@0ABV21@@Z 0041c810 f i Scheduler.obj
 0001:0001b900       ?copy_backward@std@@YAPAV?$list@PAVSquad@@V?$allocator@PAVSquad@@@std@@@1@PAV21@00@Z 0041c900 f i Scheduler.obj
 0001:0001ba00       ?_Construct@std@@YAXPAFABF@Z 0041ca00 f i Scheduler.obj
 0001:0001ba20       ?_Construct@std@@YAXPAV?$list@VSorted_Goal_ptr@Scheduler@@V?$allocator@VSorted_Goal_ptr@Scheduler@@@std@@@1@ABV21@@Z 0041ca20 f i Scheduler.obj
 0001:0001bae0       ?_Construct@std@@YAXPAV?$list@PAVSquad@@V?$allocator@PAVSquad@@@std@@@1@ABV21@@Z 0041cae0 f i Scheduler.obj
 0001:0001bb90       ?_Construct@std@@YAXPAV?$list@W4GOAL_CLASS@@V?$allocator@W4GOAL_CLASS@@@std@@@1@ABV21@@Z 0041cb90 f i Scheduler.obj
 0001:0001bc40       ?_Construct@std@@YAXPAV?$list@W4SQUAD_CLASS@@V?$allocator@W4SQUAD_CLASS@@@std@@@1@ABV21@@Z 0041cc40 f i Scheduler.obj
 0001:0001bcf0       ??_G?$list@PAVSquad@@V?$allocator@PAVSquad@@@std@@@std@@QAEPAXI@Z 0041ccf0 f i Scheduler.obj
 0001:0001bd60       ?Compute_Resource_Priority@AI_Base_Building@@IAEMPAVCraftClass@@PAVGameObject@@PBVVector3@@H@Z 0041cd60 f   AI_Base_Building.obj
 0001:0001bf40       ?Compute_Resource_Threat@AI_Base_Building@@IAEMABVVector3@@H@Z 0041cf40 f   AI_Base_Building.obj
 0001:0001c000       ?GetLowestResourceThreat@AI_Base_Building@@IAEMH@Z 0041d000 f   AI_Base_Building.obj
 0001:0001c130       ??0AI_Base_Building@@QAE@H@Z 0041d130 f   AI_Base_Building.obj
 0001:0001c1d0       ??1AI_Base_Building@@QAE@XZ 0041d1d0 f   AI_Base_Building.obj
 0001:0001c1e0       ?Build_A_Space_Station@AI_Base_Building@@QAEXPAVProducer@@PAVCraftClass@@HPBVAIP@@@Z 0041d1e0 f   AI_Base_Building.obj
 0001:0001c230       ?Save@AI_Base_Building@@UAE_NAAVFileWriter@@@Z 0041d230 f   AI_Base_Building.obj
 0001:0001c320       ?Load@AI_Base_Building@@UAE_NAAVFileReader@@@Z 0041d320 f   AI_Base_Building.obj
 0001:0001c4f0       ?Start_A_New_Base_If_Necessary@AI_Base_Building@@IAEXPAVProducer@@PAVCraftClass@@H@Z 0041d4f0 f   AI_Base_Building.obj
 0001:0001c5f0       ?Build_Generic_Station@AI_Base_Building@@IAEXPAVProducer@@PAVCraftClass@@H@Z 0041d5f0 f   AI_Base_Building.obj
 0001:0001cd30       ?Try_To_Start_New_Resource_Base@AI_Base_Building@@IAE_NPAVAI_Team@@HPAVCraftClass@@H@Z 0041dd30 f   AI_Base_Building.obj
 0001:0001cfb0       ?Try_To_Start_New_Planet_Base@AI_Base_Building@@IAE_NHH@Z 0041dfb0 f   AI_Base_Building.obj
 0001:0001d0e0       ?Get_Best_Planet@AI_Base_Building@@IAEPAVPlanet@@PAVCraftClass@@HH@Z 0041e0e0 f   AI_Base_Building.obj
 0001:0001d1e0       ?Found_Base@AI_Base_Building@@IAEXPAVGameObject@@H@Z 0041e1e0 f   AI_Base_Building.obj
 0001:0001d2d0       ?IsLocationSafe@AI_Base_Building@@IAE_NHH@Z 0041e2d0 f   AI_Base_Building.obj
 0001:0001d490       ?UpdateBaseThreatValues@AI_Base_Building@@IAEXH@Z 0041e490 f   AI_Base_Building.obj
 0001:0001d5e0       ?HasMiningStation@AI_Base_Building@@IAE_NHH@Z 0041e5e0 f   AI_Base_Building.obj
 0001:0001d790       ?FindFirstInvalidBase@AI_Base_Building@@IAEHH@Z 0041e790 f   AI_Base_Building.obj
 0001:0001d7c0       ?Load@BaseInformation@AI_Base_Building@@QAE_NAAVFileReader@@@Z 0041e7c0 f   AI_Base_Building.obj
 0001:0001d850       ?Save@BaseInformation@AI_Base_Building@@QAE_NAAVFileWriter@@@Z 0041e850 f   AI_Base_Building.obj
 0001:0001d900       ??_H@YGXPAXIHP6EX0@Z@Z     0041e900 f i AI_Base_Building.obj
 0001:0001d930       ?updateLockStatus@SpecialWeaponUtility@@QAEXXZ 0041e930 f   ai_team.obj
 0001:0001d9a0       ??0AI_Team@@QAE@XZ         0041e9a0 f   ai_team.obj
 0001:0001da20       ??1AI_Team@@QAE@XZ         0041ea20 f   ai_team.obj
 0001:0001dac0       ?updateWeaponTimeModifier@AI_Team@@QAEXXZ 0041eac0 f   ai_team.obj
 0001:0001dba0       ?Init@AI_Team@@QAEXH_N@Z   0041eba0 f   ai_team.obj
 0001:0001dcf0       ?Load_AIP@AI_Team@@QAEXPAD@Z 0041ecf0 f   ai_team.obj
 0001:0001dd20       ?Clean_Up@AI_Team@@QAEXXZ  0041ed20 f   ai_team.obj
 0001:0001dd80       ?Check_For_Betrayal@AI_Team@@QAEXXZ 0041ed80 f   ai_team.obj
 0001:0001dde0       ?ForceStrategyRecomputation@AI_Team@@QAEXXZ 0041ede0 f   ai_team.obj
 0001:0001ddf0       ?Process_Team_AI@AI_Team@@QAEXXZ 0041edf0 f   ai_team.obj
 0001:0001e550       ?ShowGoalMap@AI_Team@@QAEXXZ 0041f550 f   ai_team.obj
 0001:0001e7a0       ?ShowDebugMaps@AI_Team@@QAEXXZ 0041f7a0 f   ai_team.obj
 0001:0001e7b0       ?updateTimers@AI_Team@@QAEXM@Z 0041f7b0 f   ai_team.obj
 0001:0001e7c0       ?Save@AI_Team@@UAE_NAAVFileWriter@@@Z 0041f7c0 f   ai_team.obj
 0001:0001e970       ?Load@AI_Team@@UAE_NAAVFileReader@@@Z 0041f970 f   ai_team.obj
 0001:0001ebc0       ?Add_Agent@AI_Team@@QAEXABH@Z 0041fbc0 f   ai_team.obj
 0001:0001eda0       ?GetUnitCount@AI_Team@@QAEHH@Z 0041fda0 f   ai_team.obj
 0001:0001edc0       ?UpdateActualUnits@AI_Team@@QAEXXZ 0041fdc0 f   ai_team.obj
 0001:0001ef30       ?DebugRender@AI_Team@@QAEXXZ 0041ff30 f   ai_team.obj
 0001:0001f480       ?GetResourcePriority@AI_Team@@QAEKW4eResource@@@Z 00420480 f   ai_team.obj
 0001:0001f4a0       ?GetResourceBasesBuilt@AI_Team@@QAEHW4eResource@@@Z 004204a0 f   ai_team.obj
 0001:0001f4c0       ?SetResourceBasesBuilt@AI_Team@@QAEXW4eResource@@H@Z 004204c0 f   ai_team.obj
 0001:0001f4e0       ?UpdateResourcePriorities@AI_Team@@QAEXXZ 004204e0 f   ai_team.obj
 0001:0001f880       ?Insert_Mapgrid_Goals@AI_Team@@IAEXXZ 00420880 f   ai_team.obj
 0001:0001fc60       ??1?$vector@PAVProducer@@V?$allocator@PAVProducer@@@std@@@std@@QAE@XZ 00420c60 f i ai_team.obj
 0001:0001fc90       ?erase@?$list@PAVGoal@@V?$allocator@PAVGoal@@@std@@@std@@QAE?AViterator@12@V312@@Z 00420c90 f i ai_team.obj
 0001:0001fcd0       ??0AIP@@QAE@_N@Z           00420cd0 f   aip.obj
 0001:0001fd70       ??1AIP@@QAE@XZ             00420d70 f   aip.obj
 0001:0001fe30       ?Save@AIP@@QAE_NAAVFileWriter@@@Z 00420e30 f   aip.obj
 0001:0001fff0       ?SaveJustBuiltCounts@AIP@@QAE_NAAVFileWriter@@@Z 00420ff0 f   aip.obj
 0001:00020080       ?Load@AIP@@QAE_NAAVFileReader@@@Z 00421080 f   aip.obj
 0001:000204d0       ?LoadJustBuiltCounts@AIP@@QAE_NAAVFileReader@@@Z 004214d0 f   aip.obj
 0001:00020540       ?Load_AIP_File@AIP@@QAEPAV1@PAD_N@Z 00421540 f   aip.obj
 0001:000208c0       ?Switch_AIP@AIP@@QAEXPAV1@@Z 004218c0 f   aip.obj
 0001:000209c0       ?Update@AIP@@QAEXPAVAI_Team@@@Z 004219c0 f   aip.obj
 0001:00020ba0       ?Update_Actual_Units@AIP@@QAEXPAVAI_Team@@AAVlinked_list@@11AAV?$vector@PAVProducer@@V?$allocator@PAVProducer@@@std@@@std@@@Z 00421ba0 f   aip.obj
 0001:00020f90       ?GetUnitCount@AIP@@QAEHH@Z 00421f90 f   aip.obj
 0001:00020fb0       ?m_Init@AIP@@IAEXXZ        00421fb0 f   aip.obj
 0001:000211d0       ?m_Delete_Build_Lists@AIP@@IAEXXZ 004221d0 f   aip.obj
 0001:000212b0       ?m_Load_Build_List_Class@AIP@@IAEXPAViparser@@PADH@Z 004222b0 f   aip.obj
 0001:00021660       ?m_Load_Supplemental_Build_List_Classes@AIP@@IAEXPAViparser@@@Z 00422660 f   aip.obj
 0001:00021740       ?m_Load_Double_If_There@AIP@@IAE_NPAViparser@@PADAAN@Z 00422740 f   aip.obj
 0001:00021810       ?m_Load_Int_If_There@AIP@@IAE_NPAViparser@@PADAAH_N@Z 00422810 f   aip.obj
 0001:000218f0       ?m_Load_Simple_AIP_Priorities@AIP@@IAEXPAViparser@@@Z 004228f0 f   aip.obj
 0001:00022b20       ?m_Switch_Simple_AIP_Priorities@AIP@@IAEXPAV1@@Z 00423b20 f   aip.obj
 0001:00022fe0       ?m_Update_Max_Goals@AIP@@IAEXXZ 00423fe0 f   aip.obj
 0001:00022ff0       ?m_Find_All_Open_Shipyards@AIP@@IAEXPAVAI_Team@@AAVlinked_list@@@Z 00423ff0 f   aip.obj
 0001:00023050       ?m_Update_Unbuilt_Units@AIP@@IAEXPAVAI_Team@@@Z 00424050 f   aip.obj
 0001:00023100       ?m_Build_Desired_Unit@AIP@@IAEXPAVAI_Team@@PAVProducer@@PAVGameObjectClass@@H@Z 00424100 f   aip.obj
 0001:00023230       ?m_Ask_For_Some_Of_These_Units@AIP@@IAE_NPAVAI_Team@@PAVGameObjectClass@@PAV?$semi_dynamic_array@VBuild_List_Element@@@@HAAVlinked_list@@@Z 00424230 f   aip.obj
 0001:000236f0       ?m_TryToBuildUnits@AIP@@IAE_NPAVAI_Team@@PAVGameObjectClass@@PAV?$semi_dynamic_array@VBuild_List_Element@@@@HAAVlinked_list@@333@Z 004246f0 f   aip.obj
 0001:00023810       ?m_UpdateTechnologyLevel@AIP@@IAEXPAVAI_Team@@@Z 00424810 f   aip.obj
 0001:00023950       ?m_Update_Desired_Units@AIP@@IAEXPAVAI_Team@@AAV?$vector@PAVProducer@@V?$allocator@PAVProducer@@@std@@@std@@AAVlinked_list@@2222@Z 00424950 f   aip.obj
 0001:00023ac0       ?Get_Single_Element@AIP@@QAEPBVBuild_List_Element@@H@Z 00424ac0 f   aip.obj
 0001:00023af0       ?m_DisplayAIPParameters@AIP@@QAEXPAVAI_Team@@@Z 00424af0 f   aip.obj
 0001:00024190       ??Eiterator@?$list@PAVShipyard@@V?$allocator@PAVShipyard@@@std@@@std@@QAE?AV012@H@Z 00425190 f i aip.obj
 0001:000241b0       ?insert@?$vector@PAVProducer@@V?$allocator@PAVProducer@@@std@@@std@@QAEXPAPAVProducer@@IABQAV3@@Z 004251b0 f i aip.obj
 0001:000243c0       ?Allocate@?$semi_dynamic_array@H@@IAEXH@Z 004253c0 f i aip.obj
 0001:00024400       ?Allocate@?$semi_dynamic_array@VBuild_List_Class@@@@IAEXH@Z 00425400 f i aip.obj
 0001:00024440       ?Allocate@?$semi_dynamic_array@VBuild_List_Element@@@@IAEXH@Z 00425440 f i aip.obj
 0001:00024480       ??0AIP_Manager@@QAE@XZ     00425480 f   AIP_Manager.obj
 0001:00024490       ?Init@AIP_Manager@@QAEXXZ  00425490 f   AIP_Manager.obj
 0001:00024580       ??1AIP_Manager@@QAE@XZ     00425580 f   AIP_Manager.obj
 0001:000245e0       ?Update_AIP@AIP_Manager@@QAEXPAVAIP@@PAD@Z 004255e0 f   AIP_Manager.obj
 0001:000246f0       ?Load_All_AIPs_In_Directory@AIP_Manager@@QAEXPAD@Z 004256f0 f   AIP_Manager.obj
 0001:00024970       ?Save@AIP_Manager@@QAE_NAAVFileWriter@@@Z 00425970 f   AIP_Manager.obj
 0001:000249b0       ?Load@AIP_Manager@@QAE_NAAVFileReader@@@Z 004259b0 f   AIP_Manager.obj
 0001:000249f0       ?Clean_Up@AIP_Manager@@IAEXXZ 004259f0 f   AIP_Manager.obj
 0001:00024a50       ?Look_Up_New_AIP@AIP_Manager@@IAEPAVAIP@@PAD@Z 00425a50 f   AIP_Manager.obj
 0001:00024b20       ??1?$list_array@PAVAIP@@@@QAE@XZ 00425b20 f i AIP_Manager.obj
 0001:00024b40       ??0Build_List_Element@@QAE@XZ 00425b40 f   Build_List.obj
 0001:00024b70       ?BuiltMaxAlready@Build_List_Element@@QAE_NH@Z 00425b70 f   Build_List.obj
 0001:00024ba0       ??0Build_List_Class@@QAE@XZ 00425ba0 f   Build_List.obj
 0001:00024bb0       ?Save@Build_List_Class@@QAE_NAAVFileWriter@@@Z 00425bb0 f   Build_List.obj
 0001:00024d30       ?Load@Build_List_Class@@QAE_NAAVFileReader@@@Z 00425d30 f   Build_List.obj
 0001:00025000       ?SaveJustBuiltCounts@Build_List_Class@@QAE_NAAVFileWriter@@@Z 00426000 f   Build_List.obj
 0001:000250a0       ?LoadJustBuiltCounts@Build_List_Class@@QAE_NAAVFileReader@@@Z 004260a0 f   Build_List.obj
 0001:00025150       ??0Strategic_Map_Flat_Data@@QAE@XZ 00426150 f   strategic_map.obj
 0001:000251f0       ??0Strategic_Map@@QAE@PAVAI_Team@@PAD@Z 004261f0 f   strategic_map.obj
 0001:00025280       ??1Strategic_Map@@QAE@XZ   00426280 f   strategic_map.obj
 0001:00025290       ?Save@Strategic_Map@@QAE_NAAVFileWriter@@@Z 00426290 f   strategic_map.obj
 0001:000255d0       ?Load@Strategic_Map@@QAE_NAAVFileReader@@@Z 004265d0 f   strategic_map.obj
 0001:00025910       ?Update_Maps_From_Units@Strategic_Map@@QAEXXZ 00426910 f   strategic_map.obj
 0001:00025c40       ?Update_Death_Differential@Strategic_Map@@QAEXXZ 00426c40 f   strategic_map.obj
 0001:00025d90       ?Log_Death_Differential@Strategic_Map@@AAEXXZ 00426d90 f   strategic_map.obj
 0001:00025e80       ?Update_Threats@Strategic_Map@@QAEXXZ 00426e80 f   strategic_map.obj
 0001:00025f50       ?Update_Overall_Threat@Strategic_Map@@QAEXXZ 00426f50 f   strategic_map.obj
 0001:00026060       ?Update_Intrinsic_Value_Map@Strategic_Map@@QAEXXZ 00427060 f   strategic_map.obj
 0001:000260e0       ?Clear_Intrinsic_Value_Map@Strategic_Map@@QAEXXZ 004270e0 f   strategic_map.obj
 0001:00026130       ?Update_Enemy_Craft_Map@Strategic_Map@@QAEXXZ 00427130 f   strategic_map.obj
 0001:000261b0       ?Clear_Enemy_Craft_Map@Strategic_Map@@QAEXXZ 004271b0 f   strategic_map.obj
 0001:00026200       ?Update_Resources_Map@Strategic_Map@@QAEXXZ 00427200 f   strategic_map.obj
 0001:000263c0       ?Clear_Resources_Map@Strategic_Map@@QAEXXZ 004273c0 f   strategic_map.obj
 0001:00026400       ?Relax_Resources_Map@Strategic_Map@@QAEXXZ 00427400 f   strategic_map.obj
 0001:00026790       ?Update_Power_Ratio@Strategic_Map@@QAEXXZ 00427790 f   strategic_map.obj
 0001:000267c0       ?Update_Our_Empire@Strategic_Map@@QAEXXZ 004277c0 f   strategic_map.obj
 0001:000267f0       ?Update_Enemy_Empire@Strategic_Map@@QAEXXZ 004277f0 f   strategic_map.obj
 0001:00026820       ?Update_Explored_Territory@Strategic_Map@@QAEXXZ 00427820 f   strategic_map.obj
 0001:000268b0       ?Get_Last_Distress_Call@Strategic_Map@@QAEMABVVector3@@@Z 004278b0 f   strategic_map.obj
0001:00026970       ?Set_Distress_Call@Strategic_Map@@QAEXABVVector3@@M@Z 00427970 f   strategic_map.obj
 0001:00026a20       ?Adjust_Death_Differential@Strategic_Map@@QAEXNABVVector3@@@Z 00427a20 f   strategic_map.obj
 0001:00026ab0       ?LogDeadUnit@Strategic_Map@@SAXPAVCraft@@@Z 00427ab0 f   strategic_map.obj
 0001:00026d10       ?Get_Death_Differential@Strategic_Map@@QAENABVVector3@@@Z 00427d10 f   strategic_map.obj
 0001:00026d80       ?Get_Threat@Strategic_Map@@QAENAAVVector3@@@Z 00427d80 f   strategic_map.obj
 0001:00026df0       ?Get_Intrinsic_Value@Strategic_Map@@QAENAAVVector3@@@Z 00427df0 f   strategic_map.obj
 0001:00026e60       ?Get_Enemy_Craft@Strategic_Map@@QAENAAVVector3@@@Z 00427e60 f   strategic_map.obj
 0001:00026ed0       ?Get_Resources@Strategic_Map@@QAENAAVVector3@@@Z 00427ed0 f   strategic_map.obj
 0001:00026f40       ?Get_Min_Threat_Location@Strategic_Map@@QBE?AVVector3@@XZ 00427f40 f   strategic_map.obj
 0001:00026f80       ?Get_Main_Enemy_Base_Location@Strategic_Map@@QBE?AVVector3@@XZ 00427f80 f   strategic_map.obj
 0001:00026fe0       ?Get_Largest_Known_Enemy_Base_Location@Strategic_Map@@QBE?AVVector3@@XZ 00427fe0 f   strategic_map.obj
 0001:00027000       ?Get_Our_Stations@Strategic_Map@@QAEHAAVVector3@@@Z 00428000 f   strategic_map.obj
 0001:00027070       ?Get_Enemy_Stations@Strategic_Map@@QAEHAAVVector3@@@Z 00428070 f   strategic_map.obj
 0001:000270e0       ?Get_Distance_To_Our_Empire@Strategic_Map@@QAEHAAVVector3@@@Z 004280e0 f   strategic_map.obj
 0001:00027150       ?Get_Distance_To_Enemy_Empire@Strategic_Map@@QAEHAAVVector3@@@Z 00428150 f   strategic_map.obj
 0001:000271c0       ?Get_Distance_To_Enemy_Empire@Strategic_Map@@QAEHHH@Z 004281c0 f   strategic_map.obj
 0001:000271e0       ?Get_Empire_Map_Dimensions@Strategic_Map@@QAEXAAH0@Z 004281e0 f   strategic_map.obj
 0001:00027210       ?Get_Distance_To_Empire_Mapgrid_Value@Strategic_Map@@QAEHHH@Z 00428210 f   strategic_map.obj
 0001:00027230       ?Get_Empire_Mapgrid_Center_Tile@Strategic_Map@@QAEXHHAAVVector3@@@Z 00428230 f   strategic_map.obj
 0001:00027240       ?Get_Empire_Mapgrid_Random_Tile@Strategic_Map@@QAEXHHAAVVector3@@@Z 00428240 f   strategic_map.obj
 0001:00027270       ?Get_Explore_Map_Dimensions@Strategic_Map@@QAEXAAH0@Z 00428270 f   strategic_map.obj
 0001:000272a0       ?Must_We_Explore_Here@Strategic_Map@@QAE_NHH@Z 004282a0 f   strategic_map.obj
 0001:000272d0       ?IsExplored@Strategic_Map@@QAE_NAAVVector3@@@Z 004282d0 f   strategic_map.obj
 0001:00027350       ?GetExplorationFailureCount@Strategic_Map@@QAEHAAVVector3@@@Z 00428350 f   strategic_map.obj
 0001:000273c0       ?AddAnExplorationFailure@Strategic_Map@@QAEXAAVVector3@@@Z 004283c0 f   strategic_map.obj
 0001:00027450       ?Get_Explore_Mapgrid_Center_Tile@Strategic_Map@@QAEXHHAAVVector3@@@Z 00428450 f   strategic_map.obj
 0001:00027460       ?Find_Random_Nearby_Unexplored_Tile@Strategic_Map@@QAE_NABVVector3@@0AAV2@M_N@Z 00428460 f   strategic_map.obj
 0001:000276c0       ?Get_Unexplore_Mapgrid_Neighbor_Tile@Strategic_Map@@QAEHHHAAVVector3@@HHH@Z 004286c0 f   strategic_map.obj
 0001:000276f0       ?Load_Map_Config@Strategic_Map@@AAEXPAD@Z 004286f0 f   strategic_map.obj
	 0001:00027860       ?Init_Maps@Strategic_Map@@AAEXXZ 00428860 f   strategic_map.obj
	 0001:00028250       ?Clean_Up@Strategic_Map@@AAEXXZ 00429250 f   strategic_map.obj
 0001:000284d0       ?Clear_Death_Differential@Strategic_Map@@AAEXXZ 004294d0 f   strategic_map.obj
 0001:00028500       ?Clear_Distress_Calls@Strategic_Map@@AAEXXZ 00429500 f   strategic_map.obj
 0001:00028530       ?Clear_Threats@Strategic_Map@@AAEXXZ 00429530 f   strategic_map.obj
 0001:00028560       ?Relax_Threats@Strategic_Map@@AAEXXZ 00429560 f   strategic_map.obj
 0001:00028920       ?Log_Threats@Strategic_Map@@AAEXXZ 00429920 f   strategic_map.obj
 0001:00028a30       ?Clear_Our_Empire@Strategic_Map@@AAEXXZ 00429a30 f   strategic_map.obj
 0001:00028a60       ?Log_Our_Empire@Strategic_Map@@AAEXXZ 00429a60 f   strategic_map.obj
 0001:00028b50       ?DrawMapGrid@Strategic_Map@@QAEXABVVector3@@ABVST3D_Colour@@M@Z 00429b50 f   strategic_map.obj
 0001:00028dd0       ?DrawExplorationMap@Strategic_Map@@QAEXXZ 00429dd0 f   strategic_map.obj
 0001:00028f10       ?DrawThreatMap@Strategic_Map@@QAEXXZ 00429f10 f   strategic_map.obj
 0001:000290a0       ?DrawDeathMap@Strategic_Map@@QAEXXZ 0042a0a0 f   strategic_map.obj
 0001:00029270       ?Clear_Enemy_Empire@Strategic_Map@@AAEXXZ 0042a270 f   strategic_map.obj
 0001:000292a0       ?Log_Enemy_Empire@Strategic_Map@@AAEXXZ 0042a2a0 f   strategic_map.obj
 0001:000292b0       ?Clear_Exploration_Map@Strategic_Map@@QAEXXZ 0042a2b0 f   strategic_map.obj
 0001:00029310       ?Clear_Goal_Map@Strategic_Map@@AAEXXZ 0042a310 f   strategic_map.obj
 0001:00029320       ?Log_Exploration_Map@Strategic_Map@@AAEXXZ 0042a320 f   strategic_map.obj
 0001:00029450       ?Get_RC_Pos_From_GameObject@Strategic_Map@@AAEXPBVGameObject@@AAH1H@Z 0042a450 f   strategic_map.obj
 0001:000294c0       ?Update_Threat_Map_From_Unit@Strategic_Map@@AAEXPAVCraft@@@Z 0042a4c0 f   strategic_map.obj
 0001:00029660       ?Update_Intrinsic_Value_Map_From_Unit@Strategic_Map@@AAEXPAVCraft@@@Z 0042a660 f   strategic_map.obj
 0001:000297c0       ?Update_Empire_Map_From_Unit@Strategic_Map@@AAEXPAVCraft@@@Z 0042a7c0 f   strategic_map.obj
 0001:000298a0       ?Update_Enemy_Empire_Map_From_Unit@Strategic_Map@@AAEXPAVCraft@@@Z 0042a8a0 f   strategic_map.obj
 0001:000299d0       ?Update_Explored_Map_From_Unit@Strategic_Map@@QAEXPBVCraft@@@Z 0042a9d0 f   strategic_map.obj
 0001:00029a80       ?Update_Explored_Map_From_Position@Strategic_Map@@QAEXABVVector3@@@Z 0042aa80 f   strategic_map.obj
 0001:00029b00       ?Relax_Two_Cells@Strategic_Map@@AAEXHHHHNPAV?$matrix@M@@0MH@Z 0042ab00 f i strategic_map.obj
 0001:00029ba0       ?ClampToMap@?$matrix@H@@QAE_NAAH0@Z 0042aba0 f i strategic_map.obj
 0001:00029bf0       ??4?$matrix@M@@QAEAAV0@ABM@Z 0042abf0 f i strategic_map.obj
 0001:00029c20       ??4?$matrix@H@@QAEAAV0@ABH@Z 0042ac20 f i strategic_map.obj
 0001:00029c50       ??R?$matrix@M@@QAEAAMHH@Z  0042ac50 f i strategic_map.obj
 0001:00029c70       ??R?$matrix@N@@QAEAANHH@Z  0042ac70 f i strategic_map.obj
 0001:00029c90       ?Load@?$matrix@N@@QAE_NAAVFileReader@@@Z 0042ac90 f i strategic_map.obj
 0001:00029d30       ??R?$matrix@H@@QAEAAHHH@Z  0042ad30 f i strategic_map.obj
 0001:00029d50       ?Find_Map_Max_Explored_Location@Strategic_Map@@QBEHPAV?$matrix@H@@AAM1H@Z 0042ad50 f i strategic_map.obj
 0001:00029f80       ?Find_Map_Min_Explored_Location@Strategic_Map@@QBEMPAV?$matrix@M@@AAM1H@Z 0042af80 f i strategic_map.obj
 0001:0002a1a0       ?Find_Map_Max@Strategic_Map@@QBEMPAV?$matrix@M@@@Z 0042b1a0 f i strategic_map.obj
 0001:0002a200       ??1?$Grassfire@H@@QAE@XZ   0042b200 f i strategic_map.obj
 0001:0002a250       ?Xform@?$Grassfire@H@@QAEXPAV?$matrix@H@@0HHHHHH@Z 0042b250 f i strategic_map.obj
 0001:0002a7f0       ?Allocate@?$matrix@M@@AAEXHH@Z 0042b7f0 f i strategic_map.obj
 0001:0002a820       ?Clean_Up@?$matrix@M@@AAEXXZ 0042b820 f i strategic_map.obj
 0001:0002a850       ?Allocate@?$matrix@N@@AAEXHH@Z 0042b850 f i strategic_map.obj
 0001:0002a880       ?Clean_Up@?$matrix@N@@AAEXXZ 0042b880 f i strategic_map.obj
 0001:0002a8b0       ?Allocate@?$matrix@H@@AAEXHH@Z 0042b8b0 f i strategic_map.obj
 0001:0002a8e0       ?Clean_Up@?$matrix@H@@AAEXXZ 0042b8e0 f i strategic_map.obj
 0001:0002a910       ?Attach@AiProcess@@SAXPAVAiMission@@PAVGameObject@@@Z 0042b910 f   AiProcess.obj
 0001:0002a950       ??1AiProcess@@UAE@XZ       0042b950 f   AiProcess.obj
 0001:0002a9c0       ?Load@AiProcess@@UAE_NAAVFileReader@@@Z 0042b9c0 f   AiProcess.obj
 0001:0002aa40       ?Save@AiProcess@@UAE_NAAVFileWriter@@@Z 0042ba40 f   AiProcess.obj
 0001:0002aac0       ?Init@AiProcess@@UAEXPAVAiMission@@PAVGameObject@@@Z 0042bac0 f   AiProcess.obj
 0001:0002ab10       ?GetCurrentTargetPtr@AiProcess@@UBEPAVCraft@@XZ 0042bb10 f i AiProcess.obj
 0001:0002ab20       ?DebugDraw@AiProcess@@UAEXABUtagRECT@@H@Z 0042bb20 f i AiProcess.obj
 0001:0002ab30       ??_EAiProcess@@UAEPAXI@Z   0042bb30 f i AiProcess.obj
 0001:0002ab30       ??_GAiProcess@@UAEPAXI@Z   0042bb30 f i AiProcess.obj
 0001:0002ab60       ?AvoidStaticObstacles@CraftProcess@@IAE_N_NAAVVector3@@@Z 0042bb60 f   Avoidance.obj
 0001:0002af70       ?VelMag@Euler@@QBEMXZ      0042bf70 f i Avoidance.obj
 0001:0002afa0       ?GetObjEvenIfDestroyed@GameObject@@SAPAV1@H@Z 0042bfa0 f i Avoidance.obj
 0001:0002afc0       ??YVector3@@QAEABV0@ABV0@@Z 0042bfc0 f i Avoidance.obj
 0001:0002aff0       ??G@YA?AVVector3@@ABV0@0@Z 0042bff0 f i Avoidance.obj
 0001:0002b030       ??D@YA?AVVector3@@ABV0@M@Z 0042c030 f i Avoidance.obj
 0001:0002b070       ??K@YA?AVVector3@@ABV0@M@Z 0042c070 f i Avoidance.obj
 0001:0002b0b0       ?Normalize@@YA?AVVector3@@ABV1@@Z 0042c0b0 f i Avoidance.obj
 0001:0002b110       ?CreateObject@CargoShipProcess@@SAPAVSObject@@XZ 0042c110 f   CargoShipProcess.obj
 0001:0002b190       ?GetRtimeClass@CargoShipProcess@@UAEPAVRtimeClass@@XZ 0042c190 f   CargoShipProcess.obj
 0001:0002b1a0       ??0CargoShipProcess@@QAE@XZ 0042c1a0 f   CargoShipProcess.obj
 0001:0002b1c0       ?Handle_New_Command@CargoShipProcess@@MAEXABVAiCmdInfo@@@Z 0042c1c0 f   CargoShipProcess.obj
 0001:0002b590       ?CheckCanHandleNewCommand@CargoShipProcess@@UAE?AW4eCommandEnableStates@@W4AiCommand@@_N@Z 0042c590 f   CargoShipProcess.obj
 0001:0002b5d0       ?Do_Timestep@CargoShipProcess@@MAEXM@Z 0042c5d0 f   CargoShipProcess.obj
 0001:0002b610       ?Update_Cargo_Goal@CargoShipProcess@@QAEPAVTradingStation@@_N@Z 0042c610 f   CargoShipProcess.obj
 0001:0002b6d0       ?Trade@CargoShipProcess@@MAEXXZ 0042c6d0 f   CargoShipProcess.obj
 0001:0002b890       ?Give_Resource@CargoShipProcess@@MAEXXZ 0042c890 f   CargoShipProcess.obj
 0001:0002b970       ?GetCurrentTargetPtr@CraftProcess@@UBEPAVCraft@@XZ 0042c970 f i CargoShipProcess.obj
 0001:0002b9a0       ??_GCargoShipProcess@@UAEPAXI@Z 0042c9a0 f i CargoShipProcess.obj
 0001:0002b9a0       ??_ECargoShipProcess@@UAEPAXI@Z 0042c9a0 f i CargoShipProcess.obj
 0001:0002b9d0       ??1CargoShipProcess@@UAE@XZ 0042c9d0 f i CargoShipProcess.obj
 0001:0002b9e0       ?CreateObject@ColonyShipProcess@@SAPAVSObject@@XZ 0042c9e0 f   ColonyShipProcess.obj
 0001:0002ba90       ?GetRtimeClass@ColonyShipProcess@@UAEPAVRtimeClass@@XZ 0042ca90 f   ColonyShipProcess.obj
 0001:0002baa0       ??0ColonyShipProcess@@QAE@XZ 0042caa0 f   ColonyShipProcess.obj
 0001:0002bae0       ?Handle_New_Command@ColonyShipProcess@@MAEXABVAiCmdInfo@@@Z 0042cae0 f   ColonyShipProcess.obj
 0001:0002bc90       ?CheckCanHandleNewCommand@ColonyShipProcess@@UAE?AW4eCommandEnableStates@@W4AiCommand@@_N@Z 0042cc90 f   ColonyShipProcess.obj
 0001:0002bcf0       ?Do_Timestep@ColonyShipProcess@@MAEXM@Z 0042ccf0 f   ColonyShipProcess.obj
 0001:0002be50       ?mColonize@ColonyShipProcess@@IAEXM@Z 0042ce50 f   ColonyShipProcess.obj
 0001:0002c5b0       ?mStartLandingSequence@ColonyShipProcess@@IAEXPAVPlanet@@@Z 0042d5b0 f   ColonyShipProcess.obj
 0001:0002c650       ?IAmBusy@ColonyShipProcess@@MAE_NXZ 0042d650 f   ColonyShipProcess.obj
 0001:0002c660       ?mGetPlanetToColonize@ColonyShipProcess@@IAEPAVPlanet@@XZ 0042d660 f   ColonyShipProcess.obj
 0001:0002c840       ?Load@ColonyShipProcess@@UAE_NAAVFileReader@@@Z 0042d840 f   ColonyShipProcess.obj
 0001:0002c8d0       ?Save@ColonyShipProcess@@UAE_NAAVFileWriter@@@Z 0042d8d0 f   ColonyShipProcess.obj
 0001:0002c9a0       ??_EColonyShipProcess@@UAEPAXI@Z 0042d9a0 f i ColonyShipProcess.obj
 0001:0002c9a0       ??_GColonyShipProcess@@UAEPAXI@Z 0042d9a0 f i ColonyShipProcess.obj
 0001:0002c9d0       ??1ColonyShipProcess@@UAE@XZ 0042d9d0 f i ColonyShipProcess.obj
 0001:0002c9e0       ?GetDistanceSquared@@YAMABVVector3@@0@Z 0042d9e0 f i ColonyShipProcess.obj
 0001:0002ca10       ?SetCurrentTarget@PrivateCombatSituationData@@QAEXH@Z 0042da10 f   Combat.obj
 0001:0002cb00       ?SetTargetLocation@PrivateCombatSituationData@@QAEXVVector3@@@Z 0042db00 f   Combat.obj
 0001:0002cb90       ?SetWeaponRange@PrivateCombatSituationData@@QAEXM@Z 0042db90 f   Combat.obj
 0001:0002cba0       ?SetTargetRange@PrivateCombatSituationData@@QAEXM@Z 0042dba0 f   Combat.obj
 0001:0002cbb0       ?SetTargetRadius@PrivateCombatSituationData@@QAEXM@Z 0042dbb0 f   Combat.obj
 0001:0002cbc0       ?Assess@CombatSituation@@UAEXM@Z 0042dbc0 f   Combat.obj
 0001:0002d3c0       ?CheckEnemySystemAvailability@CombatSituation@@QBEMW4eSystem@CraftClass@@@Z 0042e3c0 f   Combat.obj
 0001:0002d490       ?SyncCombatUtility@CombatUtilityInfo@@QAEXXZ 0042e490 f   Combat.obj
	0001:0002d520       ?CreateObject@CraftProcess@@SAPAVSObject@@XZ 0042e520 f   CraftProcess.obj
 0001:0002d5a0       ?GetRtimeClass@CraftProcess@@UAEPAVRtimeClass@@XZ 0042e5a0 f   CraftProcess.obj
 0001:0002d5b0       ?SetDirectorsCut@CraftProcess@@SAX_N@Z 0042e5b0 f   CraftProcess.obj
 0001:0002d5c0       ??0CraftProcess@@QAE@XZ    0042e5c0 f   CraftProcess.obj
 0001:0002da40       ??1CraftProcess@@UAE@XZ    0042ea40 f   CraftProcess.obj
 0001:0002dab0       ?Execute@CraftProcess@@UAEXM@Z 0042eab0 f   CraftProcess.obj
 0001:0002db50       ?Load@CraftProcess@@UAE_NAAVFileReader@@@Z 0042eb50 f   CraftProcess.obj
 0001:0002e0c0       ?PostLoad@CraftProcess@@UAE_NXZ 0042f0c0 f   CraftProcess.obj
 0001:0002e0e0       ?SaveClassInfo@CraftProcess@@SA_NAAVFileWriter@@@Z 0042f0e0 f   CraftProcess.obj
 0001:0002e100       ?LoadClassInfo@CraftProcess@@SA_NAAVFileReader@@@Z 0042f100 f   CraftProcess.obj
 0001:0002e120       ?Save@CraftProcess@@UAE_NAAVFileWriter@@@Z 0042f120 f   CraftProcess.obj
 0001:0002e780       ?Init@CraftProcess@@UAEXPAVAiMission@@PAVGameObject@@@Z 0042f780 f   CraftProcess.obj
 0001:0002e950       ??0PartialCommandInfo@@QAE@XZ 0042f950 f   CraftProcess.obj
 0001:0002e990       ?SetCommand@PartialCommandInfo@@QBEXPAVGameObject@@@Z 0042f990 f   CraftProcess.obj
 0001:0002ea40       ?GeneratePostWormholeCommand@CraftProcess@@QAEXXZ 0042fa40 f   CraftProcess.obj
 0001:0002ea50       ?DebugDraw@CraftProcess@@UAEXABUtagRECT@@H@Z 0042fa50 f   CraftProcess.obj
 0001:0002ed30       ?ForgetOldPaths@CraftProcess@@QAEXXZ 0042fd30 f   CraftProcess.obj
 0001:0002ed90       ?GetQueueManager@CraftProcess@@QBEPAVQueueManager@@XZ 0042fd90 f   CraftProcess.obj
 0001:0002edc0       ?mCheckDequeue@CraftProcess@@IAE_N_N@Z 0042fdc0 f   CraftProcess.obj
 0001:0002ef20       ?ResetCommandStatus@CraftProcess@@MAEXABVAiCmdInfo@@@Z 0042ff20 f   CraftProcess.obj
 0001:0002efb0       ?CancelFusingIfNeeded@CraftProcess@@IAEXW4AiCommand@@PAVAIFleet@@@Z 0042ffb0 f   CraftProcess.obj
 0001:0002f000       ?Handle_New_Command@CraftProcess@@MAEXABVAiCmdInfo@@@Z 00430000 f   CraftProcess.obj
 0001:00030d40       ?CheckCanHandleNewCommand@CraftProcess@@UAE?AW4eCommandEnableStates@@W4AiCommand@@_N@Z 00431d40 f   CraftProcess.obj
 0001:00030fa0       ?MakeSureImNotTryingToEndUpInThisShip@CraftProcess@@QAEXPAVGameObject@@@Z 00431fa0 f   CraftProcess.obj
 0001:000311d0       ?Do_Timestep@CraftProcess@@MAEXM@Z 004321d0 f   CraftProcess.obj
 0001:00031400       ?Move@CraftProcess@@MAEXXZ 00432400 f   CraftProcess.obj
 0001:00031930       ?Copy_Offset_Path@CraftProcess@@IAEXPAVCraft@@ABVVector3@@@Z 00432930 f   CraftProcess.obj
 0001:00031b50       ?Guard@CraftProcess@@MAEXXZ 00432b50 f   CraftProcess.obj
 0001:00032140       ?Follow@CraftProcess@@MAEXXZ 00433140 f   CraftProcess.obj
 0001:00032390       ?MaintainOffsetFromTarget@CraftProcess@@IAE_NPAVCraft@@ABVVector3@@M@Z 00433390 f   CraftProcess.obj
 0001:00032a60       ?MaintainFormationLocation@CraftProcess@@IAE_N_N@Z 00433a60 f   CraftProcess.obj
 0001:00032b80       ?Path_To_Tactical_Range@CraftProcess@@MAE_NVVector3@@@Z 00433b80 f   CraftProcess.obj
 0001:00032ce0       ?PathToChaseOffset@CraftProcess@@MAE_NVVector3@@0@Z 00433ce0 f   CraftProcess.obj
 0001:00032fe0       ?AlliesEngagedInCombat@CraftProcess@@QBE_NAAH@Z 00433fe0 f   CraftProcess.obj
 0001:00033180       ?AssignScoutsToScouting@CraftProcess@@IAEXXZ 00434180 f   CraftProcess.obj
 0001:000331f0       ?Stop@CraftProcess@@MAEXXZ 004341f0 f   CraftProcess.obj
 0001:00033820       ?AlignWithFormation@CraftProcess@@MAEXXZ 00434820 f   CraftProcess.obj
 0001:00033890       ?StandDown@CraftProcess@@IAEXXZ 00434890 f   CraftProcess.obj
 0001:000338e0       ?WeaponQueue@CraftProcess@@MAEXXZ 004348e0 f   CraftProcess.obj
 0001:000339d0       ?Decommission@CraftProcess@@MAEXXZ 004349d0 f   CraftProcess.obj
 0001:00033bd0       ?GetFleeLocation@CraftProcess@@IBE?AVVector3@@XZ 00434bd0 f   CraftProcess.obj
 0001:00033e00       ?Repair@CraftProcess@@MAEXXZ 00434e00 f   CraftProcess.obj
 0001:00034510       ?Queue@CraftProcess@@MAEXXZ 00435510 f   CraftProcess.obj
 0001:000345d0       ?Build@CraftProcess@@MAEXXZ 004355d0 f   CraftProcess.obj
 0001:00034a10       ?CancelBuild@CraftProcess@@MAEXXZ 00435a10 f   CraftProcess.obj
 0001:00034a40       ?Mine@CraftProcess@@MAEXXZ 00435a40 f   CraftProcess.obj
 0001:00034b60       ?DoMining@CraftProcess@@MAE_NPAVResourceInterface@@@Z 00435b60 f   CraftProcess.obj
 0001:00035130       ?DropoffResources@CraftProcess@@MAEXPBVGameObject@@PAVCraft@@@Z 00436130 f   CraftProcess.obj
 0001:000352a0       ?Scout@CraftProcess@@MAEXXZ 004362a0 f   CraftProcess.obj
 0001:000355f0       ?Hunt@CraftProcess@@MAEXXZ 004365f0 f   CraftProcess.obj
 0001:00035850       ?ChooseRandomLocationOnMap@CraftProcess@@IAE_NXZ 00436850 f   CraftProcess.obj
 0001:00035980       ?UpdateResourceA@CraftProcess@@IAEPAVResourceInterface@@PAV2@@Z 00436980 f   CraftProcess.obj
 0001:000359f0       ?Update_Resource_Dropoff@CraftProcess@@IAEPBVGameObject@@XZ 004369f0 f   CraftProcess.obj
 0001:00035a60       ?Find_Open_Spot_Near_Rally_Point@CraftProcess@@IAE?AVVector3@@XZ 00436a60 f   CraftProcess.obj
 0001:00035ad0       ?Move_To_Formation@CraftProcess@@IAEXXZ 00436ad0 f   CraftProcess.obj
 0001:00036000       ?CalculateChasePoint@CraftProcess@@IAEXXZ 00437000 f   CraftProcess.obj
 0001:00036280       ?AICloak@CraftProcess@@IAEXXZ 00437280 f   CraftProcess.obj
 0001:00036330       ?Wait_For_Asteroids_To_Pass@CraftProcess@@IAE_NXZ 00437330 f   CraftProcess.obj
 0001:00036360       ?Move_To_Formation@CraftProcess@@IAEXABVVector3@@00_N1@Z 00437360 f   CraftProcess.obj
 0001:00036550       ?Compute_Desired_Velocity_For_Goto@CraftProcess@@IAE?AVVector3@@ABV2@0@Z 00437550 f   CraftProcess.obj
 0001:00036690       ?Stay_Within_Combat_Height_Bounds@CraftProcess@@IAEXAAVVector3@@@Z 00437690 f   CraftProcess.obj
 0001:00036700       ?SetGotoObject@CraftProcess@@IAEXPBVGameObject@@@Z 00437700 f   CraftProcess.obj
 0001:00036740       ?How_Long_Since_We_Actually_Moved@CraftProcess@@IAEMM@Z 00437740 f   CraftProcess.obj
 0001:000367e0       ?IAmBusy@CraftProcess@@MAE_NXZ 004377e0 f   CraftProcess.obj
 0001:00036830       ?SetPsiDisruption@CraftProcess@@QAEX_N@Z 00437830 f   CraftProcess.obj
 0001:00036840       ?SetFormation@CraftProcess@@MAEXH@Z 00437840 f   CraftProcess.obj
 0001:00036850       ?SetFormationSlot@CraftProcess@@QAEXHM@Z 00437850 f   CraftProcess.obj
 0001:00036870       ?SetFormationLeader@CraftProcess@@QAEXH@Z 00437870 f   CraftProcess.obj
 0001:000368b0       ?SetRemoveFromFleet@CraftProcess@@QAEX_N@Z 004378b0 f   CraftProcess.obj
 0001:000368c0       ?UpdateFormationOrientation@CraftProcess@@QAEXXZ 004378c0 f   CraftProcess.obj
 0001:00036920       ?ComputeOffsetToLeader@CraftProcess@@QAE_NXZ 00437920 f   CraftProcess.obj
 0001:00036a30       ?SetSpecialWeaponAutonomy@CraftProcess@@QAEXW4eSpecialWeaponAutonomy@@@Z 00437a30 f   CraftProcess.obj
 0001:00036a60       ?GetPathLookAheadDistance@CraftProcess@@IAEMXZ 00437a60 f   CraftProcess.obj
 0001:00036aa0       ??_ECraftProcess@@UAEPAXI@Z 00437aa0 f i CraftProcess.obj
 0001:00036aa0       ??_GCraftProcess@@UAEPAXI@Z 00437aa0 f i CraftProcess.obj
 0001:00036ad0       ?GetHandle@GameObject@@QBEHXZ 00437ad0 f i CraftProcess.obj
 0001:00036ae0       ??D@YAMABVVector3@@0@Z     00437ae0 f i CraftProcess.obj
 0001:00036b00       ?GetObjUnlessDestroyed@GameObject@@SAPAV1@H@Z 00437b00 f i CraftProcess.obj
 0001:00036b30       ?size@?$vector@PAVWeapon@@V?$allocator@PAVWeapon@@@std@@@std@@QBEIXZ 00437b30 f i CraftProcess.obj
 0001:00036b50       ?Attack@CraftProcess@@MAEXXZ 00437b50 f   CraftProcess_Attack.obj
 0001:00036e50       ?TransportAttack@CraftProcess@@IAE_NXZ 00437e50 f   CraftProcess_Attack.obj
 0001:00036f80       ?AssessCombatSituation@CraftProcess@@IAEXXZ 00437f80 f   CraftProcess_Attack.obj
 0001:00036fe0       ?AIPossibleRetreat@CraftProcess@@QAE_NXZ 00437fe0 f   CraftProcess_Attack.obj
 0001:00037010       ?AIPossibleIdleRepair@CraftProcess@@QAE_NXZ 00438010 f   CraftProcess_Attack.obj
 0001:00037060       ?mAIShouldRepair@CraftProcess@@IAE_NMM_N@Z 00438060 f   CraftProcess_Attack.obj
 0001:000371b0       ?CheckSpecialWeaponUsage@CraftProcess@@IBE_NPAVAI_Team@@@Z 004381b0 f   CraftProcess_Attack.obj
 0001:00037260       ?AITransporter@CraftProcess@@IAEXXZ 00438260 f   CraftProcess_Attack.obj
 0001:00037410       ?AIFireSpecialWeapons@CraftProcess@@IAEXXZ 00438410 f   CraftProcess_Attack.obj
 0001:00037a80       ?ShouldWeMoveCloserToTarget@CraftProcess@@IAE_NPA_N@Z 00438a80 f   CraftProcess_Attack.obj
 0001:00037c30       ?AreWeAnchored@CraftProcess@@IAE_NXZ 00438c30 f   CraftProcess_Attack.obj
 0001:00037c60       ?IsFleetAction@CraftProcess@@IAE_NXZ 00438c60 f   CraftProcess_Attack.obj
 0001:00037d20       ?AreWeAllowedToMoveCloser@CraftProcess@@IAE_NXZ 00438d20 f   CraftProcess_Attack.obj
 0001:00037db0       ?MoveToTarget@CraftProcess@@IAEXXZ 00438db0 f   CraftProcess_Attack.obj
 0001:00037e40       ?GetWeaponRange@CraftProcess@@IAEMXZ 00438e40 f   CraftProcess_Attack.obj
 0001:00037ef0       ?PerformManeuvers@CraftProcess@@IAEXXZ 00438ef0 f   CraftProcess_Attack.obj
 0001:00038130       ?MaintainFormationPositionManeuver@CraftProcess@@IAEXXZ 00439130 f   CraftProcess_Attack.obj
 0001:00038190       ?FireCommandedSpecialWeapon@CraftProcess@@IAEXXZ 00439190 f   CraftProcess_Attack.obj
 0001:000383b0       ?UseSpecialWeaponsIfAppropriate@CraftProcess@@IAEXM@Z 004393b0 f   CraftProcess_Attack.obj
 0001:00038420       ?Dogfight@CraftProcess@@IAEXPBVCraft@@@Z 00439420 f   CraftProcess_Attack.obj
 0001:000386c0       ?CircleStaticDogfight@CraftProcess@@IAEXPBVCraft@@@Z 004396c0 f   CraftProcess_Attack.obj
 0001:000387a0       ?CloverleafDogfight@CraftProcess@@IAEXPBVCraft@@@Z 004397a0 f   CraftProcess_Attack.obj
 0001:00038880       ?FlybyStaticDogfight@CraftProcess@@IAEXPBVCraft@@@Z 00439880 f   CraftProcess_Attack.obj
 0001:00038910       ?AnchorDogfight@CraftProcess@@IAEXXZ 00439910 f   CraftProcess_Attack.obj
 0001:00038920       ?Stand_Still_And_Shoot@CraftProcess@@IAEXXZ 00439920 f   CraftProcess_Attack.obj
 0001:00038a90       ?IsCloverLeafTooNearEdge@CraftProcess@@IAE_NVVector3@@MM@Z 00439a90 f   CraftProcess_Attack.obj
 0001:00038ba0       ?Clover_Leaf_Attack_Pattern@CraftProcess@@IAEXVVector3@@MMM@Z 00439ba0 f   CraftProcess_Attack.obj
 0001:00038de0       ?Circle_Static_Target@CraftProcess@@IAEXABVVector3@@MM_N@Z 00439de0 f   CraftProcess_Attack.obj
 0001:00039050       ?Flyby_Static_Target@CraftProcess@@IAEXABVVector3@@MM@Z 0043a050 f   CraftProcess_Attack.obj
 0001:000392f0       ?Valid_Target@CraftProcess@@QBE_NPBVCraft@@_N11@Z 0043a2f0 f   CraftProcess_Attack.obj
 0001:000394f0       ?ChooseAValidTarget@CraftProcess@@IAE_N_N@Z 0043a4f0 f   CraftProcess_Attack.obj
 0001:00039b40       ?GetAttackLocation@CraftProcess@@IAE?AVVector3@@XZ 0043ab40 f   CraftProcess_Attack.obj
 0001:00039be0       ?Update_Who_To_Fire_At@CraftProcess@@IAEPAVCraft@@_N0@Z 0043abe0 f   CraftProcess_Attack.obj
 0001:00039d60       ?Nearest_Enemy_Within@CraftProcess@@IBEPAVCraft@@M_N@Z 0043ad60 f   CraftProcess_Attack.obj
 0001:00039f50       ?Fire_At_Regular@CraftProcess@@IAEXPBVCraft@@_N@Z 0043af50 f   CraftProcess_Attack.obj
 0001:0003a040       ?SetCurrentTarget@CraftProcess@@IAEXH@Z 0043b040 f   CraftProcess_Attack.obj
 0001:0003a070       ?GetLastPoint@AiPath@@QBE?AVVector3@@XZ 0043b070 f i CraftProcess_Attack.obj
 0001:0003a0a0       ?InitSystem@FormationManager@@SAXXZ 0043b0a0 f   FormationManager.obj
 0001:0003a100       ?CloseSystem@FormationManager@@SAXXZ 0043b100 f   FormationManager.obj
 0001:0003a150       ??0FormationManager@@QAE@XZ 0043b150 f   FormationManager.obj
 0001:0003a200       ??1FormationManager@@QAE@XZ 0043b200 f   FormationManager.obj
 0001:0003a230       ?BuildAllFormations@FormationManager@@QAE_NXZ 0043b230 f   FormationManager.obj
 0001:0003a340       ?LookupFormation@FormationManager@@QAEPAVFormation@@PBD@Z 0043b340 f   FormationManager.obj
 0001:0003a3a0       ?AddFormation@FormationManager@@QAEXPAVFormation@@@Z 0043b3a0 f   FormationManager.obj
 0001:0003a3b0       ?AddFormationDynamicId@FormationManager@@QAEHPAVFormation@@@Z 0043b3b0 f   FormationManager.obj
 0001:0003a3e0       ?Broadcast_Go_Command@FormationManager@@QAEXW4AiCommand@@ABVVector3@@ABV?$vector@HV?$allocator@H@std@@@std@@_NH3@Z 0043b3e0 f   FormationManager.obj
 0001:0003a680       ?FormFormation@FormationManager@@QAEXABV?$vector@HV?$allocator@H@std@@@std@@H_N@Z 0043b680 f   FormationManager.obj
 0001:0003a700       ?Compute_Destination_Orientation@FormationManager@@IAENABVVector3@@HPBH@Z 0043b700 f   FormationManager.obj
 0001:0003a780       ?Find_Clusters_Of_Ships@FormationManager@@IAEXAAVlinked_list@@HPBH_N@Z 0043b780 f   FormationManager.obj
 0001:0003ab30       ?Set_Up_Formation@FormationManager@@IAEXPAVFormation@@PAVShip_Cluster@@PAVlinked_list@@AAVVector3@@@Z 0043bb30 f   FormationManager.obj
 0001:0003aca0       ?Find_Closest_Craft_To_Location@FormationManager@@IAEPAVCraft@@PAVlinked_list@@ABVVector3@@W4eShipTypeInfo@@@Z 0043bca0 f   FormationManager.obj
 0001:0003adc0       ?ChooseFormationHeading@FormationManager@@IAE?AVVector3@@PAVlinked_list@@@Z 0043bdc0 f   FormationManager.obj
 0001:0003af50       ?Choose_Spot_In_Formation_For_Each_Ship@FormationManager@@IAEXPAVlinked_list@@ABVVector3@@PAVFormation@@AAPAVCraft@@AAV3@M_NPAVAIFleet@@@Z 0043bf50 f   FormationManager.obj
 0001:0003b1d0       ?RestoreOldPositionsInFormation@FormationManager@@IAE_NPAVlinked_list@@PAVFormation@@AAPAVCraft@@AAVVector3@@M@Z 0043c1d0 f   FormationManager.obj
 0001:0003b410       ?Send_Ships_In_Formation@FormationManager@@IAEXW4AiCommand@@VVector3@@PAVFormation@@PAVCraft@@11_NH4M4@Z 0043c410 f   FormationManager.obj
 0001:0003b630       ?Do_Group_Move@FormationManager@@QAEXW4AiCommand@@PAVShip_Cluster@@ABVVector3@@_NHH33@Z 0043c630 f   FormationManager.obj
 0001:0003ba30       ?Give_Formation_Go_Commands@FormationManager@@IAEXW4AiCommand@@ABVVector3@@NHPBH_NH3@Z 0043ca30 f   FormationManager.obj
 0001:0003bc70       ?Give_Formation_Form_Commands@FormationManager@@IAEXHPBHH_N@Z 0043cc70 f   FormationManager.obj
 0001:0003be70       ?SendFormFormationOrder@FormationManager@@QAEXPAVShip_Cluster@@ABVVector3@@H_N@Z 0043ce70 f   FormationManager.obj
 0001:0003c080       ?SaveAll@FormationManager@@QAE_NAAVFileWriter@@@Z 0043d080 f   FormationManager.obj
 0001:0003c120       ?LoadAll@FormationManager@@QAE_NAAVFileReader@@@Z 0043d120 f   FormationManager.obj
 0001:0003c1e0       ??1?$vector@HV?$allocator@H@std@@@std@@QAE@XZ 0043d1e0 f i FormationManager.obj
 0001:0003c210       ?size@?$vector@HV?$allocator@H@std@@@std@@QBEIXZ 0043d210 f i FormationManager.obj
 0001:0003c230       ?_Destroy@?$vector@HV?$allocator@H@std@@@std@@IAEXPAH0@Z 0043d230 f i FormationManager.obj
 0001:0003c240       ?insert@?$vector@HV?$allocator@H@std@@@std@@QAEXPAHIABH@Z 0043d240 f i FormationManager.obj
 0001:0003c450       ?_Construct@std@@YAXPAHABH@Z 0043d450 f i FormationManager.obj
 0001:0003c470       ??0cFormationSlot@@QAE@XZ  0043d470 f   Formations.obj
 0001:0003c4a0       ?Set@cFormationSlot@@QAEXHAAVVector3@@PAW4eShipTypeInfo@@@Z 0043d4a0 f   Formations.obj
 0001:0003c4e0       ?Set@cFormationSlot@@QAEXHAAVVector3@@W4eShipTypeInfo@@@Z 0043d4e0 f   Formations.obj
 0001:0003c520       ?Save@cFormationSlot@@QAE_NAAVFileWriter@@@Z 0043d520 f   Formations.obj
 0001:0003c590       ?Load@cFormationSlot@@QAE_NAAVFileReader@@@Z 0043d590 f   Formations.obj
 0001:0003c5f0       ??0Formation@@QAE@HPBD@Z   0043d5f0 f   Formations.obj
 0001:0003c780       ??0Formation@@QAE@XZ       0043d780 f   Formations.obj
 0001:0003c7c0       ??1Formation@@UAE@XZ       0043d7c0 f   Formations.obj
 0001:0003c810       ?Prepare@Formation@@UAEXXZ 0043d810 f   Formations.obj
 0001:0003c840       ?GetScale@Formation@@QBEMPAVlinked_list@@@Z 0043d840 f   Formations.obj
 0001:0003c9d0       ?FindMiddle@Formation@@UAEXXZ 0043d9d0 f   Formations.obj
 0001:0003ca50       ?Save@Formation@@QAE_NAAVFileWriter@@@Z 0043da50 f   Formations.obj
 0001:0003cb60       ?Load@Formation@@QAE_NAAVFileReader@@@Z 0043db60 f   Formations.obj
 0001:0003cca0       ?mAddSlot@Formation@@IAEXHHAAVVector3@@PAW4eShipTypeInfo@@@Z 0043dca0 f   Formations.obj
 0001:0003ccf0       ?mAddSlot@Formation@@IAEXHHAAVVector3@@W4eShipTypeInfo@@@Z 0043dcf0 f   Formations.obj
 0001:0003cd40       ?mSetName@Formation@@IAEXPBD@Z 0043dd40 f   Formations.obj
 0001:0003cdf0       ?ParseFile@Formation@@QAE_NPAD0@Z 0043ddf0 f   Formations.obj
 0001:0003d200       ??0XFormation@@QAE@H@Z     0043e200 f   Formations.obj
 0001:0003d430       ??1XFormation@@UAE@XZ      0043e430 f   Formations.obj
 0001:0003d480       ??0CrossFormation@@QAE@H@Z 0043e480 f   Formations.obj
 0001:0003d6a0       ??1CrossFormation@@UAE@XZ  0043e6a0 f   Formations.obj
 0001:0003d6f0       ??0SheetFormation@@QAE@H@Z 0043e6f0 f   Formations.obj
 0001:0003d990       ??1SheetFormation@@UAE@XZ  0043e990 f   Formations.obj
 0001:0003da00       ?SlamToZeroPlaneOnFormUp@Formation@@UAE_NXZ 0043ea00 f i Formations.obj
 0001:0003da10       ??_GFormation@@UAEPAXI@Z   0043ea10 f i Formations.obj
 0001:0003da10       ??_EFormation@@UAEPAXI@Z   0043ea10 f i Formations.obj
 0001:0003da40       ??_GXFormation@@UAEPAXI@Z  0043ea40 f i Formations.obj
 0001:0003da40       ??_EXFormation@@UAEPAXI@Z  0043ea40 f i Formations.obj
 0001:0003da70       ??_ECrossFormation@@UAEPAXI@Z 0043ea70 f i Formations.obj
 0001:0003da70       ??_GCrossFormation@@UAEPAXI@Z 0043ea70 f i Formations.obj
 0001:0003daa0       ??_GSheetFormation@@UAEPAXI@Z 0043eaa0 f i Formations.obj
 0001:0003daa0       ??_ESheetFormation@@UAEPAXI@Z 0043eaa0 f i Formations.obj
 0001:0003dad0       ?CreateObject@MineProcess@@SAPAVSObject@@XZ 0043ead0 f   MineProcess.obj
 0001:0003db80       ?GetRtimeClass@MineProcess@@UAEPAVRtimeClass@@XZ 0043eb80 f   MineProcess.obj
 0001:0003db90       ??0MineProcess@@QAE@XZ     0043eb90 f   MineProcess.obj
 0001:0003dbd0       ??1MineProcess@@UAE@XZ     0043ebd0 f   MineProcess.obj
 0001:0003dbe0       ?Execute@MineProcess@@UAEXM@Z 0043ebe0 f   MineProcess.obj
 0001:0003dc30       ?Init@MineProcess@@UAEXPAVAiMission@@PAVGameObject@@@Z 0043ec30 f   MineProcess.obj
 0001:0003dc70       ?mFindEnemyInRange@MineProcess@@IAEPAVGameObject@@XZ 0043ec70 f   MineProcess.obj
 0001:0003de50       ?GetCurrentTargetPtr@MineProcess@@UBEPAVCraft@@XZ 0043ee50 f   MineProcess.obj
 0001:0003de60       ?Load@MineProcess@@UAE_NAAVFileReader@@@Z 0043ee60 f   MineProcess.obj
 0001:0003de90       ?Save@MineProcess@@UAE_NAAVFileWriter@@@Z 0043ee90 f   MineProcess.obj
 0001:0003dee0       ??_GMineProcess@@UAEPAXI@Z 0043eee0 f i MineProcess.obj
 0001:0003dee0       ??_EMineProcess@@UAEPAXI@Z 0043eee0 f i MineProcess.obj
 0001:0003df10       ?CreateObject@MissileProcess@@SAPAVSObject@@XZ 0043ef10 f   MissileProcess.obj
 0001:0003df90       ?GetRtimeClass@MissileProcess@@UAEPAVRtimeClass@@XZ 0043ef90 f   MissileProcess.obj
 0001:0003dfa0       ??0MissileProcess@@QAE@XZ  0043efa0 f   MissileProcess.obj
 0001:0003dfc0       ?Attack@MissileProcess@@MAEXXZ 0043efc0 f   MissileProcess.obj
 0001:0003e2c0       ??_GMissileProcess@@UAEPAXI@Z 0043f2c0 f i MissileProcess.obj
 0001:0003e2c0       ??_EMissileProcess@@UAEPAXI@Z 0043f2c0 f i MissileProcess.obj
 0001:0003e2f0       ??1MissileProcess@@UAE@XZ  0043f2f0 f i MissileProcess.obj
 0001:0003e300       ?CreateObject@RepairShipProcess@@SAPAVSObject@@XZ 0043f300 f   RepairShipProcess.obj
 0001:0003e3a0       ?GetRtimeClass@RepairShipProcess@@UAEPAVRtimeClass@@XZ 0043f3a0 f   RepairShipProcess.obj
 0001:0003e3b0       ??0RepairShipProcess@@QAE@XZ 0043f3b0 f   RepairShipProcess.obj
 0001:0003e3d0       ?Handle_New_Command@RepairShipProcess@@MAEXABVAiCmdInfo@@@Z 0043f3d0 f   RepairShipProcess.obj
 0001:0003e480       ?CheckCanHandleNewCommand@RepairShipProcess@@UAE?AW4eCommandEnableStates@@W4AiCommand@@_N@Z 0043f480 f   RepairShipProcess.obj
 0001:0003e4c0       ?Do_Timestep@RepairShipProcess@@MAEXM@Z 0043f4c0 f   RepairShipProcess.obj
 0001:0003e500       ?LookForRepairTargets@RepairShipProcess@@IAEXXZ 0043f500 f   RepairShipProcess.obj
 0001:0003e710       ?mRepairing@RepairShipProcess@@IAEXXZ 0043f710 f   RepairShipProcess.obj
 0001:0003e8c0       ?Load@RepairShipProcess@@UAE_NAAVFileReader@@@Z 0043f8c0 f   RepairShipProcess.obj
 0001:0003e900       ?Save@RepairShipProcess@@UAE_NAAVFileWriter@@@Z 0043f900 f   RepairShipProcess.obj
 0001:0003e970       ??_GRepairShipProcess@@UAEPAXI@Z 0043f970 f i RepairShipProcess.obj
 0001:0003e970       ??_ERepairShipProcess@@UAEPAXI@Z 0043f970 f i RepairShipProcess.obj
 0001:0003e9a0       ??1RepairShipProcess@@UAE@XZ 0043f9a0 f i RepairShipProcess.obj
 0001:0003e9b0       ?CreateObject@SalvageProcess@@SAPAVSObject@@XZ 0043f9b0 f   SalvageProcess.obj
 0001:0003eaf0       ?GetRtimeClass@SalvageProcess@@UAEPAVRtimeClass@@XZ 0043faf0 f   SalvageProcess.obj
 0001:0003eb00       ??0SalvageProcess@@QAE@XZ  0043fb00 f   SalvageProcess.obj
 0001:0003ebf0       ??1SalvageProcess@@UAE@XZ  0043fbf0 f   SalvageProcess.obj
 0001:0003ed10       ?Do_Timestep@SalvageProcess@@UAEXM@Z 0043fd10 f   SalvageProcess.obj
 0001:0003edf0       ?Special_Attack@SalvageProcess@@QAEXXZ 0043fdf0 f   SalvageProcess.obj
 0001:0003ef60       ?FindClosestDerelict@SalvageProcess@@SAPBVCraft@@PBVGameObject@@M@Z 0043ff60 f   SalvageProcess.obj
 0001:0003f020       ?Init@SalvageProcess@@UAEXPAVAiMission@@PAVGameObject@@@Z 00440020 f   SalvageProcess.obj
 0001:0003f0c0       ?Stop@SalvageProcess@@UAEXXZ 004400c0 f   SalvageProcess.obj
 0001:0003f2b0       ?mCacheTractorBeam@SalvageProcess@@IAEXPAVGameObject@@@Z 004402b0 f   SalvageProcess.obj
 0001:0003f300       ?Load@SalvageProcess@@UAE_NAAVFileReader@@@Z 00440300 f   SalvageProcess.obj
 0001:0003f390       ?Save@SalvageProcess@@UAE_NAAVFileWriter@@@Z 00440390 f   SalvageProcess.obj
 0001:0003f3e0       ?PostLoad@SalvageProcess@@UAE_NXZ 004403e0 f   SalvageProcess.obj
 0001:0003f450       ??_ESalvageProcess@@UAEPAXI@Z 00440450 f i SalvageProcess.obj
 0001:0003f450       ??_GSalvageProcess@@UAEPAXI@Z 00440450 f i SalvageProcess.obj
 0001:0003f480       ??Eiterator@?$list@PAVSalvageProcess@@V?$allocator@PAVSalvageProcess@@@std@@@std@@QAE?AV012@H@Z 00440480 f i SalvageProcess.obj
 0001:0003f4a0       ??0Ship_Cluster@@QAE@_N@Z  004404a0 f   Ship_Cluster.obj
 0001:0003f530       ??1Ship_Cluster@@QAE@XZ    00440530 f   Ship_Cluster.obj
 0001:0003f660       ?Add_Ship_To_Cluster@Ship_Cluster@@QAEXPAVGameObject@@@Z 00440660 f   Ship_Cluster.obj
 0001:0003f780       ?ComputeCenterShip@Ship_Cluster@@QAEXXZ 00440780 f   Ship_Cluster.obj
 0001:0003f880       ?CreateObject@StarbaseProcess@@SAPAVSObject@@XZ 00440880 f   StarbaseProcess.obj
 0001:0003f900       ?GetRtimeClass@StarbaseProcess@@UAEPAVRtimeClass@@XZ 00440900 f   StarbaseProcess.obj
 0001:0003f910       ??0StarbaseProcess@@QAE@XZ 00440910 f   StarbaseProcess.obj
 0001:0003f930       ??1StarbaseProcess@@UAE@XZ 00440930 f   StarbaseProcess.obj
 0001:0003f940       ?Stop@StarbaseProcess@@MAEXXZ 00440940 f   StarbaseProcess.obj
 0001:0003ffd0       ??_GStarbaseProcess@@UAEPAXI@Z 00440fd0 f i StarbaseProcess.obj
 0001:0003ffd0       ??_EStarbaseProcess@@UAEPAXI@Z 00440fd0 f i StarbaseProcess.obj
 0001:00040000       ?CreateObject@TraderProcess@@SAPAVSObject@@XZ 00441000 f   TraderProcess.obj
 0001:000400a0       ?GetRtimeClass@TraderProcess@@UAEPAVRtimeClass@@XZ 004410a0 f   TraderProcess.obj
 0001:000400b0       ??0TraderProcess@@QAE@XZ   004410b0 f   TraderProcess.obj
 0001:000400d0       ??1TraderProcess@@UAE@XZ   004410d0 f   TraderProcess.obj
 0001:000400e0       ?Handle_New_Command@TraderProcess@@MAEXABVAiCmdInfo@@@Z 004410e0 f   TraderProcess.obj
 0001:00040160       ?CheckCanHandleNewCommand@TraderProcess@@UAE?AW4eCommandEnableStates@@W4AiCommand@@_N@Z 00441160 f   TraderProcess.obj
 0001:000401a0       ?Do_Timestep@TraderProcess@@MAEXM@Z 004411a0 f   TraderProcess.obj
 0001:00040240       ?Init@TraderProcess@@UAEXPAVAiMission@@PAVGameObject@@@Z 00441240 f   TraderProcess.obj
 0001:000402a0       ?Stop@TraderProcess@@MAEXXZ 004412a0 f   TraderProcess.obj
 0001:000403e0       ?Trade@TraderProcess@@MAEXXZ 004413e0 f   TraderProcess.obj
 0001:000404a0       ?mTradingStationNeedsFerengi@TraderProcess@@AAEPAVTradingStation@@XZ 004414a0 f   TraderProcess.obj
 0001:00040570       ??_GTraderProcess@@UAEPAXI@Z 00441570 f i TraderProcess.obj
 0001:00040570       ??_ETraderProcess@@UAEPAXI@Z 00441570 f i TraderProcess.obj
 0001:00040610       ?InitAIFleetSystem@AIFleet@@SAXXZ 00441610 f   AIFleet.obj
 0001:00040620       ?ShutDownAIFleetSystem@AIFleet@@SAXXZ 00441620 f   AIFleet.obj
 0001:000406f0       ?ProcessAIForAllFleets@AIFleet@@SAXM@Z 004416f0 f   AIFleet.obj
 0001:000407c0       ?GetFleetByUniqueID@AIFleet@@SAPAV1@H@Z 004417c0 f   AIFleet.obj
 0001:000407f0       ??0AIFleet@@QAE@XZ         004417f0 f   AIFleet.obj
 0001:00040af0       ??1AIFleet@@UAE@XZ         00441af0 f   AIFleet.obj
 0001:00040c60       ?TryToWarp@AIFleet@@UAEX_N@Z 00441c60 f   AIFleet.obj
 0001:00040c70       ?SetStayInFormationWhileMoving@AIFleet@@UAEX_N@Z 00441c70 f   AIFleet.obj
 0001:00040c80       ?SetFleetFormationLeader@AIFleet@@QAEXH@Z 00441c80 f   AIFleet.obj
 0001:00040da0       ?SetFleetFormationOrientation@AIFleet@@QAEXVVector3@@@Z 00441da0 f   AIFleet.obj
 0001:00040e30       ?AddShip@AIFleet@@UAEXH@Z  00441e30 f   AIFleet.obj
 0001:00040fd0       ?RemoveShip@AIFleet@@QAEXH@Z 00441fd0 f   AIFleet.obj
 0001:00041040       ?Disband@AIFleet@@UAEXXZ   00442040 f   AIFleet.obj
 0001:00041060       ?SetFleetDestination@AIFleet@@UAEXVVector3@@@Z 00442060 f   AIFleet.obj
 0001:000410d0       ?ProcessFleetAI@AIFleet@@UAEXM@Z 004420d0 f   AIFleet.obj
 0001:00041140       ?ChooseANewLeader@AIFleet@@QAEXXZ 00442140 f   AIFleet.obj
 0001:00041210       ?IsAnyoneOutOfRange@AIFleet@@QAE_NH@Z 00442210 f   AIFleet.obj
 0001:000412e0       ?IsAnyoneOutOfRange@AIFleet@@QAE_NMM@Z 004422e0 f   AIFleet.obj
 0001:000413a0       ?SendFleet@AIFleet@@IAEXABVVector3@@H@Z 004423a0 f   AIFleet.obj
 0001:000413f0       ?SetFleetFormation@AIFleet@@IAEXH@Z 004423f0 f   AIFleet.obj
 0001:00041460       ?RemoveShip@AIFleet@@MAEPAHPAH@Z 00442460 f   AIFleet.obj
 0001:00041670       ?FindFirstLiveShipInList@AIFleet@@IAEPAVCraft@@PAV?$vector@HV?$allocator@H@std@@@std@@P6A_NPAV2@@Z@Z 00442670 f   AIFleet.obj
 0001:000416e0       ?SendDefenders@AIFleet@@IAE_NPAV?$vector@HV?$allocator@H@std@@@std@@PAVCraft@@_N@Z 004426e0 f   AIFleet.obj
 0001:00041860       ?DefendTheseShips@AIFleet@@IAE_NPAV?$vector@HV?$allocator@H@std@@@std@@0M_N@Z 00442860 f   AIFleet.obj
 0001:000418e0       ?SendRepairShip@AIFleet@@IAE_NPAVCraft@@@Z 004428e0 f   AIFleet.obj
 0001:00041a40       ?RepairTheseShips@AIFleet@@IAE_NPAV?$vector@HV?$allocator@H@std@@@std@@@Z 00442a40 f   AIFleet.obj
 0001:00041ad0       ?WeedOutDeadShips@AIFleet@@IAEXXZ 00442ad0 f   AIFleet.obj
 0001:00041b30       ?RecomputeMaxSpeeds@AIFleet@@IAEXXZ 00442b30 f   AIFleet.obj
 0001:00041bd0       ?UpdateMaxSpeeds@AIFleet@@IAEXPAVCraft@@@Z 00442bd0 f   AIFleet.obj
 0001:00041c30       ?SplitDamage@AIFleet@@UAE_NPAVSTDamage@@@Z 00442c30 f   AIFleet.obj
 0001:00041cd0       ?SaveAll@AIFleet@@SA_NAAVFileWriter@@@Z 00442cd0 f   AIFleet.obj
 0001:00041e70       ?LoadAll@AIFleet@@SA_NAAVFileReader@@@Z 00442e70 f   AIFleet.obj
 0001:00041fc0       ?PostLoadAll@AIFleet@@SA_NXZ 00442fc0 f   AIFleet.obj
 0001:00041ff0       ?Save@AIFleet@@UAE_NAAVFileWriter@@@Z 00442ff0 f   AIFleet.obj
 0001:00042270       ?Load@AIFleet@@UAE_NAAVFileReader@@@Z 00443270 f   AIFleet.obj
 0001:00042480       ?PostLoad@AIFleet@@UAE_NXZ 00443480 f   AIFleet.obj
 0001:00042490       ??0AIFleetFactory@@QAE@XZ  00443490 f   AIFleet.obj
 0001:000424b0       ?ReplaceLeader@AIFleet@@MAEXXZ 004434b0 f   AIFleet.obj
 0001:000424e0       ?IsFusingFleet@AIFleet@@UAE_NXZ 004434e0 f i AIFleet.obj
 0001:000424f0       ?IsBiopulseFleet@AIFleet@@UAE_NXZ 004434f0 f i AIFleet.obj
 0001:00042500       ?mShouldRemoveShip@AIFleet@@MAE_NPAVCraft@@@Z 00443500 f i AIFleet.obj
 0001:00042510       ??_EAIFleet@@UAEPAXI@Z     00443510 f i AIFleet.obj
 0001:00042510       ??_GAIFleet@@UAEPAXI@Z     00443510 f i AIFleet.obj
 0001:00042540       ?size@?$vector@PAVAIFleet@@V?$allocator@PAVAIFleet@@@std@@@std@@QBEIXZ 00443540 f i AIFleet.obj
 0001:00042560       ?erase@?$vector@HV?$allocator@H@std@@@std@@QAEPAHPAH@Z 00443560 f i AIFleet.obj
 0001:000425a0       ?_Destroy@?$vector@PAVAIFleet@@V?$allocator@PAVAIFleet@@@std@@@std@@IAEXPAPAVAIFleet@@0@Z 004435a0 f i AIFleet.obj
 0001:000425b0       ?_Ucopy@?$vector@PAVAIFleet@@V?$allocator@PAVAIFleet@@@std@@@std@@IAEPAPAVAIFleet@@PBQAV3@0PAPAV3@@Z 004435b0 f i AIFleet.obj
 0001:000425e0       ?_Ufill@?$vector@PAVAIFleet@@V?$allocator@PAVAIFleet@@@std@@@std@@IAEXPAPAVAIFleet@@IABQAV3@@Z 004435e0 f i AIFleet.obj
 0001:00042610       ?find@std@@YAPAHPAH0ABH@Z  00443610 f i AIFleet.obj
 0001:000426c0       ?GetFactory@AIStrikeForceFleet@@UBEPBVAIFleetFactory@@XZ 004436c0 f   AIStrikeForceFleet.obj
 0001:000426d0       ?InitAIStrikeForceFleetSystem@AIStrikeForceFleet@@SAXXZ 004436d0 f   AIStrikeForceFleet.obj
 0001:000426e0       ?ShutDownAIStrikeForceFleetSystem@AIStrikeForceFleet@@SAXXZ 004436e0 f   AIStrikeForceFleet.obj
 0001:00042710       ?GetNextStrikeForceGoal@@YAPAVSTGoal@@AAViterator@?$list@VSorted_Goal_ptr@Scheduler@@V?$allocator@VSorted_Goal_ptr@Scheduler@@@std@@@std@@V234@@Z 00443710 f   AIStrikeForceFleet.obj
 0001:00042770       ?ProcessAIForStrikeForceFleets@AIStrikeForceFleet@@SAXH@Z 00443770 f   AIStrikeForceFleet.obj
 0001:00042a50       ?SendStrikeForcesToDistressCall@AIStrikeForceFleet@@SAXHVVector3@@@Z 00443a50 f   AIStrikeForceFleet.obj
 0001:00042ac0       ?AddShipToStrikeForceSystem@AIStrikeForceFleet@@SAXPAVCraft@@@Z 00443ac0 f   AIStrikeForceFleet.obj
 0001:00042c30       ??0AIStrikeForceFleet@@QAE@XZ 00443c30 f   AIStrikeForceFleet.obj
 0001:00042e50       ??1AIStrikeForceFleet@@UAE@XZ 00443e50 f   AIStrikeForceFleet.obj
 0001:00042eb0       ?ProcessFleetAI@AIStrikeForceFleet@@UAEXM@Z 00443eb0 f   AIStrikeForceFleet.obj
 0001:00042f10       ?GetDebugString@AIStrikeForceFleet@@UAEXPADH@Z 00443f10 f   AIStrikeForceFleet.obj
 0001:00042f70       ?Save@AIStrikeForceFleet@@UAE_NAAVFileWriter@@@Z 00443f70 f   AIStrikeForceFleet.obj
 0001:00042fb0       ?Load@AIStrikeForceFleet@@UAE_NAAVFileReader@@@Z 00443fb0 f   AIStrikeForceFleet.obj
 0001:00042ff0       ?PostLoad@AIStrikeForceFleet@@UAE_NXZ 00443ff0 f   AIStrikeForceFleet.obj
 0001:00043000       ?SetStrikeForceStage@AIStrikeForceFleet@@IAEXW4eStrikeForceStage@1@@Z 00444000 f   AIStrikeForceFleet.obj
 0001:00043040       ?GetName@AIStrikeForceFleetFactory@@UBEPBDXZ 00444040 f i AIStrikeForceFleet.obj
 0001:00043050       ?Build@AIStrikeForceFleetFactory@@UBEPAVAIFleet@@XZ 00444050 f i AIStrikeForceFleet.obj
 0001:00043290       ??_GAIStrikeForceFleet@@UAEPAXI@Z 00444290 f i AIStrikeForceFleet.obj
 0001:00043290       ??_EAIStrikeForceFleet@@UAEPAXI@Z 00444290 f i AIStrikeForceFleet.obj
 0001:000432c0       ?_Destroy@?$vector@PAVAIStrikeForceFleet@@V?$allocator@PAVAIStrikeForceFleet@@@std@@@std@@IAEXPAPAVAIStrikeForceFleet@@0@Z 004442c0 f i AIStrikeForceFleet.obj
 0001:000432d0       ?insert@?$vector@PAVAIStrikeForceFleet@@V?$allocator@PAVAIStrikeForceFleet@@@std@@@std@@QAEXPAPAVAIStrikeForceFleet@@IABQAV3@@Z 004442d0 f i AIStrikeForceFleet.obj
 0001:000434e0       ?size@?$vector@PAVAIStrikeForceFleet@@V?$allocator@PAVAIStrikeForceFleet@@@std@@@std@@QBEIXZ 004444e0 f i AIStrikeForceFleet.obj
 0001:00043500       ?_Ucopy@?$vector@PAVAIStrikeForceFleet@@V?$allocator@PAVAIStrikeForceFleet@@@std@@@std@@IAEPAPAVAIStrikeForceFleet@@PBQAV3@0PAPAV3@@Z 00444500 f i AIStrikeForceFleet.obj
 0001:00043530       ?_Ufill@?$vector@PAVAIStrikeForceFleet@@V?$allocator@PAVAIStrikeForceFleet@@@std@@@std@@IAEXPAPAVAIStrikeForceFleet@@IABQAV3@@Z 00444530 f i AIStrikeForceFleet.obj
 0001:00043560       ?_Construct@std@@YAXPAPAVAIStrikeForceFleet@@ABQAV2@@Z 00444560 f i AIStrikeForceFleet.obj
 0001:000435a0       ?GetFactory@AttackFleet@@UBEPBVAIFleetFactory@@XZ 004445a0 f   AttackFleet.obj
 0001:000435b0       ??0AttackFleet@@QAE@XZ     004445b0 f   AttackFleet.obj
 0001:000435e0       ??1AttackFleet@@UAE@XZ     004445e0 f   AttackFleet.obj
 0001:000435f0       ?GetDebugString@AttackFleet@@UAEXPADH@Z 004445f0 f   AttackFleet.obj
 0001:00043680       ?SetAttackStage@AttackFleet@@QAEXW4eAttackStage@1@@Z 00444680 f   AttackFleet.obj
 0001:00043810       ?ProcessFleetAI@AttackFleet@@UAEXM@Z 00444810 f   AttackFleet.obj
 0001:00043980       ?Save@AttackFleet@@UAE_NAAVFileWriter@@@Z 00444980 f   AttackFleet.obj
 0001:00043a00       ?Load@AttackFleet@@UAE_NAAVFileReader@@@Z 00444a00 f   AttackFleet.obj
 0001:00043a70       ?StartAttackIdle@AttackFleet@@IAEXXZ 00444a70 f   AttackFleet.obj
 0001:00043ac0       ?AttackIdle@AttackFleet@@IAEXXZ 00444ac0 f   AttackFleet.obj
 0001:00043b10       ?StartAttackRally@AttackFleet@@IAEXXZ 00444b10 f   AttackFleet.obj
 0001:00043b50       ?RallyTimeIsOver@AttackFleet@@IAE_NXZ 00444b50 f   AttackFleet.obj
 0001:00043b80       ?AttackRally@AttackFleet@@IAEXXZ 00444b80 f   AttackFleet.obj
 0001:00043bf0       ?StartAttackMoveIn@AttackFleet@@IAEXXZ 00444bf0 f   AttackFleet.obj
 0001:00043c40       ?MoveInIsSuccessful@AttackFleet@@IAE_NXZ 00444c40 f   AttackFleet.obj
 0001:00043d50       ?AttackMoveIn@AttackFleet@@IAEXXZ 00444d50 f   AttackFleet.obj
 0001:00043e00       ?StartAttackAttack@AttackFleet@@IAEXXZ 00444e00 f   AttackFleet.obj
 0001:00043ea0       ?AttackAttack@AttackFleet@@IAEXXZ 00444ea0 f   AttackFleet.obj
 0001:00043f90       ?GetName@AttackFleetFactory@@UBEPBDXZ 00444f90 f i AttackFleet.obj
 0001:00043fa0       ?Build@AttackFleetFactory@@UBEPAVAIFleet@@XZ 00444fa0 f i AttackFleet.obj
 0001:00044020       ??_GAttackFleet@@UAEPAXI@Z 00445020 f i AttackFleet.obj
 0001:00044020       ??_EAttackFleet@@UAEPAXI@Z 00445020 f i AttackFleet.obj
 0001:00044070       ?GetFactory@DefendFleet@@UBEPBVAIFleetFactory@@XZ 00445070 f   DefendFleet.obj
 0001:00044080       ??0DefendFleet@@QAE@XZ     00445080 f   DefendFleet.obj
 0001:00044100       ??1DefendFleet@@UAE@XZ     00445100 f   DefendFleet.obj
 0001:000441b0       ?GetDebugString@DefendFleet@@UAEXPADH@Z 004451b0 f   DefendFleet.obj
 0001:00044220       ?SetDefendStage@DefendFleet@@QAEXW4eDefendStage@1@@Z 00445220 f   DefendFleet.obj
 0001:000443b0       ?ProcessFleetAI@DefendFleet@@UAEXM@Z 004453b0 f   DefendFleet.obj
 0001:000445b0       ?Save@DefendFleet@@UAE_NAAVFileWriter@@@Z 004455b0 f   DefendFleet.obj
 0001:00044680       ?Load@DefendFleet@@UAE_NAAVFileReader@@@Z 00445680 f   DefendFleet.obj
 0001:00044730       ?StartDefendIdle@DefendFleet@@IAEXXZ 00445730 f   DefendFleet.obj
 0001:00044770       ?DefendIdle@DefendFleet@@IAEXXZ 00445770 f   DefendFleet.obj
 0001:000447f0       ?ChooseRallyLocation@DefendFleet@@IAEXXZ 004457f0 f   DefendFleet.obj
 0001:00044810       ?SendFleetToRallyLocation@DefendFleet@@IAEXXZ 00445810 f   DefendFleet.obj
 0001:00044830       ?StartDefendRally@DefendFleet@@IAEXXZ 00445830 f   DefendFleet.obj
 0001:000448a0       ?RallyIsSuccessful@DefendFleet@@IAE_NXZ 004458a0 f   DefendFleet.obj
 0001:00044960       ?RallyTimeIsOver@DefendFleet@@IAE_NXZ 00445960 f   DefendFleet.obj
 0001:00044990       ?DefendRally@DefendFleet@@IAEXXZ 00445990 f   DefendFleet.obj
 0001:00044b20       ?AddStationsToDefendList@DefendFleet@@IAEX_N@Z 00445b20 f   DefendFleet.obj
 0001:00044d10       ?AreWeFighting@DefendFleet@@IAE_NXZ 00445d10 f   DefendFleet.obj
 0001:00044d80       ?ChooseRandomDefenseLocation@DefendFleet@@IAEXXZ 00445d80 f   DefendFleet.obj
 0001:00044e20       ?SendShipsToDefensiveLocation@DefendFleet@@IAEXXZ 00445e20 f   DefendFleet.obj
 0001:00044e60       ?StartDefendDefense@DefendFleet@@IAEXXZ 00445e60 f   DefendFleet.obj
 0001:00044f20       ?SeeIfWeShouldMoveWithinDefensiveRegion@DefendFleet@@IAEXXZ 00445f20 f   DefendFleet.obj
 0001:00045060       ?DefendAgainstAttacks@DefendFleet@@IAEXXZ 00446060 f   DefendFleet.obj
 0001:00045110       ?DefendDefense@DefendFleet@@IAEXXZ 00446110 f   DefendFleet.obj
 0001:00045280       ?GetName@DefendFleetFactory@@UBEPBDXZ 00446280 f i DefendFleet.obj
 0001:00045290       ?Build@DefendFleetFactory@@UBEPAVAIFleet@@XZ 00446290 f i DefendFleet.obj
 0001:00045350       ??_GDefendFleet@@UAEPAXI@Z 00446350 f i DefendFleet.obj
 0001:00045350       ??_EDefendFleet@@UAEPAXI@Z 00446350 f i DefendFleet.obj
 0001:00045380       ?GetDistance@@YAMABVVector3@@0@Z 00446380 f i DefendFleet.obj
 0001:000453f0       ?GetFactory@ExploreFleet@@UBEPBVAIFleetFactory@@XZ 004463f0 f   ExploreFleet.obj
 0001:00045400       ??0ExploreFleet@@QAE@XZ    00446400 f   ExploreFleet.obj
 0001:00045440       ??1ExploreFleet@@UAE@XZ    00446440 f   ExploreFleet.obj
 0001:00045450       ?GetDebugString@ExploreFleet@@UAEXPADH@Z 00446450 f   ExploreFleet.obj
 0001:000454e0       ?SetExploreStage@ExploreFleet@@QAEXW4eExploreStage@1@@Z 004464e0 f   ExploreFleet.obj
 0001:00045680       ?ProcessFleetAI@ExploreFleet@@UAEXM@Z 00446680 f   ExploreFleet.obj
 0001:00045850       ?Save@ExploreFleet@@UAE_NAAVFileWriter@@@Z 00446850 f   ExploreFleet.obj
 0001:000458e0       ?Load@ExploreFleet@@UAE_NAAVFileReader@@@Z 004468e0 f   ExploreFleet.obj
 0001:00045960       ?StartExploreIdle@ExploreFleet@@IAEXXZ 00446960 f   ExploreFleet.obj
 0001:000459a0       ?ExploreIdle@ExploreFleet@@IAEXXZ 004469a0 f   ExploreFleet.obj
 0001:00045a20       ?ChooseRallyLocation@ExploreFleet@@IAEXXZ 00446a20 f   ExploreFleet.obj
 0001:00045a40       ?SendFleetToRallyLocation@ExploreFleet@@IAEXXZ 00446a40 f   ExploreFleet.obj
 0001:00045a60       ?StartExploreRally@ExploreFleet@@IAEXXZ 00446a60 f   ExploreFleet.obj
 0001:00045ad0       ?RallyIsSuccessful@ExploreFleet@@IAE_NXZ 00446ad0 f   ExploreFleet.obj
 0001:00045b90       ?RallyTimeIsOver@ExploreFleet@@IAE_NXZ 00446b90 f   ExploreFleet.obj
 0001:00045bc0       ?ExploreRally@ExploreFleet@@IAEXXZ 00446bc0 f   ExploreFleet.obj
 0001:00045ce0       ?StartExploreWait@ExploreFleet@@IAEXXZ 00446ce0 f   ExploreFleet.obj
 0001:00045d20       ?ExploreWait@ExploreFleet@@IAEXXZ 00446d20 f   ExploreFleet.obj
 0001:00045de0       ?StartExploreScout@ExploreFleet@@IAEXXZ 00446de0 f   ExploreFleet.obj
 0001:00045e70       ?ExploreScout@ExploreFleet@@IAEXXZ 00446e70 f   ExploreFleet.obj
 0001:00045f10       ?GetName@ExploreFleetFactory@@UBEPBDXZ 00446f10 f i ExploreFleet.obj
 0001:00045f20       ?Build@ExploreFleetFactory@@UBEPAVAIFleet@@XZ 00446f20 f i ExploreFleet.obj
 0001:00045fb0       ??_EExploreFleet@@UAEPAXI@Z 00446fb0 f i ExploreFleet.obj
 0001:00045fb0       ??_GExploreFleet@@UAEPAXI@Z 00446fb0 f i ExploreFleet.obj
 0001:00046000       ?GetFactory@MoveFleet@@UBEPBVAIFleetFactory@@XZ 00447000 f   MoveFleet.obj
 0001:00046010       ??0MoveFleet@@QAE@XZ       00447010 f   MoveFleet.obj
 0001:00046040       ??1MoveFleet@@UAE@XZ       00447040 f   MoveFleet.obj
 0001:00046050       ?SetFormation@MoveFleet@@UAEXH@Z 00447050 f   MoveFleet.obj
 0001:00046060       ?FormFormation@MoveFleet@@QAEXXZ 00447060 f   MoveFleet.obj
 0001:000460c0       ?GetDebugString@MoveFleet@@UAEXPADH@Z 004470c0 f   MoveFleet.obj
 0001:00046130       ?SetMoveStage@MoveFleet@@QAEXW4eMoveStage@1@@Z 00447130 f   MoveFleet.obj
 0001:00046220       ?ProcessFleetAI@MoveFleet@@UAEXM@Z 00447220 f   MoveFleet.obj
 0001:00046390       ?Save@MoveFleet@@UAE_NAAVFileWriter@@@Z 00447390 f   MoveFleet.obj
 0001:00046410       ?Load@MoveFleet@@UAE_NAAVFileReader@@@Z 00447410 f   MoveFleet.obj
 0001:00046480       ?StartMoveIdle@MoveFleet@@IAEXXZ 00447480 f   MoveFleet.obj
 0001:000464c0       ?MoveIdle@MoveFleet@@IAEXXZ 004474c0 f   MoveFleet.obj
 0001:00046530       ?StartMoveFormUp@MoveFleet@@IAEXXZ 00447530 f   MoveFleet.obj
 0001:00046580       ?MoveFormUp@MoveFleet@@IAEXXZ 00447580 f   MoveFleet.obj
 0001:000465e0       ?SendFleetToTransitLocation@MoveFleet@@IAEXXZ 004475e0 f   MoveFleet.obj
 0001:00046600       ?StartMoveTransit@MoveFleet@@IAEXXZ 00447600 f   MoveFleet.obj
 0001:00046650       ?TransitIsSuccessful@MoveFleet@@IAE_NXZ 00447650 f   MoveFleet.obj
 0001:00046700       ?TransitTimeIsOver@MoveFleet@@IAE_NXZ 00447700 f   MoveFleet.obj
 0001:00046730       ?MoveTransit@MoveFleet@@IAEXXZ 00447730 f   MoveFleet.obj
 0001:00046850       ?GetName@MoveFleetFactory@@UBEPBDXZ 00447850 f i MoveFleet.obj
 0001:00046860       ?Build@MoveFleetFactory@@UBEPAVAIFleet@@XZ 00447860 f i MoveFleet.obj
 0001:000468e0       ??_GMoveFleet@@UAEPAXI@Z   004478e0 f i MoveFleet.obj
 0001:000468e0       ??_EMoveFleet@@UAEPAXI@Z   004478e0 f i MoveFleet.obj
 0001:00046930       ?GetFactory@SiegeFleet@@UBEPBVAIFleetFactory@@XZ 00447930 f   SiegeFleet.obj
 0001:00046940       ??M@YA_NABVcDefensiveStructure@@0@Z 00447940 f   SiegeFleet.obj
 0001:00046970       ??0SiegeFleet@@QAE@XZ      00447970 f   SiegeFleet.obj
 0001:00046a00       ??1SiegeFleet@@UAE@XZ      00447a00 f   SiegeFleet.obj
 0001:00046a70       ?GetDebugString@SiegeFleet@@UAEXPADH@Z 00447a70 f   SiegeFleet.obj
 0001:00046b40       ?SetSiegeStage@SiegeFleet@@QAEXW4eSiegeStage@1@@Z 00447b40 f   SiegeFleet.obj
 0001:00046cf0       ?ProcessFleetAI@SiegeFleet@@UAEXM@Z 00447cf0 f   SiegeFleet.obj
 0001:00046f00       ?Save@SiegeFleet@@UAE_NAAVFileWriter@@@Z 00447f00 f   SiegeFleet.obj
 0001:000470b0       ?Load@SiegeFleet@@UAE_NAAVFileReader@@@Z 004480b0 f   SiegeFleet.obj
 0001:000473c0       ?StartSiegeIdle@SiegeFleet@@IAEXXZ 004483c0 f   SiegeFleet.obj
 0001:00047400       ?SiegeIdle@SiegeFleet@@IAEXXZ 00448400 f   SiegeFleet.obj
 0001:00047470       ?ChooseRallyLocation@SiegeFleet@@IAEXXZ 00448470 f   SiegeFleet.obj
 0001:000475b0       ?SendFleetToRallyLocation@SiegeFleet@@IAEXXZ 004485b0 f   SiegeFleet.obj
 0001:000475d0       ?StartSiegeRally@SiegeFleet@@IAEXXZ 004485d0 f   SiegeFleet.obj
 0001:00047630       ?RallyIsSuccessful@SiegeFleet@@IAE_NXZ 00448630 f   SiegeFleet.obj
 0001:000476f0       ?RallyTimeIsOver@SiegeFleet@@IAE_NXZ 004486f0 f   SiegeFleet.obj
 0001:00047720       ?SiegeRally@SiegeFleet@@IAEXXZ 00448720 f   SiegeFleet.obj
 0001:00047840       ?AddDefensesToBreachList@SiegeFleet@@IAEX_N@Z 00448840 f   SiegeFleet.obj
 0001:00047ba0       ?StartSiegeBreach@SiegeFleet@@IAEXXZ 00448ba0 f   SiegeFleet.obj
 0001:00047be0       ?IsValidSpotter@@YA_NPAVCraft@@@Z 00448be0 f   SiegeFleet.obj
 0001:00047c20       ?SpotTheTarget@SiegeFleet@@IAEXPAVCraft@@@Z 00448c20 f   SiegeFleet.obj
 0001:00047e80       ?TakeOutNextDefense@SiegeFleet@@IAEXPAV?$vector@HV?$allocator@H@std@@@std@@@Z 00448e80 f   SiegeFleet.obj
 0001:00047f90       ?DefendAgainstAttacks@SiegeFleet@@IAEXXZ 00448f90 f   SiegeFleet.obj
 0001:00048020       ?SiegeBreach@SiegeFleet@@IAEXXZ 00449020 f   SiegeFleet.obj
 0001:00048150       ?StartSiegeAttack@SiegeFleet@@IAEXXZ 00449150 f   SiegeFleet.obj
 0001:000481a0       ?SiegeAttack@SiegeFleet@@IAEXXZ 004491a0 f   SiegeFleet.obj
 0001:00048280       ?StartSiegeDefense@SiegeFleet@@IAEXXZ 00449280 f   SiegeFleet.obj
 0001:000482c0       ?SiegeDefense@SiegeFleet@@IAEXXZ 004492c0 f   SiegeFleet.obj
 0001:00048320       ?StartSiegeRetreat@SiegeFleet@@IAEXXZ 00449320 f   SiegeFleet.obj
 0001:00048360       ?SiegeRetreat@SiegeFleet@@IAEXXZ 00449360 f   SiegeFleet.obj
 0001:00048390       ?GetName@SiegeFleetFactory@@UBEPBDXZ 00449390 f i SiegeFleet.obj
 0001:000483a0       ?Build@SiegeFleetFactory@@UBEPAVAIFleet@@XZ 004493a0 f i SiegeFleet.obj
 0001:00048400       ??_ESiegeFleet@@UAEPAXI@Z  00449400 f i SiegeFleet.obj
 0001:00048400       ??_GSiegeFleet@@UAEPAXI@Z  00449400 f i SiegeFleet.obj
 0001:00048430       ?_Destroy@?$vector@VcDefensiveStructure@@V?$allocator@VcDefensiveStructure@@@std@@@std@@IAEXPAVcDefensiveStructure@@0@Z 00449430 f i SiegeFleet.obj
 0001:00048440       ?insert@?$vector@VcDefensiveStructure@@V?$allocator@VcDefensiveStructure@@@std@@@std@@QAEXPAVcDefensiveStructure@@IABV3@@Z 00449440 f i SiegeFleet.obj
 0001:00048690       ?_Ucopy@?$vector@VcDefensiveStructure@@V?$allocator@VcDefensiveStructure@@@std@@@std@@IAEPAVcDefensiveStructure@@PBV3@0PAV3@@Z 00449690 f i SiegeFleet.obj
 0001:000486d0       ?_Ufill@?$vector@VcDefensiveStructure@@V?$allocator@VcDefensiveStructure@@@std@@@std@@IAEXPAVcDefensiveStructure@@IABV3@@Z 004496d0 f i SiegeFleet.obj
 0001:00048700       ?_Construct@std@@YAXPAVcDefensiveStructure@@ABV2@@Z 00449700 f i SiegeFleet.obj
 0001:00048720       ?_Sort@std@@YAXPAVcDefensiveStructure@@00@Z 00449720 f i SiegeFleet.obj
 0001:00048870       ?_Insertion_sort_1@std@@YAXPAVcDefensiveStructure@@00@Z 00449870 f i SiegeFleet.obj
 0001:00048930       ?GetFactory@UserFormationFleet@@UBEPBVAIFleetFactory@@XZ 00449930 f   UserFormationFleet.obj
 0001:00048940       ??0UserFormationFleet@@QAE@H@Z 00449940 f   UserFormationFleet.obj
 0001:000489a0       ??1UserFormationFleet@@UAE@XZ 004499a0 f   UserFormationFleet.obj
 0001:000489b0       ?GetDebugString@UserFormationFleet@@UAEXPADH@Z 004499b0 f   UserFormationFleet.obj
 0001:00048a20       ?SetUserFormationStage@UserFormationFleet@@QAEXW4eUserFormationStage@1@@Z 00449a20 f   UserFormationFleet.obj
 0001:00048ad0       ?ProcessFleetAI@UserFormationFleet@@UAEXM@Z 00449ad0 f   UserFormationFleet.obj
 0001:00048c90       ?SplitOffUnmovedShips@UserFormationFleet@@QAEXPAVShip_Cluster@@@Z 00449c90 f   UserFormationFleet.obj
 0001:00048f40       ?SplitOffMovedShips@UserFormationFleet@@QAEPAV1@PAVShip_Cluster@@@Z 00449f40 f   UserFormationFleet.obj
 0001:00049150       ?SetRallyLocation@UserFormationFleet@@QAEXVVector3@@@Z 0044a150 f   UserFormationFleet.obj
 0001:00049170       ?UpdateLeadersCommand@UserFormationFleet@@QAEXABVAiCmdInfo@@@Z 0044a170 f   UserFormationFleet.obj
 0001:00049230       ?ShouldWarp@UserFormationFleet@@QAE_NXZ 0044a230 f   UserFormationFleet.obj
 0001:00049250       ?Save@UserFormationFleet@@UAE_NAAVFileWriter@@@Z 0044a250 f   UserFormationFleet.obj
 0001:00049340       ?Load@UserFormationFleet@@UAE_NAAVFileReader@@@Z 0044a340 f   UserFormationFleet.obj
 0001:00049400       ?StartUserFormationIdle@UserFormationFleet@@IAEXXZ 0044a400 f   UserFormationFleet.obj
 0001:00049440       ?UserFormationIdle@UserFormationFleet@@IAEXXZ 0044a440 f   UserFormationFleet.obj
 0001:00049450       ?StartUserFormationRally@UserFormationFleet@@IAEXXZ 0044a450 f   UserFormationFleet.obj
 0001:00049560       ?RallyIsSuccessful@UserFormationFleet@@IAE_NXZ 0044a560 f   UserFormationFleet.obj
 0001:000495b0       ?RallyTimeIsOver@UserFormationFleet@@IAE_NXZ 0044a5b0 f   UserFormationFleet.obj
 0001:000495e0       ?UserFormationRally@UserFormationFleet@@IAEXXZ 0044a5e0 f   UserFormationFleet.obj
 0001:000495f0       ?StartUserFormationMove@UserFormationFleet@@IAEXXZ 0044a5f0 f   UserFormationFleet.obj
 0001:00049640       ?MoveIsSuccessful@UserFormationFleet@@IAE_NXZ 0044a640 f   UserFormationFleet.obj
 0001:00049720       ?UserFormationMove@UserFormationFleet@@IAEXXZ 0044a720 f   UserFormationFleet.obj
 0001:00049830       ?DefendAgainstAttacks@UserFormationFleet@@IAEXXZ 0044a830 f   UserFormationFleet.obj
 0001:000498d0       ?ReplaceLeader@UserFormationFleet@@MAEXXZ 0044a8d0 f   UserFormationFleet.obj
 0001:00049920       ?VerifyLeader@UserFormationFleet@@IAEXXZ 0044a920 f   UserFormationFleet.obj
 0001:000499c0       ?GetName@UserFormationFleetFactory@@UBEPBDXZ 0044a9c0 f i UserFormationFleet.obj
 0001:000499d0       ?Build@UserFormationFleetFactory@@UBEPAVAIFleet@@XZ 0044a9d0 f i UserFormationFleet.obj
 0001:00049a70       ??_EUserFormationFleet@@UAEPAXI@Z 0044aa70 f i UserFormationFleet.obj
 0001:00049a70       ??_GUserFormationFleet@@UAEPAXI@Z 0044aa70 f i UserFormationFleet.obj
 0001:00049aa0       ?Priority@ActionMode@@SAMW4AiCommand@@@Z 0044aaa0 f   ActionMode.obj
 0001:00049b70       ?GetAction@ActionMode@@SA?AVAiAction@@PBVGameObject@@PBVVector3@@PA_N@Z 0044ab70 f   ActionMode.obj
 0001:0004a060       ??1?$DynArray@PAVGameObject@@@@QAE@XZ 0044b060 f i ActionMode.obj
 0001:0004a0b0       ??0?$DynArrayGrowthRate@PAVGameObject@@$20AEC@@@QAE@H@Z 0044b0b0 f i ActionMode.obj
 0001:0004a0e0       ?Grow@?$DynArrayGrowthRate@PAVGameObject@@$20AEC@@@QAEHH@Z 0044b0e0 f i ActionMode.obj
 0001:0004a1c0       ?SetSize@?$DynArrayGrowthRate@PAVGameObject@@$20AEC@@@QAEXH@Z 0044b1c0 f i ActionMode.obj
 0001:0004a290       ?SetCapacity@?$DynArrayGrowthRate@PAVGameObject@@$20AEC@@@QAEXH@Z 0044b290 f i ActionMode.obj
 0001:0004a630       ?AI_PostLoad@@YAXH_N@Z     0044b630 f   Ai.obj
 0001:0004a6e0       ?AI_PreRun@@YAXXZ          0044b6e0 f   Ai.obj
 0001:0004a6f0       ?AI_PostRun@@YAXXZ         0044b6f0 f   Ai.obj
 0001:0004a740       ?AI_SwitchAIP@@YAXHPAX@Z   0044b740 f   Ai.obj
 0001:0004a750       ?Process@AI@@QAEXM@Z       0044b750 f   Ai.obj
 0001:0004a870       ?UpdateTeamTimers@AI@@QAEXM@Z 0044b870 f   Ai.obj
 0001:0004a8b0       ?UpdateTeamUtilityLocks@AI@@QAEXXZ 0044b8b0 f   Ai.obj
 0001:0004a8f0       ?ResetStrategyCycle@AI@@QAEXXZ 0044b8f0 f   Ai.obj
 0001:0004a900       ?IncrementStrategyCycle@AI@@IAEXXZ 0044b900 f   Ai.obj
 0001:0004a920       ?Compute_Basic_AI_Statistics@AI@@QAEXXZ 0044b920 f   Ai.obj
 0001:0004ab60       ?Load_Build_List_For_Multi_Player_AI@AI@@QAEXH@Z 0044bb60 f   Ai.obj
 0001:0004ae50       ?Choose_AIP_For_Each_Multi_Player_AI@AI@@QAEXXZ 0044be50 f   Ai.obj
 0001:0004b230       ?ActToughIfLeftAloneToRebuild@AI@@QAEXH@Z 0044c230 f   Ai.obj
 0001:0004b4b0       ??0AI@@QAE@H@Z             0044c4b0 f   Ai.obj
 0001:0004b700       ?Init@AI@@QAEXH@Z          0044c700 f   Ai.obj
 0001:0004b9c0       ??1AI@@QAE@XZ              0044c9c0 f   Ai.obj
 0001:0004b9d0       ?Save@AI@@UAE_NAAVFileWriter@@@Z 0044c9d0 f   Ai.obj
 0001:0004bb70       ?Load@AI@@UAE_NAAVFileReader@@@Z 0044cb70 f   Ai.obj
 0001:0004bcd0       ?Close@AI@@QAEXXZ          0044ccd0 f   Ai.obj
 0001:0004bdc0       ?Create_Teams@AI@@QAEXXZ   0044cdc0 f   Ai.obj
 0001:0004be60       ?SetTeamSpecialWeaponReactionTimes@AI@@QAEXXZ 0044ce60 f   Ai.obj
 0001:0004bea0       ?Setup_Teams@AI@@QAEX_N@Z  0044cea0 f   Ai.obj
 0001:0004c040       ?InitTeam@AI@@QAEXH@Z      0044d040 f   Ai.obj
 0001:0004c050       ?EnableTeam@AI@@QAEHH@Z    0044d050 f   Ai.obj
	0001:0004c090       ?DisableTeam@AI@@QAEHH@Z   0044d090 f   Ai.obj
 0001:0004c0d0       ?IsAITeam@AI@@QAE_NH@Z     0044d0d0 f   Ai.obj
	0001:0004c0f0		?SetIsAITeam@AI@@QAEXABHAB_N@Z 0044d0f0 f   Ai.obj
	0001:0004c110       ?IsEnabled@AI@@QAE_NH@Z    0044d110 f   Ai.obj
 0001:0004c140       ?EnableAllAITeams@AI@@QAEXXZ 0044d140 f   Ai.obj
	0001:0004c180       ?DisableAllAITeams@AI@@QAEXXZ 0044d180 f   Ai.obj
 0001:0004c1c0       ?Add_Agent@AI@@QAEXABH0@Z  0044d1c0 f   Ai.obj
 0001:0004c1f0       ?Send_Distress_Call@AI@@QAEXPAVGameObject@@H@Z 0044d1f0 f   Ai.obj
 0001:0004c630       ?Send_Derelict_Distress_Call@AI@@QAEXPAVCraft@@@Z 0044d630 f   Ai.obj
 0001:0004c740       ?DebugRender@AI@@QAEXXZ    0044d740 f   Ai.obj
 0001:0004c770       ?TeamKamikaze@AI@@QAEXH@Z  0044d770 f   Ai.obj
 0001:0004c8b0       ?TeamAttackAll@AI@@QAE_NH@Z 0044d8b0 f   Ai.obj
 0001:0004cb80       ?InstantActionAttackAll@AI@@QAEXH@Z 0044db80 f   Ai.obj
 0001:0004cc20       ?InstantActionKamikaze@AI@@QAEXH@Z 0044dc20 f   Ai.obj
 0001:0004cc50       ?EliminateAiTeam@AI@@QAEXH@Z 0044dc50 f   Ai.obj
 0001:0004ccb0       ??_EAI_Team@@QAEPAXI@Z     0044dcb0 f i Ai.obj
 0001:0004cd10       ??1?$vector@PAVCraft@@V?$allocator@PAVCraft@@@std@@@std@@QAE@XZ 0044dd10 f i Ai.obj
 0001:0004cd40       ?insert@?$vector@PAVCraft@@V?$allocator@PAVCraft@@@std@@@std@@QAEPAPAVCraft@@PAPAV3@ABQAV3@@Z 0044dd40 f i Ai.obj
 0001:0004cf00       ?size@?$vector@PAVCraft@@V?$allocator@PAVCraft@@@std@@@std@@QBEIXZ 0044df00 f i Ai.obj
 0001:0004cf20       ?_Destroy@?$vector@PAVCraft@@V?$allocator@PAVCraft@@@std@@@std@@IAEXPAPAVCraft@@0@Z 0044df20 f i Ai.obj
 0001:0004cf30       ?insert@?$vector@PAVCraft@@V?$allocator@PAVCraft@@@std@@@std@@QAEXPAPAVCraft@@IABQAV3@@Z 0044df30 f i Ai.obj
 0001:0004d140       ?_Ucopy@?$vector@PAVCraft@@V?$allocator@PAVCraft@@@std@@@std@@IAEPAPAVCraft@@PBQAV3@0PAPAV3@@Z 0044e140 f i Ai.obj
 0001:0004d170       ?_Ufill@?$vector@PAVCraft@@V?$allocator@PAVCraft@@@std@@@std@@IAEXPAPAVCraft@@IABQAV3@@Z 0044e170 f i Ai.obj
 0001:0004d1a0       ?_Construct@std@@YAXPAPAVCraft@@ABQAV2@@Z 0044e1a0 f i Ai.obj
 0001:0004d1c0       ?AiCommandToName@@YAPBDW4AiCommand@@@Z 0044e1c0 f   AiCmdInfo.obj
 0001:0004d1d0       ?AiCommandFromName@@YA?AW4AiCommand@@PBD@Z 0044e1d0 f   AiCmdInfo.obj
 0001:0004d230       ??0AiCmdInfo@@QAE@XZ       0044e230 f   AiCmdInfo.obj
 0001:0004d250       ?Load@AiCmdInfo@@QAE_NAAVFileReader@@@Z 0044e250 f   AiCmdInfo.obj
 0001:0004d3e0       ?Save@AiCmdInfo@@QAE_NAAVFileWriter@@@Z 0044e3e0 f   AiCmdInfo.obj
 0001:0004d570       ?SetCommand@AiCmdInfo@@QAEXW4AiCommand@@PBVGameObject@@1J_N@Z 0044e570 f   AiCmdInfo.obj
 0001:0004d620       ?SetCommand@AiCmdInfo@@QAEXW4AiCommand@@PBVGameObject@@ABVVector3@@J_N@Z 0044e620 f   AiCmdInfo.obj
 0001:0004d6c0       ?SetCommand@AiCmdInfo@@QAEXW4AiCommand@@PBVGameObject@@1ABVVector3@@J_N@Z 0044e6c0 f   AiCmdInfo.obj
 0001:0004d770       ?ClearCommand@AiCmdInfo@@QAEXXZ 0044e770 f   AiCmdInfo.obj
 0001:0004d830       ?Manage_AI@@YAXM@Z         0044e830 f   AIController.obj
 0001:0004d860       ?AI_Cleanup@@YAXXZ         0044e860 f   AIController.obj
 0001:0004d8a0       ?SuccessAll@@YAXH@Z        0044e8a0 f   AIController.obj
 0001:0004d8d0       ?FailAll@@YAXH@Z           0044e8d0 f   AIController.obj
 0001:0004d900       ?FailMission@@YAXMPAD@Z    0044e900 f   AIController.obj
 0001:0004d930       ?SucceedMission@@YAXMPAD@Z 0044e930 f   AIController.obj
 0001:0004d960       ?IsMissionDone@@YA_NXZ     0044e960 f   AIController.obj
 0001:0004d980       ?sPickRandomOffMapLocation@AIFerengi@@SAXPAVMatrix34@@@Z 0044e980 f   AIFerengi.obj
 0001:0004dae0       ?ProcessFerengi@AIFerengi@@QAEXM@Z 0044eae0 f   AIFerengi.obj
 0001:0004db50       ?CanMaraudersSteal@AIFerengi@@QAE_NXZ 0044eb50 f   AIFerengi.obj
 0001:0004db80       ?mProcessMarauders@AIFerengi@@AAEXM@Z 0044eb80 f   AIFerengi.obj
 0001:0004dc50       ?mProcessTraders@AIFerengi@@AAEXM@Z 0044ec50 f   AIFerengi.obj
 0001:0004de10       ??0AIFerengi@@QAE@XZ       0044ee10 f   AIFerengi.obj
 0001:0004de30       ?CanTrade@AIFerengi@@QAEX_N@Z 0044ee30 f   AIFerengi.obj
 0001:0004de40       ?CanSteal@AIFerengi@@QAEX_N@Z 0044ee40 f   AIFerengi.obj
 0001:0004de50       ?Save@AIFerengi@@QAE_NAAVFileWriter@@@Z 0044ee50 f   AIFerengi.obj
 0001:0004deb0       ?Load@AIFerengi@@QAE_NAAVFileReader@@@Z 0044eeb0 f   AIFerengi.obj
	0001:0004df40       ??0AiPath@@QAE@XZ          0044ef40 f   AiPath.obj
 0001:0004dfc0       ??0AiPath@@QAE@PBDH@Z      0044efc0 f   AiPath.obj
 0001:0004e0d0       ??0AiPath@@QAE@ABVVector3@@@Z 0044f0d0 f   AiPath.obj
 0001:0004e170       ??0AiPath@@QAE@ABVVector3@@0PBD@Z 0044f170 f   AiPath.obj
 0001:0004e270       ??0AiPath@@QAE@ABV0@@Z     0044f270 f   AiPath.obj
 0001:0004e3e0       ??1AiPath@@QAE@XZ          0044f3e0 f   AiPath.obj
 0001:0004e440       ?Release@AiPath@@SAXAAPAV1@@Z 0044f440 f   AiPath.obj
 0001:0004e4d0       ?LoadAll@AiPath@@SA_NAAVFileReader@@@Z 0044f4d0 f   AiPath.obj
 0001:0004e5f0       ?SaveAll@AiPath@@SA_NAAVFileWriter@@@Z 0044f5f0 f   AiPath.obj
 0001:0004e690       ?Load@AiPath@@QAE_NAAVFileReader@@@Z 0044f690 f   AiPath.obj
 0001:0004e800       ?Save@AiPath@@QAE_NAAVFileWriter@@@Z 0044f800 f   AiPath.obj
	0001:0004e920       ?SetLabel@AiPath@@QAEXPBD@Z 0044f920 f   AiPath.obj
	0001:0004e990       ?SetPoints@AiPath@@QAEXH@Z 0044f990 f   AiPath.obj
 0001:0004ea50       ?ShrinkPoints@AiPath@@QAEXXZ 0044fa50 f   AiPath.obj
 0001:0004ea60       ?AddPointAtBegining@AiPath@@QAEXABVVector3@@@Z 0044fa60 f   AiPath.obj
	0001:0004eb10       ?Find@AiPath@@SAPAV1@PBD@Z 0044fb10 f   AiPath.obj
 0001:0004eb80       ?Cleanup@AiPath@@SAXXZ     0044fb80 f   AiPath.obj
 0001:0004ec10       ?mSetDistances@AiPath@@ABEXXZ 0044fc10 f   AiPath.obj
 0001:0004eca0       ?GetPathLength@AiPath@@QAEMXZ 0044fca0 f   AiPath.obj
 0001:0004ecc0       ?PointAtDistance@AiPath@@QBE?AVVector3@@MAAH@Z 0044fcc0 f   AiPath.obj
 0001:0004ee20       ?Set_Up_Pathing_Around_Asteroid_Belt@AiPath@@QAEXXZ 0044fe20 f   AiPath.obj
 0001:0004ee30       ?AddAsteroidsToBelt@AiPath@@QAEXXZ 0044fe30 f   AiPath.obj
 0001:0004efb0       ?BlowAwayAsteroids@AiPath@@QAEXXZ 0044ffb0 f   AiPath.obj
 0001:0004f090       ?BlowAwayNebulae@AiPath@@QAEXXZ 00450090 f   AiPath.obj
 0001:0004f170       ?CounterClockWise@@YAHABVVector2@@00@Z 00450170 f   AiPath.obj
 0001:0004f230       ?TestLineSegmentIntersection@@YA_NVVector2@@000@Z 00450230 f   AiPath.obj
 0001:0004f4f0       ?PointInPolygon@AiPath@@QAE_NABVVector2@@@Z 004504f0 f   AiPath.obj
 0001:0004f880       ??1?$vector@PAVAsteroidField@@V?$allocator@PAVAsteroidField@@@std@@@std@@QAE@XZ 00450880 f i AiPath.obj
 0001:0004f8b0       ??1?$vector@PAVNebula@@V?$allocator@PAVNebula@@@std@@@std@@QAE@XZ 004508b0 f i AiPath.obj
 0001:0004f8e0       ?insert@?$vector@PAVAsteroidField@@V?$allocator@PAVAsteroidField@@@std@@@std@@QAEXPAPAVAsteroidField@@IABQAV3@@Z 004508e0 f i AiPath.obj
 0001:0004faf0       ?insert@?$vector@PAVNebula@@V?$allocator@PAVNebula@@@std@@@std@@QAEXPAPAVNebula@@IABQAV3@@Z 00450af0 f i AiPath.obj
 0001:0004fd20       ?CreateObject@EmptyMission@@SAPAVSObject@@XZ 00450d20 f   AISchedMission.obj
 0001:0004fda0       ?GetRtimeClass@EmptyMission@@UAEPAVRtimeClass@@XZ 00450da0 f   AISchedMission.obj
 0001:0004fdb0       ??0EmptyMission@@QAE@XZ    00450db0 f   AISchedMission.obj
 0001:0004fdd0       ??1EmptyMission@@UAE@XZ    00450dd0 f   AISchedMission.obj
 0001:0004fde0       ?Update@EmptyMission@@UAEXM@Z 00450de0 f   AISchedMission.obj
 0001:0004fdf0       ?Matches@EmptyMissionClass@@UAEHPAD@Z 00450df0 f i AISchedMission.obj
 0001:0004fe20       ?Build@EmptyMissionClass@@UAEPAVAiMission@@XZ 00450e20 f i AISchedMission.obj
 0001:0004fe80       ??_GEmptyMission@@UAEPAXI@Z 00450e80 f i AISchedMission.obj
 0001:0004fe80       ??_EEmptyMission@@UAEPAXI@Z 00450e80 f i AISchedMission.obj
 0001:0004feb0       ?AiUtil_GetExtents@@YAXPAM000@Z 00450eb0 f   AiUtil.obj
 0001:0004ff00       ?GetClosestSafeResource@@YAPAVResourceInterface@@PAVFreighter@@@Z 00450f00 f   AiUtil.obj
 0001:000502e0       ?GetClosestSafeResource@@YAPAVResourceInterface@@PAVMiningStation@@@Z 004512e0 f   AiUtil.obj
 0001:00050740       ?Might_Collide_Within@@YA_NABVVector3@@0M00MMM@Z 00451740 f   AiUtil.obj
 0001:00050940       ?Might_Collide_Within@@YA_NPBVGameObject@@0MM@Z 00451940 f   AiUtil.obj
 0001:00050990       ?BuildObject@@YAPAVGameObject@@PADHABVMatrix34@@@Z 00451990 f   AiUtil.obj
 0001:00050a10       ?LoadAll@AOI@@SA_NAAVFileReader@@@Z 00451a10 f   AOI.obj
 0001:00050a60       ?SaveAll@AOI@@SA_NAAVFileWriter@@@Z 00451a60 f   AOI.obj
 0001:00050bd0       ??0ScriptInputCallbacks@@QAE@XZ 00451bd0 f i ScriptInterface.obj
 0001:00050bf0       ?Init@DisplayInterface@@UAEXXZ 00451bf0 f i ScriptInterface.obj
	0001:00050c00       ?AddEntity@DisplayInterface@@UAEXPAVST3D_Node@@@Z 00451c00 f i ScriptInterface.obj
 0001:00050c10       ?DeleteEntity@DisplayInterface@@UAEXPAVST3D_Node@@@Z 00451c10 f i ScriptInterface.obj
 0001:00050c20       ?PostLoad@DisplayInterface@@UAEXXZ 00451c20 f i ScriptInterface.obj
 0001:00050c30       ?Cleanup@DisplayInterface@@UAEXXZ 00451c30 f i ScriptInterface.obj
 0001:00050c40       ?PreSimulate@DisplayInterface@@UAEXXZ 00451c40 f i ScriptInterface.obj
	0001:00050c50       ?AlwaysGameSimulate@DisplayInterface@@UAEXM@Z 00451c50 f i ScriptInterface.obj
 0001:00050c60       ?AlwaysEditSimulate@DisplayInterface@@UAEXM@Z 00451c60 f i ScriptInterface.obj
 0001:00050c70       ?HiddenSimulate@DisplayInterface@@UAEXM@Z 00451c70 f i ScriptInterface.obj
 0001:00050c80       ?HiddenGameSimulate@DisplayInterface@@UAEXM@Z 00451c80 f i ScriptInterface.obj
 0001:00050c90       ?HiddenEditSimulate@DisplayInterface@@UAEXM@Z 00451c90 f i ScriptInterface.obj
 0001:00050ca0       ?VisibleSimulate@DisplayInterface@@UAEXM@Z 00451ca0 f i ScriptInterface.obj
 0001:00050cb0       ?VisibleGameSimulate@DisplayInterface@@UAEXM@Z 00451cb0 f i ScriptInterface.obj
 0001:00050cc0       ?VisibleEditSimulate@DisplayInterface@@UAEXM@Z 00451cc0 f i ScriptInterface.obj
 0001:00050cd0       ?FocusSimulate@DisplayInterface@@UAEXM@Z 00451cd0 f i ScriptInterface.obj
 0001:00050ce0       ?FocusGameSimulate@DisplayInterface@@UAEXM@Z 00451ce0 f i ScriptInterface.obj
 0001:00050cf0       ?FocusEditSimulate@DisplayInterface@@UAEXM@Z 00451cf0 f i ScriptInterface.obj
 0001:00050d00       ?Simulate@DisplayInterface@@UAEXM@Z 00451d00 f i ScriptInterface.obj
 0001:00050d10       ?PreRender@DisplayInterface@@UAEXXZ 00451d10 f i ScriptInterface.obj
	0001:00050d20       ?Render@DisplayInterface@@UAEXXZ 00451d20 f i ScriptInterface.obj
 0001:00050d30       ?HiddenRender@DisplayInterface@@UAEXXZ 00451d30 f i ScriptInterface.obj
 0001:00050d40       ?SetPanelRect@DisplayInterface@@UAEXPAUtagRECT@@@Z 00451d40 f i ScriptInterface.obj
 0001:00050d70       ?GetPanelRect@DisplayInterface@@UAEPAUtagRECT@@XZ 00451d70 f i ScriptInterface.obj
 0001:00050d80       ?IsMovable@DisplayInterface@@UAE_NXZ 00451d80 f i ScriptInterface.obj
 0001:00050d90       ?CursorOver@DisplayInterface@@UAE_NXZ 00451d90 f i ScriptInterface.obj
 0001:00050da0       ?CheckFullHide@DisplayInterface@@UAE_NXZ 00451da0 f i ScriptInterface.obj
 0001:00050db0       ?CheckMinimize@DisplayInterface@@UAE_NXZ 00451db0 f i ScriptInterface.obj
 0001:00050dc0       ?AlwaysSimulate@ScriptInputCallbacks@@UAEXM@Z 00451dc0 f i ScriptInterface.obj
 0001:00050de0       ?GetName@ScriptInputCallbacks@@UBEPBDXZ 00451de0 f i ScriptInterface.obj
 0001:00050df0       ??_EScriptInputCallbacks@@UAEPAXI@Z 00451df0 f i ScriptInterface.obj
 0001:00050df0       ??_GScriptInputCallbacks@@UAEPAXI@Z 00451df0 f i ScriptInterface.obj
 0001:00050e20       ??1ScriptInputCallbacks@@UAE@XZ 00451e20 f i ScriptInterface.obj
	0001:00050e30       ?ScriptCreate_hot_int@ScriptInterfaceImp@@UAEPAVhot_int@@PAD@Z 00451e30 f i ScriptInterface.obj
	0001:00050e90       ?ScriptDestroy_hot_int@ScriptInterfaceImp@@UAEXPAVhot_int@@@Z 00451e90 f i ScriptInterface.obj
 0001:00050eb0       ?ScriptCreate_dirty_int@ScriptInterfaceImp@@UAEPAVdirty_int@@PAD@Z 00451eb0 f i ScriptInterface.obj
 0001:00050f10       ?ScriptDestroy_dirty_int@ScriptInterfaceImp@@UAEXPAVdirty_int@@@Z 00451f10 f i ScriptInterface.obj
 0001:00050f30       ?ScriptCreate_timer_int@ScriptInterfaceImp@@UAEPAVtimer_int@@PAD@Z 00451f30 f i ScriptInterface.obj
 0001:00050f90       ?ScriptDestroy_timer_int@ScriptInterfaceImp@@UAEXPAVtimer_int@@@Z 00451f90 f i ScriptInterface.obj
 0001:00050fb0       ?ScriptCreate_hot_float@ScriptInterfaceImp@@UAEPAVhot_float@@PAD@Z 00451fb0 f i ScriptInterface.obj
 0001:00051010       ?ScriptDestroy_hot_float@ScriptInterfaceImp@@UAEXPAVhot_float@@@Z 00452010 f i ScriptInterface.obj
 0001:00051030       ?ScriptGet_WORLD@ScriptInterfaceImp@@UAEPAVcharacter@@XZ 00452030 f i ScriptInterface.obj
 0001:00051040       ?ScriptGet_ALWAYS_EVALUATE@ScriptInterfaceImp@@UAEPAVdirty_int@@XZ 00452040 f i ScriptInterface.obj
 0001:00051050       ?ScriptGet_isCineractiveCancel@ScriptInterfaceImp@@UAEPAVhot_int@@XZ 00452050 f i ScriptInterface.obj
 0001:00051060       ?ScriptGet_isCineractiveDone@ScriptInterfaceImp@@UAEPAVhot_int@@XZ 00452060 f i ScriptInterface.obj
 0001:00051070       ?ScriptGet_moons_team_1@ScriptInterfaceImp@@UAEPAVhot_int@@XZ 00452070 f i ScriptInterface.obj
 0001:00051080       ?ScriptGet_moons_team_2@ScriptInterfaceImp@@UAEPAVhot_int@@XZ 00452080 f i ScriptInterface.obj
 0001:00051090       ?ScriptGet_moons_team_3@ScriptInterfaceImp@@UAEPAVhot_int@@XZ 00452090 f i ScriptInterface.obj
 0001:000510a0       ?ScriptGet_moons_team_4@ScriptInterfaceImp@@UAEPAVhot_int@@XZ 004520a0 f i ScriptInterface.obj
 0001:000510b0       ?ScriptGet_moons_team_5@ScriptInterfaceImp@@UAEPAVhot_int@@XZ 004520b0 f i ScriptInterface.obj
 0001:000510c0       ?ScriptGet_moons_team_6@ScriptInterfaceImp@@UAEPAVhot_int@@XZ 004520c0 f i ScriptInterface.obj
 0001:000510d0       ?ScriptGet_moons_team_7@ScriptInterfaceImp@@UAEPAVhot_int@@XZ 004520d0 f i ScriptInterface.obj
 0001:000510e0       ?ScriptGet_moons_team_8@ScriptInterfaceImp@@UAEPAVhot_int@@XZ 004520e0 f i ScriptInterface.obj
 0001:000510f0       ?ScriptGet_strength_team_1@ScriptInterfaceImp@@UAEPAVhot_float@@XZ 004520f0 f i ScriptInterface.obj
 0001:00051100       ?ScriptGet_strength_team_2@ScriptInterfaceImp@@UAEPAVhot_float@@XZ 00452100 f i ScriptInterface.obj
 0001:00051110       ?ScriptGet_strength_team_3@ScriptInterfaceImp@@UAEPAVhot_float@@XZ 00452110 f i ScriptInterface.obj
 0001:00051120       ?ScriptGet_strength_team_4@ScriptInterfaceImp@@UAEPAVhot_float@@XZ 00452120 f i ScriptInterface.obj
 0001:00051130       ?ScriptGet_strength_team_5@ScriptInterfaceImp@@UAEPAVhot_float@@XZ 00452130 f i ScriptInterface.obj
 0001:00051140       ?ScriptGet_strength_team_6@ScriptInterfaceImp@@UAEPAVhot_float@@XZ 00452140 f i ScriptInterface.obj
 0001:00051150       ?ScriptGet_strength_team_7@ScriptInterfaceImp@@UAEPAVhot_float@@XZ 00452150 f i ScriptInterface.obj
 0001:00051160       ?ScriptGet_strength_team_8@ScriptInterfaceImp@@UAEPAVhot_float@@XZ 00452160 f i ScriptInterface.obj
 0001:00051170       ?ScriptGet_tried_warp_team_1@ScriptInterfaceImp@@UAEPAVhot_int@@XZ 00452170 f i ScriptInterface.obj
 0001:00051180       ?ScriptGet_tried_warp_team_2@ScriptInterfaceImp@@UAEPAVhot_int@@XZ 00452180 f i ScriptInterface.obj
 0001:00051190       ?ScriptGet_tried_warp_team_3@ScriptInterfaceImp@@UAEPAVhot_int@@XZ 00452190 f i ScriptInterface.obj
 0001:000511a0       ?ScriptGet_tried_warp_team_4@ScriptInterfaceImp@@UAEPAVhot_int@@XZ 004521a0 f i ScriptInterface.obj
 0001:000511b0       ?ScriptGet_tried_warp_team_5@ScriptInterfaceImp@@UAEPAVhot_int@@XZ 004521b0 f i ScriptInterface.obj
 0001:000511c0       ?ScriptGet_tried_warp_team_6@ScriptInterfaceImp@@UAEPAVhot_int@@XZ 004521c0 f i ScriptInterface.obj
 0001:000511d0       ?ScriptGet_tried_warp_team_7@ScriptInterfaceImp@@UAEPAVhot_int@@XZ 004521d0 f i ScriptInterface.obj
 0001:000511e0       ?ScriptGet_tried_warp_team_8@ScriptInterfaceImp@@UAEPAVhot_int@@XZ 004521e0 f i ScriptInterface.obj
 0001:000511f0       ?GetAllyShipAttacks@ScriptInterfaceImp@@UAEHHH@Z 004521f0 f i ScriptInterface.obj
 0001:00051210       ?GetAllyStationAttacks@ScriptInterfaceImp@@UAEHHH@Z 00452210 f i ScriptInterface.obj
 0001:00051230       ?SetIsAITeam@ScriptInterfaceImp@@UAEXABHAB_N@Z 00452230 f i ScriptInterface.obj
 0001:00051250       ?IsAITeam@ScriptInterfaceImp@@UAE_NH@Z 00452250 f i ScriptInterface.obj
 0001:00051270       ?EnableTeam@ScriptInterfaceImp@@UAEXH@Z 00452270 f i ScriptInterface.obj
 0001:00051290       ?DisableTeam@ScriptInterfaceImp@@UAEXH@Z 00452290 f i ScriptInterface.obj
 0001:000512b0       ?IsEnabled@ScriptInterfaceImp@@UAE_NH@Z 004522b0 f i ScriptInterface.obj
 0001:000512d0       ?ResetStrategyCycle@ScriptInterfaceImp@@UAEXXZ 004522d0 f i ScriptInterface.obj
 0001:000512e0       ?EnableAllAITeams@ScriptInterfaceImp@@UAEXXZ 004522e0 f i ScriptInterface.obj
 0001:000512f0       ?DisableAllAITeams@ScriptInterfaceImp@@UAEXXZ 004522f0 f i ScriptInterface.obj
 0001:00051300       ?EnableWormholeTravel@ScriptInterfaceImp@@UAEXH_N@Z 00452300 f i ScriptInterface.obj
 0001:00051320       ?SetSpecialForcesFlag@ScriptInterfaceImp@@UAEHH_N@Z 00452320 f i ScriptInterface.obj
 0001:00051370       ?RecruitSpecialForces@ScriptInterfaceImp@@UAE_NPADHAAH@Z 00452370 f i ScriptInterface.obj
 0001:00051460       ?RecruitSpecialForces@ScriptInterfaceImp@@UAE_NHAAH@Z 00452460 f i ScriptInterface.obj
 0001:000514f0       ?SetPathType@ScriptInterfaceImp@@UAEXPADW4PathType@@@Z 004524f0 f i ScriptInterface.obj
 0001:00051510       ?GetRepair@ScriptInterfaceImp@@UAEXH@Z 00452510 f i ScriptInterface.obj
 0001:00051550       ?Scout@ScriptInterfaceImp@@UAEXH@Z 00452550 f i ScriptInterface.obj
 0001:00051590       ?SearchAndDestroy@ScriptInterfaceImp@@UAEXH@Z 00452590 f i ScriptInterface.obj
 0001:000515d0       ?InQueue@ScriptInterfaceImp@@UAE_NH@Z 004525d0 f i ScriptInterface.obj
 0001:00051610       ?UnderAttack@ScriptInterfaceImp@@UAE_NHM@Z 00452610 f i ScriptInterface.obj
 0001:00051650       ?InAttackMode@ScriptInterfaceImp@@UAE_NH@Z 00452650 f i ScriptInterface.obj
 0001:000516b0       ?OutOfSpecialAttackMode@ScriptInterfaceImp@@UAE_NH@Z 004526b0 f i ScriptInterface.obj
 0001:00051710       ?InStopMode@ScriptInterfaceImp@@UAE_NH@Z 00452710 f i ScriptInterface.obj
 0001:00051770       ?CommandAllShips@ScriptInterfaceImp@@UAEXW4AiCommand@@HPBD_N2@Z 00452770 f i ScriptInterface.obj
 0001:00051850       ?SetCommandWhatWhoParamVO@ScriptInterfaceImp@@UAEXHW4AiCommand@@HJ_N@Z 00452850 f i ScriptInterface.obj
 0001:000518c0       ?SetCommandWhatWhoVO@ScriptInterfaceImp@@UAEXHW4AiCommand@@H_N@Z 004528c0 f i ScriptInterface.obj
 0001:00051930       ?SetCommandWhatWhoWhereVO@ScriptInterfaceImp@@UAEXHW4AiCommand@@PADVVector3@@_N@Z 00452930 f i ScriptInterface.obj
 0001:00051990       ?SetCommandMoveAutonomyLow@ScriptInterfaceImp@@UAEXH@Z 00452990 f i ScriptInterface.obj
 0001:000519d0       ?GetCurrentCommand@ScriptInterfaceImp@@UAE?AW4AiCommand@@H@Z 004529d0 f i ScriptInterface.obj
 0001:00051a10       ?IsCargoShipReadyToLoad@ScriptInterfaceImp@@UAE_NH@Z 00452a10 f i ScriptInterface.obj
 0001:00051a90       ?IsCargoShipFullAndReadyToSend@ScriptInterfaceImp@@UAE_NH@Z 00452a90 f i ScriptInterface.obj
 0001:00051b10       ?StopAllShips@ScriptInterfaceImp@@UAEXHPBD_N1@Z 00452b10 f i ScriptInterface.obj
 0001:00051b40       ?Mine@ScriptInterfaceImp@@UAEXHH@Z 00452b40 f i ScriptInterface.obj
 0001:00051be0       ?Attack@ScriptInterfaceImp@@UAEXHHH@Z 00452be0 f i ScriptInterface.obj
 0001:00051c50       ?Attack@ScriptInterfaceImp@@UAEXHVVector3@@@Z 00452c50 f i ScriptInterface.obj
 0001:00051ca0       ?Colonize@ScriptInterfaceImp@@UAEXHH@Z 00452ca0 f i ScriptInterface.obj
 0001:00051d10       ?Special_Attack@ScriptInterfaceImp@@UAEXHHPBD@Z 00452d10 f i ScriptInterface.obj
 0001:00051dc0       ?Special_Attack@ScriptInterfaceImp@@UAEXHPBD@Z 00452dc0 f i ScriptInterface.obj
 0001:00051e50       ?Special_Attack@ScriptInterfaceImp@@UAEXHVVector3@@PBD@Z 00452e50 f i ScriptInterface.obj
 0001:00051ee0       ?SetSpecialWeaponAttackInterval@ScriptInterfaceImp@@UAEXHM@Z 00452ee0 f i ScriptInterface.obj
 0001:00051f10       ?AllowMultipleSpecialWeaponFire@ScriptInterfaceImp@@UAEXH_N@Z 00452f10 f i ScriptInterface.obj
 0001:00051f30       ?AI_Attack@ScriptInterfaceImp@@UAEXHH@Z 00452f30 f i ScriptInterface.obj
 0001:00051fa0       ?AI_Attack@ScriptInterfaceImp@@UAEXH@Z 00452fa0 f i ScriptInterface.obj
 0001:00051fe0       ?AI_Attack@ScriptInterfaceImp@@UAEXHVVector3@@@Z 00452fe0 f i ScriptInterface.obj
 0001:00052030       ?GetNearestShipyard@ScriptInterfaceImp@@UAEHHH_N@Z 00453030 f i ScriptInterface.obj
 0001:00052090       ?GetNearestRepairFacility@ScriptInterfaceImp@@UAEHHH@Z 00453090 f i ScriptInterface.obj
 0001:000520f0       ?GetNearestStarbase@ScriptInterfaceImp@@UAEHHH@Z 004530f0 f i ScriptInterface.obj
 0001:00052140       ?GetLocation@ScriptInterfaceImp@@UAEABVVector3@@H@Z 00453140 f i ScriptInterface.obj
 0001:00052180       ?GetAttackLocation@ScriptInterfaceImp@@UAE?AVVector3@@HH@Z 00453180 f i ScriptInterface.obj
 0001:00052310       ?GetLocation@ScriptInterfaceImp@@UAEABVVector3@@PADH@Z 00453310 f i ScriptInterface.obj
 0001:00052350       ?GetMainEnemyBaseLocation@ScriptInterfaceImp@@UAE?AVVector3@@H@Z 00453350 f i ScriptInterface.obj
 0001:000523a0       ?AttackMainEnemyBase@ScriptInterfaceImp@@UAEXH_N@Z 004533a0 f i ScriptInterface.obj
 0001:00052400       ?Cloak@ScriptInterfaceImp@@UAEXH@Z 00453400 f i ScriptInterface.obj
 0001:00052440       ?ImmediateCloak@ScriptInterfaceImp@@UAEXH@Z 00453440 f i ScriptInterface.obj
 0001:00052480       ?Decloak@ScriptInterfaceImp@@UAEXH@Z 00453480 f i ScriptInterface.obj
 0001:000524c0       ?Goto@ScriptInterfaceImp@@UAEXHPAD_NH@Z 004534c0 f i ScriptInterface.obj
 0001:00052520       ?Goto@ScriptInterfaceImp@@UAEXHH_NH@Z 00453520 f i ScriptInterface.obj
 0001:00052590       ?Stop@ScriptInterfaceImp@@UAEXHH@Z 00453590 f i ScriptInterface.obj
 0001:000525d0       ?Patrol@ScriptInterfaceImp@@UAEXHPAD@Z 004535d0 f i ScriptInterface.obj
 0001:00052600       ?Build@ScriptInterfaceImp@@UAEXHPAD@Z 00453600 f i ScriptInterface.obj
 0001:00052660       ?IsVisibleToTeam@ScriptInterfaceImp@@UAE_NHH@Z 00453660 f i ScriptInterface.obj
	 0001:000526a0       ?ClearShroud@ScriptInterfaceImp@@UAEXXZ 004536a0 f i ScriptInterface.obj
	 0001:000526b0       ?ClearFog@ScriptInterfaceImp@@UAEXXZ 004536b0 f i ScriptInterface.obj
 0001:000526c0       ?GetNearestObjectNearPosition@ScriptInterfaceImp@@UAEHABVVector3@@MHPADH_NH@Z 004536c0 f i ScriptInterface.obj
 0001:00052850       ?GetNearestObjectNearMe@ScriptInterfaceImp@@UAEHHMHPADH_N@Z 00453850 f i ScriptInterface.obj
 0001:000528a0       ?GetNearestObjectNearPath@ScriptInterfaceImp@@UAEHPADMH0H_N@Z 004538a0 f i ScriptInterface.obj
 0001:000528f0       ?CountUnits@ScriptInterfaceImp@@UAEHHPAD@Z 004538f0 f i ScriptInterface.obj
 0001:000529a0       ?AllStationsDestroyed@ScriptInterfaceImp@@UAE_NH@Z 004539a0 f i ScriptInterface.obj
 0001:000529c0       ?CountStations@ScriptInterfaceImp@@UAEHH@Z 004539c0 f i ScriptInterface.obj
 0001:00052a20       ?AllCapitalShipsDestroyed@ScriptInterfaceImp@@UAE_NH@Z 00453a20 f i ScriptInterface.obj
 0001:00052a40       ?CountCapitalShips@ScriptInterfaceImp@@UAEHH@Z 00453a40 f i ScriptInterface.obj
 0001:00052ab0       ?CountVisibleUnits@ScriptInterfaceImp@@UAEHHH_NPAD@Z 00453ab0 f i ScriptInterface.obj
 0001:00052b90       ?CountUnitsNearObject@ScriptInterfaceImp@@UAEHHMHPAD@Z 00453b90 f i ScriptInterface.obj
 0001:00052ce0       ?CountUnitsNearPoint@ScriptInterfaceImp@@UAEHPADMH0H@Z 00453ce0 f i ScriptInterface.obj
 0001:00052e30       ?CountVisibleUnitsNearPoint@ScriptInterfaceImp@@UAEHHPADMH_N0H@Z 00453e30 f i ScriptInterface.obj
 0001:00052fb0       ?CountVisibleUnitsNearObject@ScriptInterfaceImp@@UAEHHMH_NPAD@Z 00453fb0 f i ScriptInterface.obj
 0001:00053130       ?CountUnitsInRectangle@ScriptInterfaceImp@@UAEHPADH0HH@Z 00454130 f i ScriptInterface.obj
 0001:000532e0       ?CountUnitsInRectangle2@ScriptInterfaceImp@@UAEHPADH0HH@Z 004542e0 f i ScriptInterface.obj
 0001:00053480       ?GetDistance@ScriptInterfaceImp@@UAEMAAH0@Z 00454480 f i ScriptInterface.obj
 0001:00053520       ?GetDistance@ScriptInterfaceImp@@UAEMAAHPADH@Z 00454520 f i ScriptInterface.obj
 0001:000535d0       ?GetNearestObject@ScriptInterfaceImp@@UAEHH@Z 004545d0 f i ScriptInterface.obj
 0001:000536a0       ?GetNearestTranswarpGate@ScriptInterfaceImp@@UAEHH@Z 004546a0 f i ScriptInterface.obj
 0001:000537b0       ?GetNearestVehicle@ScriptInterfaceImp@@UAEHH@Z 004547b0 f i ScriptInterface.obj
 0001:00053880       ?GetNearestVehicle@ScriptInterfaceImp@@UAEHPADH@Z 00454880 f i ScriptInterface.obj
 0001:00053950       ?GetNearestEnemy@ScriptInterfaceImp@@UAEHHM@Z 00454950 f i ScriptInterface.obj
 0001:00053b30       ?Exists@ScriptInterfaceImp@@UAE_NH@Z 00454b30 f i ScriptInterface.obj
 0001:00053b60       ?DoesNotExist@ScriptInterfaceImp@@UAE_NH@Z 00454b60 f i ScriptInterface.obj
 0001:00053b80       ?IsAlive@ScriptInterfaceImp@@UAE_NH@Z 00454b80 f i ScriptInterface.obj
 0001:00053bb0       ?IsExploding@ScriptInterfaceImp@@UAE_NH@Z 00454bb0 f i ScriptInterface.obj
 0001:00053be0       ?IsDerelict@ScriptInterfaceImp@@UAE_NH@Z 00454be0 f i ScriptInterface.obj
 0001:00053c20       ?IsCompromised@ScriptInterfaceImp@@UAE_NHH@Z 00454c20 f i ScriptInterface.obj
 0001:00053c70       ?GetTime@ScriptInterfaceImp@@UAEMXZ 00454c70 f i ScriptInterface.obj
 0001:00053c80       ?ObstacleAvoidance@ScriptInterfaceImp@@UAEX_N@Z 00454c80 f i ScriptInterface.obj
 0001:00053c90       ?CollisionPrevention@ScriptInterfaceImp@@UAEX_N@Z 00454c90 f i ScriptInterface.obj
 0001:00053ca0       ?PathPlanning@ScriptInterfaceImp@@UAEX_N@Z 00454ca0 f i ScriptInterface.obj
 0001:00053cc0       ?PauseSimulation@ScriptInterfaceImp@@UAEXXZ 00454cc0 f i ScriptInterface.obj
 0001:00053cf0       ?UnpauseSimulation@ScriptInterfaceImp@@UAEXXZ 00454cf0 f i ScriptInterface.obj
 0001:00053d20       ?GridVisible@ScriptInterfaceImp@@UAEX_N@Z 00454d20 f i ScriptInterface.obj
	
	0001:00053d30       ?SetWormholeTeam@ScriptInterfaceImp@@UAEXHH@Z 00454d30 f i ScriptInterface.obj
	0001:00053d70       ?StuffIntoWormhole@ScriptInterfaceImp@@UAEXHH@Z 00454d70 f i ScriptInterface.obj
	
	0001:00053dd0       ?LinkWormholes@ScriptInterfaceImp@@UAEXHH@Z 00454dd0 f i ScriptInterface.obj
	0001:00053e30       ?SetWormholeDeleteOnTransport@ScriptInterfaceImp@@UAEXH_N@Z 00454e30 f i ScriptInterface.obj
	0001:00053e70       ?SetWormholeExpireOnClose@ScriptInterfaceImp@@UAEXH_N@Z 00454e70 f i ScriptInterface.obj

 0001:00053eb0       ?PlayCinematicMovie@ScriptInterfaceImp@@UAEXPAVscript@@PADH_N@Z 00454eb0 f i ScriptInterface.obj
 0001:00053ee0       ?StopMovie@ScriptInterfaceImp@@UAEXXZ 00454ee0 f i ScriptInterface.obj
 0001:00053ef0       ?IsMoviePlaying@ScriptInterfaceImp@@UAE_NXZ 00454ef0 f i ScriptInterface.obj
 0001:00053f00       ?FindGameEvent@ScriptInterfaceImp@@UAEHPBD@Z 00454f00 f i ScriptInterface.obj
 0001:00053f20       ?TriggerGameEvent@ScriptInterfaceImp@@UAEXHH@Z 00454f20 f i ScriptInterface.obj
 0001:00053f70       ?MinimapMessage@ScriptInterfaceImp@@UAEXPADHMH@Z 00454f70 f i ScriptInterface.obj
 0001:00053fb0       ?MinimapMessage@ScriptInterfaceImp@@UAEXHHM@Z 00454fb0 f i ScriptInterface.obj
 0001:00053ff0       ?ShowTitle@ScriptInterfaceImp@@UAEHHHPBD_N@Z 00454ff0 f i ScriptInterface.obj
 0001:00054090       ?RemoveTitle@ScriptInterfaceImp@@UAEXH_N@Z 00455090 f i ScriptInterface.obj
 0001:000540c0       ?ShowSubtitle@ScriptInterfaceImp@@UAEHHHPBD_N@Z 004550c0 f i ScriptInterface.obj
 0001:00054120       ?RemoveSubtitle@ScriptInterfaceImp@@UAEXH_N@Z 00455120 f i ScriptInterface.obj
 0001:00054150       ?CenterCamera@ScriptInterfaceImp@@UAEXPADH@Z 00455150 f i ScriptInterface.obj
 0001:00054170       ?CenterCamera@ScriptInterfaceImp@@UAEXVVector3@@@Z 00455170 f i ScriptInterface.obj
 0001:00054190       ?CenterCamera@ScriptInterfaceImp@@UAEXH@Z 00455190 f i ScriptInterface.obj
 0001:000541d0       ?SetCameraZoom@ScriptInterfaceImp@@UAEXM@Z 004551d0 f i ScriptInterface.obj
 0001:000541f0       ?GetHandle@ScriptInterfaceImp@@UAEHPAD@Z 004551f0 f i ScriptInterface.obj
	0001:00054210       ?IsValid@ScriptInterfaceImp@@UAE_NH@Z 00455210 f i ScriptInterface.obj
 0001:00054230       ?HideObject@ScriptInterfaceImp@@UAEXH_N@Z 00455230 f i ScriptInterface.obj
 0001:00054260       ?IsOdf@ScriptInterfaceImp@@UAE_NHPAD@Z 00455260 f i ScriptInterface.obj
 0001:000542c0       ?BuildObject@ScriptInterfaceImp@@UAEHPADHHMMM@Z 004552c0 f i ScriptInterface.obj
 0001:000543c0       ?BuildObject@ScriptInterfaceImp@@UAEHPADH0H@Z 004553c0 f i ScriptInterface.obj
 0001:00054450       ?ReplaceObject@ScriptInterfaceImp@@UAEHHPAD@Z 00455450 f i ScriptInterface.obj
 0001:000544d0       ?SetPosition@ScriptInterfaceImp@@UAEXHPADH@Z 004554d0 f i ScriptInterface.obj
 0001:00054550       ?SetPosition@ScriptInterfaceImp@@UAEXHPAD@Z 00455550 f i ScriptInterface.obj
 0001:00054570       ?SetVelocity@ScriptInterfaceImp@@UAEXHABVVector3@@@Z 00455570 f i ScriptInterface.obj
 0001:000545b0       ?SetAngularVelocity@ScriptInterfaceImp@@UAEXHABVVector3@@@Z 004555b0 f i ScriptInterface.obj
 0001:000545f0       ?PointAt@ScriptInterfaceImp@@UAEXHPAD@Z 004555f0 f i ScriptInterface.obj
 0001:000546b0       ?PointAt@ScriptInterfaceImp@@UAEXHH@Z 004556b0 f i ScriptInterface.obj
 0001:00054770       ?RemoveObject@ScriptInterfaceImp@@UAEXH@Z 00455770 f i ScriptInterface.obj
 0001:000547a0       ?RemoveAllObjects@ScriptInterfaceImp@@UAEXXZ 004557a0 f i ScriptInterface.obj
 0001:00054800       ?RemoveAllCraft@ScriptInterfaceImp@@UAEX_NH@Z 00455800 f i ScriptInterface.obj
 0001:00054880       ?GetDilithium@ScriptInterfaceImp@@UAEHH@Z 00455880 f i ScriptInterface.obj
 0001:000548c0       ?GetMaxDilithium@ScriptInterfaceImp@@UAEHH@Z 004558c0 f i ScriptInterface.obj
 0001:000548d0       ?AddDilithium@ScriptInterfaceImp@@UAEXHH@Z 004558d0 f i ScriptInterface.obj
 0001:000548f0       ?SetDilithium@ScriptInterfaceImp@@UAEXHH@Z 004558f0 f i ScriptInterface.obj
 0001:00054910       ?GetMetal@ScriptInterfaceImp@@UAEHH@Z 00455910 f i ScriptInterface.obj
 0001:00054950       ?GetMaxMetal@ScriptInterfaceImp@@UAEHH@Z 00455950 f i ScriptInterface.obj
 0001:00054960       ?AddMetal@ScriptInterfaceImp@@UAEXHH@Z 00455960 f i ScriptInterface.obj
 0001:00054980       ?SetMetal@ScriptInterfaceImp@@UAEXHH@Z 00455980 f i ScriptInterface.obj
 0001:000549a0       ?GetBiomatter@ScriptInterfaceImp@@UAEHH@Z 004559a0 f i ScriptInterface.obj
 0001:000549e0       ?AddBiomatter@ScriptInterfaceImp@@UAEXHH@Z 004559e0 f i ScriptInterface.obj
 0001:00054a10       ?SetBiomatter@ScriptInterfaceImp@@UAEXHH@Z 00455a10 f i ScriptInterface.obj
 0001:00054a40       ?GetLatinum@ScriptInterfaceImp@@UAEHH@Z 00455a40 f i ScriptInterface.obj
 0001:00054a80       ?GetMaxLatinum@ScriptInterfaceImp@@UAEHH@Z 00455a80 f i ScriptInterface.obj
 0001:00054a90       ?AddLatinum@ScriptInterfaceImp@@UAEXHH@Z 00455a90 f i ScriptInterface.obj
 0001:00054ab0       ?SetLatinum@ScriptInterfaceImp@@UAEXHH@Z 00455ab0 f i ScriptInterface.obj
 0001:00054ad0       ?AddCrew@ScriptInterfaceImp@@UAEMHM@Z 00455ad0 f i ScriptInterface.obj
 0001:00054b10       ?SetTeamCrew@ScriptInterfaceImp@@UAEMHM@Z 00455b10 f i ScriptInterface.obj
 0001:00054b70       ?GetTeamCrew@ScriptInterfaceImp@@UAEMH@Z 00455b70 f i ScriptInterface.obj
 0001:00054ba0       ?GetMaxCrew@ScriptInterfaceImp@@UAEMH@Z 00455ba0 f i ScriptInterface.obj
 0001:00054bb0       ?AddOfficers@ScriptInterfaceImp@@UAEMHM@Z 00455bb0 f i ScriptInterface.obj
 0001:00054bc0       ?SetOfficers@ScriptInterfaceImp@@UAEMHM@Z 00455bc0 f i ScriptInterface.obj
 0001:00054bd0       ?GetOfficers@ScriptInterfaceImp@@UAEMH@Z 00455bd0 f i ScriptInterface.obj
 0001:00054bf0       ?GetOfficerCapacity@ScriptInterfaceImp@@UAEMH@Z 00455bf0 f i ScriptInterface.obj
 0001:00054c10       ?GetRealTeam@ScriptInterfaceImp@@UAEHH@Z 00455c10 f i ScriptInterface.obj
 0001:00054c50       ?GetPerceivedTeam@ScriptInterfaceImp@@UAEHH@Z 00455c50 f i ScriptInterface.obj
 0001:00054c90       ?SetPerceivedTeam@ScriptInterfaceImp@@UAEXHH@Z 00455c90 f i ScriptInterface.obj
 0001:00054cc0       ?SetRealTeam@ScriptInterfaceImp@@UAEXHH@Z 00455cc0 f i ScriptInterface.obj
 0001:00054d00       ?IsRace@ScriptInterfaceImp@@UAE_NHQAD@Z 00455d00 f i ScriptInterface.obj
 0001:00054d50       ?SetRace@ScriptInterfaceImp@@UAEXHPBD@Z 00455d50 f i ScriptInterface.obj
 0001:00054d90       ?GetRace@ScriptInterfaceImp@@UAEPBDH@Z 00455d90 f i ScriptInterface.obj
 0001:00054dd0       ?GetOriginalRace@ScriptInterfaceImp@@UAEPBDH@Z 00455dd0 f i ScriptInterface.obj
 0001:00054e20       ?LoadCargoShip@ScriptInterfaceImp@@UAEXHH@Z 00455e20 f i ScriptInterface.obj
 0001:00054e70       ?GetShieldPercent@ScriptInterfaceImp@@UAEMH@Z 00455e70 f i ScriptInterface.obj
 0001:00054eb0       ?SetShieldPercent@ScriptInterfaceImp@@UAEXHM@Z 00455eb0 f i ScriptInterface.obj
 0001:00054ef0       ?SetMaxShields@ScriptInterfaceImp@@UAEXHM@Z 00455ef0 f i ScriptInterface.obj
 0001:00054f30       ?GetRealShieldPercent@ScriptInterfaceImp@@UAEMH@Z 00455f30 f i ScriptInterface.obj
 0001:00054fa0       ?GetCrew@ScriptInterfaceImp@@UAEMH@Z 00455fa0 f i ScriptInterface.obj
 0001:00054fe0       ?GetPlanetCivPop@ScriptInterfaceImp@@UAEHH@Z 00455fe0 f i ScriptInterface.obj
 0001:00055020       ?SetPlanetCivPop@ScriptInterfaceImp@@UAEXHH@Z 00456020 f i ScriptInterface.obj
 0001:00055060       ?SetCrew@ScriptInterfaceImp@@UAEXHM@Z 00456060 f i ScriptInterface.obj
 0001:000550a0       ?GetSpecialEnergy@ScriptInterfaceImp@@UAEMH@Z 004560a0 f i ScriptInterface.obj
 0001:000550e0       ?GetDilithiumOnFreighter@ScriptInterfaceImp@@UAEMH@Z 004560e0 f i ScriptInterface.obj
 0001:00055140       ?IsThereARomulanSpyOnShip@ScriptInterfaceImp@@UAE_NH@Z 00456140 f i ScriptInterface.obj
 0001:00055180       ?GetTranswarpExitWormhole@ScriptInterfaceImp@@UAEHH@Z 00456180 f i ScriptInterface.obj
 0001:000551f0       ?AddBillboardEffect@ScriptInterfaceImp@@UAEXHPAD@Z 004561f0 f i ScriptInterface.obj
 0001:00055230       ?AddTransporterEffect@ScriptInterfaceImp@@UAEXH@Z 00456230 f i ScriptInterface.obj
 0001:00055250       ?RemoveBillboardEffect@ScriptInterfaceImp@@UAEXH@Z 00456250 f i ScriptInterface.obj
 0001:00055280       ?SetSpecialEnergy@ScriptInterfaceImp@@UAEXHM@Z 00456280 f i ScriptInterface.obj
 0001:000552f0       ?AllowAsTarget@ScriptInterfaceImp@@UAEXHH_N@Z 004562f0 f i ScriptInterface.obj
 0001:00055350       ?SetForceOntoMap@ScriptInterfaceImp@@UAEXH_N@Z 00456350 f i ScriptInterface.obj
 0001:00055380       ?EnginesActive@ScriptInterfaceImp@@UAE_NH@Z 00456380 f i ScriptInterface.obj
 0001:000553d0       ?SensorsActive@ScriptInterfaceImp@@UAE_NH@Z 004563d0 f i ScriptInterface.obj
 0001:00055430       ?ShieldGeneratorActive@ScriptInterfaceImp@@UAE_NH@Z 00456430 f i ScriptInterface.obj
 0001:00055480       ?LifeSupportActive@ScriptInterfaceImp@@UAE_NH@Z 00456480 f i ScriptInterface.obj
 0001:000554e0       ?WeaponsActive@ScriptInterfaceImp@@UAE_NH@Z 004564e0 f i ScriptInterface.obj
 0001:00055530       ?EnginesDisabled@ScriptInterfaceImp@@UAE_NH@Z 00456530 f i ScriptInterface.obj
 0001:00055590       ?SensorsDisabled@ScriptInterfaceImp@@UAE_NH@Z 00456590 f i ScriptInterface.obj
 0001:000555f0       ?ShieldGeneratorDisabled@ScriptInterfaceImp@@UAE_NH@Z 004565f0 f i ScriptInterface.obj
 0001:00055650       ?LifeSupportDisabled@ScriptInterfaceImp@@UAE_NH@Z 00456650 f i ScriptInterface.obj
 0001:000556b0       ?WeaponsDisabled@ScriptInterfaceImp@@UAE_NH@Z 004566b0 f i ScriptInterface.obj
 0001:00055710       ?EnginesDestroyed@ScriptInterfaceImp@@UAE_NH@Z 00456710 f i ScriptInterface.obj
 0001:00055770       ?SensorsDestroyed@ScriptInterfaceImp@@UAE_NH@Z 00456770 f i ScriptInterface.obj
 0001:000557d0       ?ShieldGeneratorDestroyed@ScriptInterfaceImp@@UAE_NH@Z 004567d0 f i ScriptInterface.obj
 0001:00055830       ?LifeSupportDestroyed@ScriptInterfaceImp@@UAE_NH@Z 00456830 f i ScriptInterface.obj
 0001:00055890       ?WeaponsDestroyed@ScriptInterfaceImp@@UAE_NH@Z 00456890 f i ScriptInterface.obj
 0001:000558f0       ?GetFirstCraft@ScriptInterfaceImp@@UAEHXZ 004568f0 f i ScriptInterface.obj
 0001:00055930       ?GetNextCraft@ScriptInterfaceImp@@UAEHXZ 00456930 f i ScriptInterface.obj
 0001:00055960       ?DisableEngines@ScriptInterfaceImp@@UAEXH_N@Z 00456960 f i ScriptInterface.obj
 0001:000559a0       ?DisableSensors@ScriptInterfaceImp@@UAEXH_N@Z 004569a0 f i ScriptInterface.obj
 0001:000559e0       ?DisableShieldGenerator@ScriptInterfaceImp@@UAEXH_N@Z 004569e0 f i ScriptInterface.obj
 0001:00055a20       ?DisableLifeSupport@ScriptInterfaceImp@@UAEXH_N@Z 00456a20 f i ScriptInterface.obj
 0001:00055a60       ?DisableWeapons@ScriptInterfaceImp@@UAEXH_N@Z 00456a60 f i ScriptInterface.obj
 0001:00055aa0       ?DestroyCritical@ScriptInterfaceImp@@UAEXH@Z 00456aa0 f i ScriptInterface.obj
 0001:00055b10       ?DamageEngines@ScriptInterfaceImp@@UAEXHM@Z 00456b10 f i ScriptInterface.obj
 0001:00055b70       ?DamageSensors@ScriptInterfaceImp@@UAEXHM@Z 00456b70 f i ScriptInterface.obj
 0001:00055bd0       ?DamageShieldGenerator@ScriptInterfaceImp@@UAEXHM@Z 00456bd0 f i ScriptInterface.obj
 0001:00055c30       ?DamageLifeSupport@ScriptInterfaceImp@@UAEXHM@Z 00456c30 f i ScriptInterface.obj
 0001:00055c90       ?DamageWeapons@ScriptInterfaceImp@@UAEXHM@Z 00456c90 f i ScriptInterface.obj
 0001:00055cf0       ?ExplodeNow@ScriptInterfaceImp@@UAEXH@Z 00456cf0 f i ScriptInterface.obj
 0001:00055d20       ?SetCurrentHealth@ScriptInterfaceImp@@UAEXHM@Z 00456d20 f i ScriptInterface.obj
 0001:00055d60       ?GetCurrentHealth@ScriptInterfaceImp@@UAEMH@Z 00456d60 f i ScriptInterface.obj
 0001:00055da0       ?GetMaxHealth@ScriptInterfaceImp@@UAEMH@Z 00456da0 f i ScriptInterface.obj
 0001:00055de0       ?CraftCanRepair@ScriptInterfaceImp@@UAEXH_N@Z 00456de0 f i ScriptInterface.obj
 0001:00055e10       ?CraftCanRecrew@ScriptInterfaceImp@@UAEXH_N@Z 00456e10 f i ScriptInterface.obj
 0001:00055e50       ?IsRedAlert@ScriptInterfaceImp@@UAE_NH@Z 00456e50 f i ScriptInterface.obj
 0001:00055e90       ?IsYellowAlert@ScriptInterfaceImp@@UAE_NH@Z 00456e90 f i ScriptInterface.obj
 0001:00055ed0       ?IsGreenAlert@ScriptInterfaceImp@@UAE_NH@Z 00456ed0 f i ScriptInterface.obj
 0001:00055f10       ?SetRedAlert@ScriptInterfaceImp@@UAEXH@Z 00456f10 f i ScriptInterface.obj
 0001:00055f40       ?SetYellowAlert@ScriptInterfaceImp@@UAEXH@Z 00456f40 f i ScriptInterface.obj
 0001:00055f70       ?SetGreenAlert@ScriptInterfaceImp@@UAEXH@Z 00456f70 f i ScriptInterface.obj
 0001:00055fa0       ?IsUnconfirmedAlly@ScriptInterfaceImp@@UAE_NHH@Z 00456fa0 f i ScriptInterface.obj
 0001:00055fc0       ?IsUnconfirmedNeutral@ScriptInterfaceImp@@UAE_NHH@Z 00456fc0 f i ScriptInterface.obj
 0001:00055fe0       ?IsUnconfirmedEnemy@ScriptInterfaceImp@@UAE_NHH@Z 00456fe0 f i ScriptInterface.obj
 0001:00056000       ?IsConfirmedAlly@ScriptInterfaceImp@@UAE_NHH@Z 00457000 f i ScriptInterface.obj
 0001:00056020       ?IsConfirmedNeutral@ScriptInterfaceImp@@UAE_NHH@Z 00457020 f i ScriptInterface.obj
 0001:00056040       ?IsConfirmedEnemy@ScriptInterfaceImp@@UAE_NHH@Z 00457040 f i ScriptInterface.obj
 0001:00056060       ?SetRelation@ScriptInterfaceImp@@UAEXHHW4eTeamRelation@@@Z 00457060 f i ScriptInterface.obj
 0001:00056090       ?ShowTradesTo@ScriptInterfaceImp@@UAEXH@Z 00457090 f i ScriptInterface.obj
 0001:000560b0       ?FerengiCanTrade@ScriptInterfaceImp@@UAEX_N@Z 004570b0 f i ScriptInterface.obj
 0001:000560d0       ?FerengiCanSteal@ScriptInterfaceImp@@UAEX_N@Z 004570d0 f i ScriptInterface.obj
 0001:000560f0       ?GetCombatSpeed@ScriptInterfaceImp@@UAEMH@Z 004570f0 f i ScriptInterface.obj
 0001:00056130       ?SetCombatSpeed@ScriptInterfaceImp@@UAEXHM@Z 00457130 f i ScriptInterface.obj
 0001:00056170       ?GetImpulseSpeed@ScriptInterfaceImp@@UAEMH@Z 00457170 f i ScriptInterface.obj
 0001:000561b0       ?SetImpulseSpeed@ScriptInterfaceImp@@UAEXHM@Z 004571b0 f i ScriptInterface.obj
 0001:000561f0       ?ResetImpulseSpeed@ScriptInterfaceImp@@UAEXH@Z 004571f0 f i ScriptInterface.obj
 0001:00056240       ?AllowWarp@ScriptInterfaceImp@@UAEHH@Z 00457240 f i ScriptInterface.obj
 0001:00056260       ?CreateSpecialFlag@ScriptInterfaceImp@@UAEHHPAD@Z 00457260 f i ScriptInterface.obj
 0001:00056310       ?RestrictSpecialFlag@ScriptInterfaceImp@@UAEXHW4Restriction@SpecialFlag@@@Z 00457310 f i ScriptInterface.obj
 0001:00056340       ?RestrictSpecialFlag@ScriptInterfaceImp@@UAEXHW4Restriction@SpecialFlag@@PAD@Z 00457340 f i ScriptInterface.obj
 0001:00056370       ?RestrictSpecialFlag@ScriptInterfaceImp@@UAEXHW4Restriction@SpecialFlag@@H@Z 00457370 f i ScriptInterface.obj
 0001:000563a0       ?ClearRestrictions@ScriptInterfaceImp@@UAEXH@Z 004573a0 f i ScriptInterface.obj
 0001:000563c0       ?GetLocationOfFlag@ScriptInterfaceImp@@UAEHH@Z 004573c0 f i ScriptInterface.obj
 0001:000563f0       ?GetRealTeamOfFlag@ScriptInterfaceImp@@UAEHH@Z 004573f0 f i ScriptInterface.obj
 0001:00056430       ?GetPercievedTeamOfFlag@ScriptInterfaceImp@@UAEHH@Z 00457430 f i ScriptInterface.obj
 0001:00056470       ?IsRaceOfFlag@ScriptInterfaceImp@@UAE_NHPAD@Z 00457470 f i ScriptInterface.obj
 0001:000564f0       ?TransferFlag@ScriptInterfaceImp@@UAEXHH@Z 004574f0 f i ScriptInterface.obj
 0001:00056550       ?ObjectHasFlag@ScriptInterfaceImp@@UAE_NH@Z 00457550 f i ScriptInterface.obj
0001:00056590       ?CraftCannotDie@ScriptInterfaceImp@@UAEXH_N@Z 00457590 f i ScriptInterface.obj
0001:000565c0       ?ButItCanBeDerelicted@ScriptInterfaceImp@@UAEXH_N@Z 004575c0 f i ScriptInterface.obj
 0001:000565f0       ?FadeOut@ScriptInterfaceImp@@UAEXPAVscript@@MMM_N@Z 004575f0 f i ScriptInterface.obj
 0001:00056650       ?FadeIn@ScriptInterfaceImp@@UAEXPAVscript@@MMM_N@Z 00457650 f i ScriptInterface.obj
 0001:000566b0       ?FadeRemove@ScriptInterfaceImp@@UAEXXZ 004576b0 f i ScriptInterface.obj
 0001:000566c0       ?EnableLight@ScriptInterfaceImp@@UAEXH_N@Z 004576c0 f i ScriptInterface.obj
 0001:000566f0       ?StartCredits@ScriptInterfaceImp@@UAEXXZ 004576f0 f i ScriptInterface.obj
 0001:000567e0       ?SetOrigin@ST3D_Instance@@UAEXABVVector3@@@Z 004577e0 f i ScriptInterface.obj
 0001:00056800       ??_ECredits_Instance@@UAEPAXI@Z 00457800 f i ScriptInterface.obj
 0001:00056800       ??_GCredits_Instance@@UAEPAXI@Z 00457800 f i ScriptInterface.obj
 0001:00056830       ??1Credits_Instance@@UAE@XZ 00457830 f i ScriptInterface.obj
 0001:00056840       ?EndCredits@ScriptInterfaceImp@@UAEXXZ 00457840 f i ScriptInterface.obj
 0001:00056890       ?SetClippingDistance@ScriptInterfaceImp@@UAEXM@Z 00457890 f i ScriptInterface.obj
 0001:000568a0       ?SetObjectCullingDistance@ScriptInterfaceImp@@UAEXM@Z 004578a0 f i ScriptInterface.obj
 0001:000568b0       ?RestoreObjectCullingDistance@ScriptInterfaceImp@@UAEXXZ 004578b0 f i ScriptInterface.obj
 0001:000568c0       ?AudioMessage@ScriptInterfaceImp@@UAEHPAVscript@@PBD_N@Z 004578c0 f i ScriptInterface.obj
 0001:00056910       ?PlayMusic@ScriptInterfaceImp@@UAEHPAVscript@@PBD_N@Z 00457910 f i ScriptInterface.obj
0001:00056960       ?WaitForEnterKey@ScriptInterfaceImp@@UAEXPAVscript@@@Z 00457960 f i ScriptInterface.obj
 0001:00056980       ?IsAudioMessageDone@ScriptInterfaceImp@@UAE_NH@Z 00457980 f i ScriptInterface.obj
 0001:000569a0       ?StopAudioMessage@ScriptInterfaceImp@@UAEXH@Z 004579a0 f i ScriptInterface.obj
 0001:000569c0       ?CineractiveStart@ScriptInterfaceImp@@UAEXPAVscript@@_N@Z 004579c0 f i ScriptInterface.obj
 0001:00056a00       ?CineractiveCameraOffset@ScriptInterfaceImp@@UAEXMMM_N@Z 00457a00 f i ScriptInterface.obj
 0001:00056a20       ?CineractiveCameraOffset@ScriptInterfaceImp@@UAEXPADM_N@Z 00457a20 f i ScriptInterface.obj
 0001:00056a40       ?CineractiveTargetOffset@ScriptInterfaceImp@@UAEXMMM_N@Z 00457a40 f i ScriptInterface.obj
 0001:00056a60       ?CineractiveTargetOffset@ScriptInterfaceImp@@UAEXPADM_N@Z 00457a60 f i ScriptInterface.obj
 0001:00056a80       ?CineractiveShot@ScriptInterfaceImp@@UAEXPADH_N@Z 00457a80 f i ScriptInterface.obj
 0001:00056aa0       ?CineractiveShot@ScriptInterfaceImp@@UAEXPADH0H@Z 00457aa0 f i ScriptInterface.obj
 0001:00056ac0       ?CineractiveShot@ScriptInterfaceImp@@UAEXPADHH@Z 00457ac0 f i ScriptInterface.obj
 0001:00056ae0       ?CineractiveShot@ScriptInterfaceImp@@UAEXPADH0M@Z 00457ae0 f i ScriptInterface.obj
 0001:00056b00       ?CineractiveShot@ScriptInterfaceImp@@UAEXH_N@Z 00457b00 f i ScriptInterface.obj
 0001:00056b20       ?CineractiveShot@ScriptInterfaceImp@@UAEXHPADH@Z 00457b20 f i ScriptInterface.obj
 0001:00056b40       ?CineractiveShot@ScriptInterfaceImp@@UAEXHH@Z 00457b40 f i ScriptInterface.obj
 0001:00056b60       ?CineractiveShot@ScriptInterfaceImp@@UAEXHPADM@Z 00457b60 f i ScriptInterface.obj
 0001:00056b80       ?CineractiveShot@ScriptInterfaceImp@@UAEXPADM_N@Z 00457b80 f i ScriptInterface.obj
 0001:00056ba0       ?CineractiveShot@ScriptInterfaceImp@@UAEXPADM0H@Z 00457ba0 f i ScriptInterface.obj
 0001:00056bc0       ?CineractiveShot@ScriptInterfaceImp@@UAEXPADMH@Z 00457bc0 f i ScriptInterface.obj
 0001:00056be0       ?CineractiveShot@ScriptInterfaceImp@@UAEXPADM0M@Z 00457be0 f i ScriptInterface.obj
 0001:00056c00       ?CineractiveShotTrackLeft@ScriptInterfaceImp@@UAEXPADH0HH@Z 00457c00 f i ScriptInterface.obj
 0001:00056c30       ?CineractiveConstantSpeed@ScriptInterfaceImp@@UAEX_N@Z 00457c30 f i ScriptInterface.obj
 0001:00056c50       ?CineractiveEnd@ScriptInterfaceImp@@UAEXXZ 00457c50 f i ScriptInterface.obj
 0001:00056c60       ?SetPathSegmentSpeedModifier@ScriptInterfaceImp@@UAEXHM@Z 00457c60 f i ScriptInterface.obj
 0001:00056c80       ?ObjectivesDisplay_Set_Visibility@ScriptInterfaceImp@@UAEX_N@Z 00457c80 f i ScriptInterface.obj
 0001:00056ca0       ?ObjectivesDisplay_Set_Text_From_File@ScriptInterfaceImp@@UAEXPAD_N@Z 00457ca0 f i ScriptInterface.obj
 0001:00056cc0       ?ObjectivesDisplaySetObjectiveComplete@ScriptInterfaceImp@@UAEXH_N@Z 00457cc0 f i ScriptInterface.obj
 0001:00056ce0       ?MessageDisplay_Set_Text_From_File@ScriptInterfaceImp@@UAEXPAD@Z 00457ce0 f i ScriptInterface.obj
 0001:00056d00       ?AI_Team_Load_AIP@ScriptInterfaceImp@@UAEXHPAD@Z 00457d00 f i ScriptInterface.obj
 0001:00056d30       ?Starfield_Load_Background_Geometry@ScriptInterfaceImp@@UAEXPAD@Z 00457d30 f i ScriptInterface.obj
 0001:00056d50       ?FailMission@ScriptInterfaceImp@@UAEXMPAD@Z 00457d50 f i ScriptInterface.obj
 0001:00056d70       ?SucceedMission@ScriptInterfaceImp@@UAEXMPAD@Z 00457d70 f i ScriptInterface.obj
 0001:00056d90       ?MonitorInputControls@ScriptInterfaceImp@@UAEXP6A_NXZ@Z 00457d90 f i ScriptInterface.obj
 0001:00056df0       ?GetInputControlPointer@ScriptInterfaceImp@@UAEPBHPBD@Z 00457df0 f i ScriptInterface.obj
 0001:00056e10       ?AddToLoad@ScriptInterfaceImp@@UAEXPAX@Z 00457e10 f i ScriptInterface.obj
 0001:00056e30       ?RemoveFromLoad@ScriptInterfaceImp@@UAEXPAX@Z 00457e30 f i ScriptInterface.obj
 0001:00056e50       ?AddToSave@ScriptInterfaceImp@@UAEXPAX@Z 00457e50 f i ScriptInterface.obj
 0001:00056e70       ?RemoveFromSave@ScriptInterfaceImp@@UAEXPAX@Z 00457e70 f i ScriptInterface.obj
 0001:00056e90       ?out@ScriptInterfaceImp@@UAE_NAAVFileWriter@@PAHIPAD@Z 00457e90 f i ScriptInterface.obj
 0001:00056eb0       ?out@ScriptInterfaceImp@@UAE_NAAVFileWriter@@PAVhot_int@@PAD@Z 00457eb0 f i ScriptInterface.obj
 0001:00056ed0       ?out@ScriptInterfaceImp@@UAE_NAAVFileWriter@@PAVtimer_int@@PAD@Z 00457ed0 f i ScriptInterface.obj
 0001:00056ef0       ?out@ScriptInterfaceImp@@UAE_NAAVFileWriter@@PAMIPAD@Z 00457ef0 f i ScriptInterface.obj
 0001:00056f10       ?out@ScriptInterfaceImp@@UAE_NAAVFileWriter@@PAVVector3@@IPAD@Z 00457f10 f i ScriptInterface.obj
 0001:00056f30       ?in@ScriptInterfaceImp@@UAE_NAAVFileReader@@PAHI@Z 00457f30 f i ScriptInterface.obj
 0001:00056f50       ?in@ScriptInterfaceImp@@UAE_NAAVFileReader@@PAVhot_int@@@Z 00457f50 f i ScriptInterface.obj
 0001:00056f70       ?in@ScriptInterfaceImp@@UAE_NAAVFileReader@@PAVtimer_int@@@Z 00457f70 f i ScriptInterface.obj
 0001:00056f90       ?in@ScriptInterfaceImp@@UAE_NAAVFileReader@@PAMI@Z 00457f90 f i ScriptInterface.obj
 0001:00056fb0       ?in@ScriptInterfaceImp@@UAE_NAAVFileReader@@PAVVector3@@I@Z 00457fb0 f i ScriptInterface.obj
 0001:00056fd0       ?SetTeamText@ScriptInterfaceImp@@UAEXPAD@Z 00457fd0 f i ScriptInterface.obj
 0001:00056ff0       ?SetStarbaseUpgrades@ScriptInterfaceImp@@UAEXHH@Z 00457ff0 f i ScriptInterface.obj
 0001:00057000       ?CreateNewSiegeFleet@ScriptInterfaceImp@@UAEPAVSiegeFleet@@XZ 00458000 f i ScriptInterface.obj
 0001:00057060       ?CreateNewMoveFleet@ScriptInterfaceImp@@UAEPAVMoveFleet@@XZ 00458060 f i ScriptInterface.obj
 0001:000570c0       ?CreateNewAttackFleet@ScriptInterfaceImp@@UAEPAVAttackFleet@@XZ 004580c0 f i ScriptInterface.obj
 0001:00057120       ?CreateNewDefendFleet@ScriptInterfaceImp@@UAEPAVDefendFleet@@XZ 00458120 f i ScriptInterface.obj
 0001:00057180       ?RandomGetUnsigned@ScriptInterfaceImp@@UAEII@Z 00458180 f i ScriptInterface.obj
	0001:000571a0       ?IsShipAliveAndOffMap@ScriptInterfaceImp@@UAE_NH@Z 004581a0 f i ScriptInterface.obj
 0001:000571e0       ?Starfield_Load_New_Background_Geometry@ScriptInterfaceImp@@UAEXPAD0@Z 004581e0 f i ScriptInterface.obj
 0001:00057220       ?IsStation@ScriptInterfaceImp@@UAE_NH@Z 00458220 f i ScriptInterface.obj
 0001:00057260       ?RemoveFromAdLog@ScriptInterfaceImp@@UAEXH@Z 00458260 f i ScriptInterface.obj
 0001:00057280       ?AddToAdLog@ScriptInterfaceImp@@UAEXH@Z 00458280 f i ScriptInterface.obj
 0001:000572c0       ?HasTimeElapsed@ScriptInterfaceImp@@UAE_NM@Z 004582c0 f i ScriptInterface.obj
 0001:000572f0       ?SetCanBeDecommissioned@ScriptInterfaceImp@@UAEXH_N@Z 004582f0 f i ScriptInterface.obj
 0001:00057320       ?DisableChat@ScriptInterfaceImp@@UAEX_N@Z 00458320 f i ScriptInterface.obj
 0001:00057330       ?MuteSounds@ScriptInterfaceImp@@UAEXM@Z 00458330 f i ScriptInterface.obj
 0001:00057350       ?SetName@ScriptInterfaceImp@@UAEXHPBD@Z 00458350 f i ScriptInterface.obj
 0001:00057390       ?DisableSave@ScriptInterfaceImp@@UAEXXZ 00458390 f i ScriptInterface.obj
 0001:000573a0       ?EnableSave@ScriptInterfaceImp@@UAEXXZ 004583a0 f i ScriptInterface.obj
 0001:000573b0       ?TeamKamikaze@ScriptInterfaceImp@@UAEXH@Z 004583b0 f i ScriptInterface.obj
 0001:000573d0       ?TeamAttackAll@ScriptInterfaceImp@@UAEXH@Z 004583d0 f i ScriptInterface.obj
 0001:000573f0       ?GetLatinumTraded@ScriptInterfaceImp@@UAEMHH@Z 004583f0 f i ScriptInterface.obj
 0001:00057410       ?SetTeamDistressCallRange@ScriptInterfaceImp@@UAEXHM@Z 00458410 f i ScriptInterface.obj
 0001:00057430       ?FEDERATION_LIGHT_BLUE@?4??ShowTitle@ScriptInterfaceImp@@UAEHHHPBD_N@Z@$AVST3D_Colour@@B 00458430 f i ScriptInterface.obj
 0001:00057440       ?LoadScriptUtils@@YA_NAAVFileReader@@@Z 00458440 f   ScriptUtils.obj
 0001:000575d0       ?SaveScriptUtils@@YA_NAAVFileWriter@@@Z 004585d0 f   ScriptUtils.obj
	0001:000576c0       ?StartMusic@@YAXJH@Z       004586c0 f   Audio.obj
 0001:00057750       ?PauseMusic@@YAXXZ         00458750 f   Audio.obj
 0001:00057790       ?UnPauseMusic@@YAXXZ       00458790 f   Audio.obj
 0001:000577d0       ?StopMusic@@YAXXZ          004587d0 f   Audio.obj
 0001:00057800       ?CheckCDLooping@@YAXXZ     00458800 f   Audio.obj
 0001:00057880       ?CDInitVolume@@YAHXZ       00458880 f   redbook.obj
 0001:00057920       ?CDInit@@YAHXZ             00458920 f   redbook.obj
 0001:00057a70       ?CDDone@@YAHXZ             00458a70 f   redbook.obj
 0001:00057ab0       ?CDPauseAudio@@YAHXZ       00458ab0 f   redbook.obj
 0001:00057ae0       ?CDResumeAudio@@YAHXZ      00458ae0 f   redbook.obj
 0001:00057b10       ?CDStopAudio@@YAHXZ        00458b10 f   redbook.obj
 0001:00057b40       ?CDPlayAudio@@YAHKK@Z      00458b40 f   redbook.obj
 0001:00057b90       ?PlayerInit@@YAHXZ         00458b90 f   redbook.obj
 0001:00057e30       ?PlayerDone@@YAXXZ         00458e30 f   redbook.obj
 0001:00057e80       ?PlayerState@@YAHXZ        00458e80 f   redbook.obj
 0001:00057f60       ?UpdatePlayerState@@YAHXZ  00458f60 f   redbook.obj
 0001:00058060       ?PlayerEject@@YAXXZ        00459060 f   redbook.obj
 0001:000580d0       ?PlayerPlayOrPause@@YAXH@Z 004590d0 f   redbook.obj
 0001:00058340       ?PlayerPlay@@YAXXZ         00459340 f   redbook.obj
	0001:000585d0       ?PlayerStop@@YAXXZ         004595d0 f   redbook.obj
 0001:000586c0       ?PlayerTrackDown@@YAXXZ    004596c0 f   redbook.obj
 0001:000586f0       ?PlayerTrackUp@@YAXXZ      004596f0 f   redbook.obj
 0001:00058720       ?PlayerDisplayInfo@@YAXPAUPS@@@Z 00459720 f   redbook.obj
 0001:000588c0       ?PlayerRepeatStateGet@@YAHXZ 004598c0 f   redbook.obj
 0001:000588e0       ?PlayerRepeatStateSet@@YAXH@Z 004598e0 f   redbook.obj
 0001:000588f0       ?PlayerShuffleStateGet@@YAHXZ 004598f0 f   redbook.obj
 0001:00058900       ?PlayerShuffleStateSet@@YAXH@Z 00459900 f   redbook.obj
 0001:00058910       ?PlayerUpdate@@YAHXZ       00459910 f   redbook.obj
 0001:00058d10       ?PlayerTrack@@YAXH@Z       00459d10 f   redbook.obj
 0001:00059040       ?PlayerSegment@@YAXKK@Z    0045a040 f   redbook.obj
 0001:000594c0       ?CDExists@@YAHXZ           0045a4c0 f   redbook.obj
 0001:000594e0       ?CDTrackExists@@YAHH@Z     0045a4e0 f   redbook.obj
 0001:00059510       ?GetCDVolume@@YAJXZ        0045a510 f   redbook.obj
 0001:00059550       ?SetCDVolume@@YAHJ@Z       0045a550 f   redbook.obj
 0001:000595f0       ?VerifyCDTrackLength@@YAHKK@Z 0045a5f0 f   redbook.obj
 0001:000596b0       ?IsPlaying@AudioOverlay@@SA_NXZ 0045a6b0 f   AudioOverlay.obj
 0001:000596c0       ?Play@AudioOverlay@@SAHPBDW4eAudioVolume@@HPAVscript@@@Z 0045a6c0 f   AudioOverlay.obj
 0001:000597e0       ?Stop@AudioOverlay@@SA_NH@Z 0045a7e0 f   AudioOverlay.obj
 0001:00059840       ?IsPlaying@AudioOverlay@@SA_NH@Z 0045a840 f   AudioOverlay.obj
 0001:000598a0       ?AudioDeleted@AudioOverlay@@KAXPAVAudioSound@@@Z 0045a8a0 f   AudioOverlay.obj
 0001:00059910       ??1?$map@HPAVAudioStream2D@@U?$less@H@std@@V?$allocator@PAVAudioStream2D@@@3@@std@@QAE@XZ 0045a910 f i AudioOverlay.obj
 0001:00059a00       ??0?$map@HPAVAudioStream2D@@U?$less@H@std@@V?$allocator@PAVAudioStream2D@@@3@@std@@QAE@ABU?$less@H@1@ABV?$allocator@PAVAudioStream2D@@@1@@Z 0045aa00 f i AudioOverlay.obj
 0001:00059ab0       ?begin@?$_Tree@HU?$pair@$$CBHPAVAudioStream2D@@@std@@U_Kfn@?$map@HPAVAudioStream2D@@U?$less@H@std@@V?$allocator@PAVAudioStream2D@@@3@@2@U?$less@H@2@V?$allocator@PAVAudioStream2D@@@2@@std@@QAE?AViterator@12@XZ 0045aab0 f i AudioOverlay.obj
 0001:00059ad0       ?erase@?$_Tree@HU?$pair@$$CBHPAVAudioStream2D@@@std@@U_Kfn@?$map@HPAVAudioStream2D@@U?$less@H@std@@V?$allocator@PAVAudioStream2D@@@3@@2@U?$less@H@2@V?$allocator@PAVAudioStream2D@@@2@@std@@QAE?AViterator@12@V312@@Z 0045aad0 f i AudioOverlay.obj
 0001:00059ef0       ?_Erase@?$_Tree@HU?$pair@$$CBHPAVAudioStream2D@@@std@@U_Kfn@?$map@HPAVAudioStream2D@@U?$less@H@std@@V?$allocator@PAVAudioStream2D@@@3@@2@U?$less@H@2@V?$allocator@PAVAudioStream2D@@@2@@std@@IAEXPAU_Node@12@@Z 0045aef0 f i AudioOverlay.obj
 0001:00059f30       ?_Insert@?$_Tree@HU?$pair@$$CBHPAVAudioStream2D@@@std@@U_Kfn@?$map@HPAVAudioStream2D@@U?$less@H@std@@V?$allocator@PAVAudioStream2D@@@3@@2@U?$less@H@2@V?$allocator@PAVAudioStream2D@@@2@@std@@IAE?AViterator@12@PAU_Node@12@0ABU?$pair@$$CBHPAVAudioStream2D@@@2@@Z 0045af30 f i AudioOverlay.obj
 0001:0005a1b0       ?_Inc@const_iterator@?$_Tree@HU?$pair@$$CBHPAVAudioStream2D@@@std@@U_Kfn@?$map@HPAVAudioStream2D@@U?$less@H@std@@V?$allocator@PAVAudioStream2D@@@3@@2@U?$less@H@2@V?$allocator@PAVAudioStream2D@@@2@@std@@QAEXXZ 0045b1b0 f i AudioOverlay.obj
 0001:0005a200       ?_Lbound@?$_Tree@HU?$pair@$$CBHPAVAudioStream2D@@@std@@U_Kfn@?$map@HPAVAudioStream2D@@U?$less@H@std@@V?$allocator@PAVAudioStream2D@@@3@@2@U?$less@H@2@V?$allocator@PAVAudioStream2D@@@2@@std@@IBEPAU_Node@12@ABH@Z 0045b200 f i AudioOverlay.obj
 0001:0005a230       ?_Dec@const_iterator@?$_Tree@HU?$pair@$$CBHPAVAudioStream2D@@@std@@U_Kfn@?$map@HPAVAudioStream2D@@U?$less@H@std@@V?$allocator@PAVAudioStream2D@@@3@@2@U?$less@H@2@V?$allocator@PAVAudioStream2D@@@2@@std@@QAEXXZ 0045b230 f i AudioOverlay.obj
 0001:0005a290       ?_Construct@std@@YAXPAU?$pair@$$CBHPAVAudioStream2D@@@1@ABU21@@Z 0045b290 f i AudioOverlay.obj
 0001:0005a450       ?mPreventAudio@AudioQueue@@KA_NXZ 0045b450 f   AudioQueue.obj
 0001:0005a480       ?Play@AudioQueue@@SAXPBDW4eAudioPriority@@_N@Z 0045b480 f   AudioQueue.obj
 0001:0005a6d0       ?sVoicePendingSort@AudioQueue@@CAHPBX0@Z 0045b6d0 f   AudioQueue.obj
 0001:0005a710       ?Update@AudioQueue@@SAXM@Z 0045b710 f   AudioQueue.obj
 0001:0005a9f0       ?Clear@AudioQueue@@SAXXZ   0045b9f0 f   AudioQueue.obj
 0001:0005ad20       ?VoiceDeleted@AudioQueue@@KAXPAVAudioSound@@@Z 0045bd20 f   AudioQueue.obj
 0001:0005b070       ?EffectDeleted@AudioQueue@@KAXPAVAudioSound@@@Z 0045c070 f   AudioQueue.obj
 0001:0005b080       ??1?$DynArray@PAVVoicePending@AudioQueue@@@@QAE@XZ 0045c080 f i AudioQueue.obj
 0001:0005b0d0       ??1AudioPending@AudioQueue@@QAE@XZ 0045c0d0 f i AudioQueue.obj
 0001:0005b110       ??1VoicePending@AudioQueue@@QAE@XZ 0045c110 f i AudioQueue.obj
 0001:0005b150       ??_GVoicePending@AudioQueue@@QAEPAXI@Z 0045c150 f i AudioQueue.obj
 0001:0005b180       ?pop_front@?$deque@VAudioPending@AudioQueue@@V?$allocator@VAudioPending@AudioQueue@@@std@@@std@@QAEXXZ 0045c180 f i AudioQueue.obj
 0001:0005b220       ??0?$DynArray@PAVVoicePending@AudioQueue@@@@QAE@H@Z 0045c220 f i AudioQueue.obj
 0001:0005b250       ?SetSize@?$DynArrayGrowthRate@PAVVoicePending@AudioQueue@@$20AEC@@@QAEXH@Z 0045c250 f i AudioQueue.obj
 0001:0005b320       ?erase@?$deque@VAudioPending@AudioQueue@@V?$allocator@VAudioPending@AudioQueue@@@std@@@std@@QAE?AViterator@12@V312@0@Z 0045c320 f i AudioQueue.obj
 0001:0005b730       ?_Buyback@?$deque@VAudioPending@AudioQueue@@V?$allocator@VAudioPending@AudioQueue@@@std@@@std@@IAEXXZ 0045c730 f i AudioQueue.obj
 0001:0005b880       ?_Buyfront@?$deque@VAudioPending@AudioQueue@@V?$allocator@VAudioPending@AudioQueue@@@std@@@std@@IAEXXZ 0045c880 f i AudioQueue.obj
 0001:0005ba00       ?_Freefront@?$deque@VAudioPending@AudioQueue@@V?$allocator@VAudioPending@AudioQueue@@@std@@@std@@IAEXXZ 0045ca00 f i AudioQueue.obj
 0001:0005ba80       ??Eiterator@?$deque@VAudioPending@AudioQueue@@V?$allocator@VAudioPending@AudioQueue@@@std@@@std@@QAEAAV012@XZ 0045ca80 f i AudioQueue.obj
 0001:0005bab0       ?SetCapacity@?$DynArrayGrowthRate@PAVVoicePending@AudioQueue@@$20AEC@@@QAEXH@Z 0045cab0 f i AudioQueue.obj
 0001:0005bb50       ?pop_back@?$deque@VAudioPending@AudioQueue@@V?$allocator@VAudioPending@AudioQueue@@@std@@@std@@QAEXXZ 0045cb50 f i AudioQueue.obj
 0001:0005bca0       ??Giterator@?$deque@VAudioPending@AudioQueue@@V?$allocator@VAudioPending@AudioQueue@@@std@@@std@@QBEHABV012@@Z 0045cca0 f i AudioQueue.obj
 0001:0005bd30       ?_Freeback@?$deque@VAudioPending@AudioQueue@@V?$allocator@VAudioPending@AudioQueue@@@std@@@std@@IAEXXZ 0045cd30 f i AudioQueue.obj
 0001:0005bdc0       ?_Add@const_iterator@?$deque@VAudioPending@AudioQueue@@V?$allocator@VAudioPending@AudioQueue@@@std@@@std@@IAEXH@Z 0045cdc0 f i AudioQueue.obj
 0001:0005be60       ?copy_backward@std@@YA?AViterator@?$deque@VAudioPending@AudioQueue@@V?$allocator@VAudioPending@AudioQueue@@@std@@@1@V231@00@Z 0045ce60 f i AudioQueue.obj
 0001:0005c010       ?copy@std@@YA?AViterator@?$deque@VAudioPending@AudioQueue@@V?$allocator@VAudioPending@AudioQueue@@@std@@@1@V231@00@Z 0045d010 f i AudioQueue.obj
 0001:0005c1c0       ?_Construct@std@@YAXPAVAudioPending@AudioQueue@@ABV23@@Z 0045d1c0 f i AudioQueue.obj
 0001:0005c330       ??4AudioPending@AudioQueue@@QAEAAV01@ABV01@@Z 0045d330 f i AudioQueue.obj
 0001:0005c490       ??0AudioPending@AudioQueue@@QAE@ABV01@@Z 0045d490 f i AudioQueue.obj
 0001:0005c5d0       ??_GAudioPending@AudioQueue@@QAEPAXI@Z 0045d5d0 f i AudioQueue.obj
 0001:0005c600       ??Fiterator@?$deque@VAudioPending@AudioQueue@@V?$allocator@VAudioPending@AudioQueue@@@std@@@std@@QAEAAV012@XZ 0045d600 f i AudioQueue.obj
 0001:0005c630       ??0CaptainsVoice@@QAE@ABVParameterDB@@@Z 0045d630 f   CaptainsVoice.obj
 0001:0005c6b0       ?mSay@CaptainsVoice@@AAE_NW4eCaptainsVoiceTopic@@HPAVGameObject@@@Z 0045d6b0 f   CaptainsVoice.obj
 0001:0005c720       ?Say@CaptainsVoice@@QAE_NW4eCaptainsVoiceTopic@@PAVGameObject@@@Z 0045d720 f   CaptainsVoice.obj
 0001:0005c7a0       ?Say@CaptainsVoice@@QAE_NHPAVGameObject@@@Z 0045d7a0 f   CaptainsVoice.obj
 0001:0005c820       ?NewGame@CaptainsVoice@@SAXXZ 0045d820 f   CaptainsVoice.obj
 0001:0005c860       ?Init@ComputerVoice@@SAXXZ 0045d860 f   ComputerVoice.obj
 0001:0005c880       ?sEventID@ComputerVoice@@CAHW4Topic@1@@Z 0045d880 f   ComputerVoice.obj
 0001:0005c8c0       ?Say@ComputerVoice@@SAXW4Topic@1@PAVGameObject@@PBVRace@@@Z 0045d8c0 f   ComputerVoice.obj
 0001:0005c950       ?Say@ComputerVoice@@SAXW4Topic@1@ABVVector3@@HPBVRace@@@Z 0045d950 f   ComputerVoice.obj
 0001:0005c9d0       ?Say@ComputerVoice@@SAXW4Topic@1@@Z 0045d9d0 f   ComputerVoice.obj
 0001:0005ca50       ?Say@ComputerVoice@@SAXW4Topic@1@PBVRace@@@Z 0045da50 f   ComputerVoice.obj
 0001:0005cad0       ?Say@ComputerVoice@@SAXHPBVRace@@@Z 0045dad0 f   ComputerVoice.obj
 0001:0005cb20       ?Say@ComputerVoice@@SAXHPAVGameObject@@PBVRace@@@Z 0045db20 f   ComputerVoice.obj
 0001:0005cb80       ?Initialize@AudioDefault@@SAXXZ 0045db80 f   AudioManager.obj
 0001:0005ccf0       ?Open@AudioManager@@SA_NPAUHWND__@@@Z 0045dcf0 f   AudioManager.obj
 0001:0005cdf0       ?UpdateAudio@AudioManager@@QAEXM@Z 0045ddf0 f   AudioManager.obj
 0001:0005cf40       ?PauseAudio@AudioManager@@QAEXXZ 0045df40 f   AudioManager.obj
 0001:0005cfe0       ?UnpauseAudio@AudioManager@@QAEXXZ 0045dfe0 f   AudioManager.obj
 0001:0005d0d0       ?ForceUnpauseAudio@AudioManager@@QAEXXZ 0045e0d0 f   AudioManager.obj
 0001:0005d1a0       ?MuteSounds@AudioManager@@QAEXM@Z 0045e1a0 f   AudioManager.obj
 0001:0005d1c0       ?ClearAudio@AudioManager@@QAEXXZ 0045e1c0 f   AudioManager.obj
 0001:0005d240       ?Close@AudioManager@@SAXXZ 0045e240 f   AudioManager.obj
 0001:0005d330       ??0AudioManager@@IAE@PAUHWND__@@@Z 0045e330 f   AudioManager.obj
 0001:0005d8a0       ??1AudioManager@@QAE@XZ    0045e8a0 f   AudioManager.obj
 0001:0005d9e0       ?Commit3D@AudioManager@@QAEXXZ 0045e9e0 f   AudioManager.obj
 0001:0005da80       ?MoveAudio@AudioManager@@QAEXPAUHWND__@@@Z 0045ea80 f   AudioManager.obj
 0001:0005db80       ?mUpdate3DFactors@AudioManager@@IAEXMMM@Z 0045eb80 f   AudioManager.obj
 0001:0005dc70       ?mUpdateListener@AudioManager@@IAEXABVMatrix34@@M@Z 0045ec70 f   AudioManager.obj
 0001:0005de20       ?mLogDeviceCapabilities@AudioManager@@IAEXXZ 0045ee20 f   AudioManager.obj
 0001:0005e3b0       ??1FPUGuardian@@QAE@XZ     0045f3b0 f i AudioManager.obj
	0001:0005e3c0       ??0AudioMusic2D@@QAE@PBDJP6AXPAVAudioSound@@@Z@Z 0045f3c0 f   AudioMusic2D.obj
 0001:0005e3f0       ??_EAudioMusic2D@@UAEPAXI@Z 0045f3f0 f i AudioMusic2D.obj
 0001:0005e3f0       ??_GAudioMusic2D@@UAEPAXI@Z 0045f3f0 f i AudioMusic2D.obj
 0001:0005e420       ??1AudioMusic2D@@UAE@XZ    0045f420 f i AudioMusic2D.obj
 0001:0005e4e0       ?UpdateSounds@AudioSound@@SAXM@Z 0045f4e0 f   AudioSound.obj
 0001:0005e550       ?UpdateVolume@AudioSound@@SAXXZ 0045f550 f   AudioSound.obj
 0001:0005e5c0       ?PauseSounds@AudioSound@@SAXXZ 0045f5c0 f   AudioSound.obj
 0001:0005e630       ?UnpauseSounds@AudioSound@@SAXXZ 0045f630 f   AudioSound.obj
 0001:0005e6a0       ?ClearSounds@AudioSound@@SAXXZ 0045f6a0 f   AudioSound.obj
	0001:0005e710       ??0AudioSound@@IAE@PBDJW4eAudioPriority@@W4eAudioVolume@@P6AXPAV0@@Z@Z 0045f710 f   AudioSound.obj
	0001:0005e840       ?mAddSoundToMasterList@AudioSound@@IAEXXZ 0045f840 f   AudioSound.obj
 0001:0005e8a0       ??1AudioSound@@UAE@XZ      0045f8a0 f   AudioSound.obj
 0001:0005e980       ?mPause@AudioSound@@MAEXXZ 0045f980 f   AudioSound.obj
 0001:0005ea20       ?mGetCurrentVolume@AudioSound@@IBEMXZ 0045fa20 f   AudioSound.obj
 0001:0005ea60       ?mSetVolume@AudioSound@@MAEXXZ 0045fa60 f   AudioSound.obj
 0001:0005eb30       ??_EAudioSound@@UAEPAXI@Z  0045fb30 f i AudioSound.obj
 0001:0005eb30       ??_GAudioSound@@UAEPAXI@Z  0045fb30 f i AudioSound.obj
 0001:0005eb60       ?sSoundBufferCallback@AudioSound2D@@SAXPAUIDirectSoundBuffer@@PAX@Z 0045fb60 f   AudioSound2D.obj
 0001:0005eb90       ?mInit@AudioSound2D@@IAEXPAUIDirectSoundBuffer@@@Z 0045fb90 f   AudioSound2D.obj
 0001:0005ec50       ??0AudioSound2D@@QAE@PBDJW4eAudioPriority@@W4eAudioVolume@@P6AXPAVAudioSound@@@Z@Z 0045fc50 f   AudioSound2D.obj
 0001:0005ecd0       ??1AudioSound2D@@UAE@XZ    0045fcd0 f   AudioSound2D.obj
 0001:0005ed90       ?mUpdate@AudioSound2D@@MAEXM@Z 0045fd90 f   AudioSound2D.obj
 0001:0005ee70       ?mUnpause@AudioSound2D@@MAEXXZ 0045fe70 f   AudioSound2D.obj
 0001:0005ef60       ??_GAudioSound2D@@UAEPAXI@Z 0045ff60 f i AudioSound2D.obj
 0001:0005ef60       ??_EAudioSound2D@@UAEPAXI@Z 0045ff60 f i AudioSound2D.obj
 0001:0005efd0       ?Update@AudioSound3D@@SAXM@Z 0045ffd0 f   AudioSound3D.obj
 0001:0005f1e0       ??0AudioSound3D@@IAE@PBDJW4eAudioPriority@@MM@Z 004601e0 f   AudioSound3D.obj
 0001:0005f340       ?sSoundBufferCallback@AudioSound3D@@KAXPAUIDirectSoundBuffer@@PAX@Z 00460340 f   AudioSound3D.obj
 0001:0005f370       ?mInitSound@AudioSound3D@@IAEXPAUIDirectSoundBuffer@@@Z 00460370 f   AudioSound3D.obj
 0001:0005f500       ?Clear@AudioSound3D@@SAXXZ 00460500 f   AudioSound3D.obj
 0001:0005f580       ??1AudioSound3D@@MAE@XZ    00460580 f   AudioSound3D.obj
 0001:0005f680       ?mUpdate@AudioSound3D@@MAEXM@Z 00460680 f   AudioSound3D.obj
 0001:0005f690       ?mPause@AudioSound3D@@MAEXXZ 00460690 f   AudioSound3D.obj
 0001:0005f6e0       ?mUnpause@AudioSound3D@@MAEXXZ 004606e0 f   AudioSound3D.obj
 0001:0005f6f0       ?mPlay3D@AudioSound3D@@IAEXXZ 004606f0 f   AudioSound3D.obj
 0001:0005f850       ?mStop3D@AudioSound3D@@IAEXXZ 00460850 f   AudioSound3D.obj
 0001:0005f8d0       ?mSetVolume@AudioSound3D@@MAEXXZ 004608d0 f   AudioSound3D.obj
 0001:0005f950       ?Terminate@AudioSound3D@@QAEXXZ 00460950 f   AudioSound3D.obj
 0001:0005f990       ??1?$DynArray@PAVAudioSound3D@@@@QAE@XZ 00460990 f i AudioSound3D.obj
 0001:0005f9e0       ??_EAudioSound3D@@MAEPAXI@Z 004609e0 f i AudioSound3D.obj
 0001:0005f9e0       ??_GAudioSound3D@@MAEPAXI@Z 004609e0 f i AudioSound3D.obj
 0001:0005fa10       ??0?$DynArray@PAVAudioSound3D@@@@QAE@H@Z 00460a10 f i AudioSound3D.obj
 0001:0005faf0       ?AddObject@AudioSound3DAmbient@@SAXPBVGameObject@@@Z 00460af0 f   AudioSound3DAmbient.obj
 0001:0005fc90       ??0AudioSound3DAmbient@@IAE@PBDW4eAudioPriority@@PBVGameObject@@@Z 00460c90 f   AudioSound3DAmbient.obj
 0001:0005fe80       ??1AudioSound3DAmbient@@MAE@XZ 00460e80 f   AudioSound3DAmbient.obj
 0001:0005ff60       ?mAddObject@AudioSound3DAmbient@@IAEXPBVGameObject@@@Z 00460f60 f   AudioSound3DAmbient.obj
 0001:000600e0       ?mComputePositionAndVelocityAndVolume@AudioSound3DAmbient@@MAEXM@Z 004610e0 f   AudioSound3DAmbient.obj
 0001:000603a0       ?mSetDirectSoundAttributes@AudioSound3DAmbient@@MAEXXZ 004613a0 f   AudioSound3DAmbient.obj
 0001:000604c0       ??_EAudioSound3DAmbient@@MAEPAXI@Z 004614c0 f i AudioSound3DAmbient.obj
 0001:000604c0       ??_GAudioSound3DAmbient@@MAEPAXI@Z 004614c0 f i AudioSound3DAmbient.obj
 0001:000604f0       ??0?$Range@H@@QAE@MMMMMMH@Z 004614f0 f i AudioSound3DAmbient.obj
 0001:000605d0       ?Insert@?$Range@H@@QAEXHMMM@Z 004615d0 f i AudioSound3DAmbient.obj
 0001:00060680       ?Done_Inserting@?$Range@H@@QAEXXZ 00461680 f i AudioSound3DAmbient.obj
 0001:000606d0       ?CreateSound@AudioSound3DEntity@@SAPAV1@PBDJW4eAudioPriority@@PBVEntity@@MM@Z 004616d0 f   AudioSound3DEntity.obj
 0001:00060830       ??0AudioSound3DEntity@@IAE@PBDJW4eAudioPriority@@HMM@Z 00461830 f   AudioSound3DEntity.obj
 0001:00060870       ?mComputePositionAndVelocityAndVolume@AudioSound3DEntity@@MAEXM@Z 00461870 f   AudioSound3DEntity.obj
 0001:000609c0       ?mSetDirectSoundAttributes@AudioSound3DEntity@@MAEXXZ 004619c0 f   AudioSound3DEntity.obj
 0001:00060a90       ??_EAudioSound3DEntity@@MAEPAXI@Z 00461a90 f i AudioSound3DEntity.obj
 0001:00060a90       ??_GAudioSound3DEntity@@MAEPAXI@Z 00461a90 f i AudioSound3DEntity.obj
 0001:00060ac0       ??1AudioSound3DEntity@@MAE@XZ 00461ac0 f i AudioSound3DEntity.obj
 0001:00060ad0       ??0AudioStream2D@@QAE@PBDJW4eAudioPriority@@W4eAudioVolume@@P6AXPAVAudioSound@@@Z@Z 00461ad0 f   AudioStream2D.obj
 0001:00060b10       ??1AudioStream2D@@UAE@XZ   00461b10 f   AudioStream2D.obj
 0001:00060b80       ?SetCalledFromScript@AudioStream2D@@QAEXPAVscript@@@Z 00461b80 f   AudioStream2D.obj
 0001:00060ba0       ??_EAudioStream2D@@UAEPAXI@Z 00461ba0 f i AudioStream2D.obj
 0001:00060ba0       ??_GAudioStream2D@@UAEPAXI@Z 00461ba0 f i AudioStream2D.obj
 0001:00060bd0       ?LastError@DSError@@SAJJ@Z 00461bd0 f   DSError.obj
 0001:00060cc0       ?Init@SoundBuffer@@SAXXZ   00461cc0 f   SoundBuffer.obj
 0001:00060d40       ?Clear@SoundBuffer@@SAXXZ  00461d40 f   SoundBuffer.obj
 0001:00060e00       ?RequestBuffer@SoundBuffer@@SAXPBDHPAXP6AXPAUIDirectSoundBuffer@@1@Z_N4@Z 00461e00 f   SoundBuffer.obj
 0001:00060fc0       ?PumpCallbacks@SoundBuffer@@SAXXZ 00461fc0 f   SoundBuffer.obj
 0001:00060fd0       ?Remove@SoundBuffer@@SAXPAX@Z 00461fd0 f   SoundBuffer.obj
 0001:00060fe0       ?sDuplicateBuffer@SoundBuffer@@KAPAUIDirectSoundBuffer@@PBD@Z 00461fe0 f   SoundBuffer.obj
 0001:00061260       ??0SoundBuffer@@IAE@PBDH@Z 00462260 f   SoundBuffer.obj
 0001:00061460       ?mCreateBuffer@SoundBuffer@@IAEPAUIDirectSoundBuffer@@KPAVCWaveSoundRead@@M@Z 00462460 f   SoundBuffer.obj
 0001:000615a0       ?sOpenWaveFile@SoundBuffer@@KA_NPBDPAVCWaveSoundRead@@@Z 004625a0 f   SoundBuffer.obj
 0001:00061680       ?sCloseWaveFile@SoundBuffer@@KA_NPAVCWaveSoundRead@@@Z 00462680 f   SoundBuffer.obj
 0001:000616e0       ?sFillBuffer@SoundBuffer@@KA_NPAUIDirectSoundBuffer@@PAVCWaveSoundRead@@PAH@Z 004626e0 f   SoundBuffer.obj
 0001:00061860       ??1?$DynArray@VSoundDesc@@@@QAE@XZ 00462860 f i SoundBuffer.obj
 0001:000618b0       ??0SoundCache@@QAE@XZ      004628b0 f i SoundBuffer.obj
 0001:000618e0       ??1SoundCache@@QAE@XZ      004628e0 f i SoundBuffer.obj
 0001:00061910       ?Hash@FastHashStandardHasher@@QBEHPBD@Z 00462910 f i SoundBuffer.obj
 0001:00061940       ??_GSoundEntry@@QAEPAXI@Z  00462940 f i SoundBuffer.obj
 0001:00061980       ??0?$DynArray@VSoundDesc@@@@QAE@H@Z 00462980 f i SoundBuffer.obj
 0001:000619b0       ?Remove@?$HashFast@VSoundEntry@@PBDVFastHashStandardHasher@@$0BAA@@@QAEPAVSoundEntry@@PBD@Z 004629b0 f i SoundBuffer.obj
 0001:00061aa0       ??0CWaveSoundRead@@QAE@XZ  00462aa0 f   wavread.obj
 0001:00061ac0       ??1CWaveSoundRead@@QAE@XZ  00462ac0 f   wavread.obj
 0001:00061b90       ?Init@CWaveSoundRead@@SAXXZ 00462b90 f   wavread.obj
 0001:00061bb0       ?Cleanup@CWaveSoundRead@@SAXXZ 00462bb0 f   wavread.obj
 0001:00061bd0       ?Open@CWaveSoundRead@@QAEJPAD@Z 00462bd0 f   wavread.obj
 0001:00062190       ?Reset@CWaveSoundRead@@QAEJXZ 00463190 f   wavread.obj
 0001:000622b0       ?Read@CWaveSoundRead@@QAEJIPAEPAI@Z 004632b0 f   wavread.obj
 0001:00062450       ?Close@CWaveSoundRead@@QAEJXZ 00463450 f   wavread.obj
 0001:000624c0       ?Advance@CWaveSoundRead@@QAEJI@Z 004634c0 f   wavread.obj
 0001:000625c0       ??1AutoMutex@@QAE@XZ       004635c0 f i wavread.obj
 0001:000625f0       ?PostLoad@JukeBox@@UAEXXZ  004635f0 f   Jukebox.obj
 0001:00062600       ?Simulate@JukeBox@@UAEXM@Z 00463600 f   Jukebox.obj
	0001:00062640       ?Play@JukeBox@@QAEXXZ      00463640 f   Jukebox.obj
	0001:00062660       ?Stop@JukeBox@@QAEXXZ      00463660 f   Jukebox.obj	
	0001:00062680       ?mStartNewTrack@JukeBox@@IAEXXZ 00463680 f   Jukebox.obj
 0001:00062730       ?sAudioDeleted@JukeBox@@KAXPAVAudioSound@@@Z 00463730 f   Jukebox.obj
 0001:00062750       ?BinkConvertD3DFormatToBinkFormat@@YAHH@Z 00463750 f   binkfuncs.obj
 0001:000627a0       ?BinkGetBytesPerPixel@@YAHH@Z 004637a0 f   binkfuncs.obj
 0001:000627f0       ?NextBinkFrame@@YAXPAUBINK@@_NPAH1@Z 004637f0 f   binkfuncs.obj
 0001:00062920       ?NextBinkFrame@@YAXPAUBINK@@PAUHDC__@@HHPAHPAE@Z 00463920 f   binkfuncs.obj
 0001:000629f0       ?BinkGetSurfaceType@@YAHXZ 004639f0 f   binkfuncs.obj
 0001:00062a80       ?StartUpdateThread@BinkThread@@SAXXZ 00463a80 f   BinkThread.obj
 0001:00062af0       ?StopUpdateThread@BinkThread@@SAXXZ 00463af0 f   BinkThread.obj
 0001:00062bc0       ?sUpdateEventList@BinkThread@@KAXXZ 00463bc0 f   BinkThread.obj
 0001:00062c00       ?sBufferBlit@BinkThread@@KAXXZ 00463c00 f   BinkThread.obj
 0001:00062c90       ?sStreamThreadFunction@BinkThread@@KGKPAX@Z 00463c90 f   BinkThread.obj
 0001:00062e90       ?StartBink@BinkThread@@SAXPBD@Z 00463e90 f   BinkThread.obj
 0001:000632a0       ?StopBink@BinkThread@@SAXXZ 004642a0 f   BinkThread.obj
 0001:00063340       ?BinkPlaying@BinkThread@@SA_NXZ 00464340 f   BinkThread.obj
 0001:00063350       ?BlitToBlackBackground@BinkThread@@SAXABVST3D_Rect@@@Z 00464350 f   BinkThread.obj
 0001:00063740       ??0Explosion@@QAE@PAVExplosionClass@@@Z 00464740 f   Explosion.obj
 0001:000637f0       ??1Explosion@@UAE@XZ       004647f0 f   Explosion.obj
 0001:00063850       ?Init@Explosion@@UAEXABVMatrix34@@M@Z 00464850 f   Explosion.obj
 0001:00063880       ?Simulate@Explosion@@UAEXM@Z 00464880 f   Explosion.obj
 0001:000638c0       ?Submit@Explosion@@UAEXPAVST3D_Camera@@@Z 004648c0 f   Explosion.obj
 0001:000638d0       ?SaveAll@Explosion@@SA_NAAVFileWriter@@@Z 004648d0 f   Explosion.obj
 0001:00063930       ?LoadAll@Explosion@@SA_NAAVFileReader@@@Z 00464930 f   Explosion.obj
 0001:00063a40       ?Save@Explosion@@UAE_NAAVFileWriter@@@Z 00464a40 f   Explosion.obj
 0001:00063b20       ?Load@Explosion@@UAE_NAAVFileReader@@@Z 00464b20 f   Explosion.obj
 0001:00063b50       ?Simulate@ExplosionFeature@@EAEXM@Z 00464b50 f i Explosion.obj
 0001:00063ba0       ?Render@ExplosionFeature@@EAEXPAVST3D_Camera@@_N@Z 00464ba0 f i Explosion.obj
 0001:00063be0       ?PostRun@ExplosionFeature@@EAEXXZ 00464be0 f i Explosion.obj
 0001:00063c10       ?DoExpire@Entity@@UAEXXZ   00464c10 f i Explosion.obj
	 0001:00063c20       ?IsPlanet@Entity@@UBE_NXZ  00464c20 f i Explosion.obj
	 0001:00063c30       ?IsEvolver@Entity@@UBE_NXZ 00464c30 f i Explosion.obj
	 0001:00063c40       ?IsTradingStation@Entity@@UBE_NXZ 00464c40 f i Explosion.obj
	 0001:00063c50       ?IsMineArray@Entity@@UBE_NXZ 00464c50 f i Explosion.obj
 0001:00063c60       ?ShotDirectorRadius@Entity@@UBEMXZ 00464c60 f i Explosion.obj
 0001:00063c70       ??_EExplosion@@UAEPAXI@Z   00464c70 f i Explosion.obj
 0001:00063c70       ??_GExplosion@@UAEPAXI@Z   00464c70 f i Explosion.obj
 0001:00063ce0       ?Find@ExplosionClass@@SAPAV1@ABVcPrjID@@@Z 00464ce0 f   ExplosionClass.obj
 0001:00063df0       ?Clean@ExplosionClass@@SAXXZ 00464df0 f   ExplosionClass.obj
 0001:00063f10       ??0ExplosionClass@@QAE@XZ  00464f10 f   ExplosionClass.obj
 0001:00063fb0       ??0ExplosionClass@@QAE@PAV0@ABVParameterDB@@@Z 00464fb0 f   ExplosionClass.obj
 0001:000640b0       ??1ExplosionClass@@UAE@XZ  004650b0 f   ExplosionClass.obj
	0001:000640d0       ?BuildClass@ExplosionClass@@UAEPAV1@ABVParameterDB@@@Z 004650d0 f   ExplosionClass.obj
	0001:00064140       ?Build@ExplosionClass@@UAEPAVExplosion@@ABVMatrix34@@M@Z 00465140 f   ExplosionClass.obj
 0001:000641b0       ??_GExplosionClass@@UAEPAXI@Z 004651b0 f i ExplosionClass.obj
 0001:000641b0       ??_EExplosionClass@@UAEPAXI@Z 004651b0 f i ExplosionClass.obj
 0001:000641e0       ?insert@?$vector@PAVExplosionClass@@V?$allocator@PAVExplosionClass@@@std@@@std@@QAEXPAPAVExplosionClass@@IABQAV3@@Z 004651e0 f i ExplosionClass.obj
 0001:000643f0       ??0FireballExplosion@@QAE@PAVFireballExplosionClass@@@Z 004653f0 f   FireballExplosion.obj
 0001:00064460       ??1FireballExplosion@@UAE@XZ 00465460 f   FireballExplosion.obj
 0001:00064470       ?Init@FireballExplosion@@UAEXABVMatrix34@@M@Z 00465470 f   FireballExplosion.obj
 0001:00064510       ?Simulate@FireballExplosion@@UAEXM@Z 00465510 f   FireballExplosion.obj
 0001:000646d0       ?Submit@FireballExplosion@@UAEXPAVST3D_Camera@@@Z 004656d0 f   FireballExplosion.obj
 0001:00064880       ?Save@FireballExplosion@@UAE_NAAVFileWriter@@@Z 00465880 f   FireballExplosion.obj
 0001:000648c0       ?Load@FireballExplosion@@UAE_NAAVFileReader@@@Z 004658c0 f   FireballExplosion.obj
 0001:00064910       ??_EFireballExplosion@@UAEPAXI@Z 00465910 f i FireballExplosion.obj
 0001:00064910       ??_GFireballExplosion@@UAEPAXI@Z 00465910 f i FireballExplosion.obj
	0001:00064940       ?Multiply@@YAXAAVMatrix34@@ABV1@1@Z 00465940 f i FireballExplosion.obj
 0001:00064ab0       ??0FireballExplosionClass@@QAE@XZ 00465ab0 f   FireballExplosionClass.obj
 0001:00064b20       ??0FireballExplosionClass@@QAE@PAV0@ABVParameterDB@@@Z 00465b20 f   FireballExplosionClass.obj
 0001:00064c00       ??1FireballExplosionClass@@UAE@XZ 00465c00 f   FireballExplosionClass.obj
 0001:00064c10       ?BuildClass@FireballExplosionClass@@UAEPAVExplosionClass@@ABVParameterDB@@@Z 00465c10 f   FireballExplosionClass.obj
 0001:00064c80       ?Build@FireballExplosionClass@@UAEPAVExplosion@@ABVMatrix34@@M@Z 00465c80 f   FireballExplosionClass.obj
 0001:00064cf0       ??_GFireballExplosionClass@@UAEPAXI@Z 00465cf0 f i FireballExplosionClass.obj
 0001:00064cf0       ??_EFireballExplosionClass@@UAEPAXI@Z 00465cf0 f i FireballExplosionClass.obj
 0001:00064d20       ??0OmegaExplosion@@QAE@PAVOmegaExplosionClass@@@Z 00465d20 f   OmegaExplosion.obj
 0001:00064d40       ??1OmegaExplosion@@UAE@XZ  00465d40 f   OmegaExplosion.obj
 0001:00064d50       ?ConstructGeometry@OmegaExplosion@@MAEXXZ 00465d50 f   OmegaExplosion.obj
 0001:00065120       ?Simulate@OmegaExplosion@@UAEXM@Z 00466120 f   OmegaExplosion.obj
 0001:00065230       ?Submit@OmegaExplosion@@UAEXPAVST3D_Camera@@@Z 00466230 f   OmegaExplosion.obj
 0001:000652c0       ??_EOmegaExplosion@@UAEPAXI@Z 004662c0 f i OmegaExplosion.obj
 0001:000652c0       ??_GOmegaExplosion@@UAEPAXI@Z 004662c0 f i OmegaExplosion.obj
 0001:00065320       ??0OmegaExplosionClass@@QAE@XZ 00466320 f   OmegaExplosionClass.obj
 0001:00065360       ??0OmegaExplosionClass@@QAE@PAV0@ABVParameterDB@@@Z 00466360 f   OmegaExplosionClass.obj
 0001:000653f0       ??1OmegaExplosionClass@@UAE@XZ 004663f0 f   OmegaExplosionClass.obj
 0001:00065400       ?BuildClass@OmegaExplosionClass@@UAEPAVExplosionClass@@ABVParameterDB@@@Z 00466400 f   OmegaExplosionClass.obj
 0001:000654a0       ?Build@OmegaExplosionClass@@UAEPAVExplosion@@ABVMatrix34@@M@Z 004664a0 f   OmegaExplosionClass.obj
 0001:00065510       ??_EOmegaExplosionClass@@UAEPAXI@Z 00466510 f i OmegaExplosionClass.obj
 0001:00065510       ??_GOmegaExplosionClass@@UAEPAXI@Z 00466510 f i OmegaExplosionClass.obj
 0001:00065540       ??0ShockwaveCannon@@QAE@PAVShockwaveCannonClass@@@Z 00466540 f   ShockwaveCannon.obj
 0001:00065560       ?Init@ShockwaveCannon@@UAEXABVMatrix34@@M@Z 00466560 f   ShockwaveCannon.obj
 0001:00065590       ?SetCentralDirection@ShockwaveCannon@@QAEXABVVector3@@@Z 00466590 f   ShockwaveCannon.obj
 0001:000656b0       ?Simulate@ShockwaveCannon@@UAEXM@Z 004666b0 f   ShockwaveCannon.obj
 0001:00065990       ?Save@ShockwaveCannon@@UAE_NAAVFileWriter@@@Z 00466990 f   ShockwaveCannon.obj
 0001:00065a10       ?Load@ShockwaveCannon@@UAE_NAAVFileReader@@@Z 00466a10 f   ShockwaveCannon.obj
 0001:00065a80       ?Hit@ShockwaveCannon@@QAEXPAVGameObject@@M@Z 00466a80 f   ShockwaveCannon.obj
 0001:00065c10       ??_EShockwaveCannon@@UAEPAXI@Z 00466c10 f i ShockwaveCannon.obj
 0001:00065c10       ??_GShockwaveCannon@@UAEPAXI@Z 00466c10 f i ShockwaveCannon.obj
 0001:00065c40       ??1ShockwaveCannon@@UAE@XZ 00466c40 f i ShockwaveCannon.obj
 0001:00065c80       ??0ShockwaveCannonClass@@QAE@XZ 00466c80 f   ShockwaveCannonClass.obj
 0001:00065cc0       ??0ShockwaveCannonClass@@QAE@PAV0@ABVParameterDB@@@Z 00466cc0 f   ShockwaveCannonClass.obj
 0001:00065e00       ??1ShockwaveCannonClass@@UAE@XZ 00466e00 f   ShockwaveCannonClass.obj
 0001:00065e10       ?BuildClass@ShockwaveCannonClass@@UAEPAVExplosionClass@@ABVParameterDB@@@Z 00466e10 f   ShockwaveCannonClass.obj
 0001:00065e80       ?Build@ShockwaveCannonClass@@UAEPAVExplosion@@ABVMatrix34@@M@Z 00466e80 f   ShockwaveCannonClass.obj
 0001:00065ef0       ??_GShockwaveCannonClass@@UAEPAXI@Z 00466ef0 f i ShockwaveCannonClass.obj
 0001:00065ef0       ??_EShockwaveCannonClass@@UAEPAXI@Z 00466ef0 f i ShockwaveCannonClass.obj
 0001:00065f20       ??0ShockwaveExplosion@@QAE@PAVShockwaveExplosionClass@@@Z 00466f20 f   ShockwaveExplosion.obj
 0001:00065f60       ??1ShockwaveExplosion@@UAE@XZ 00466f60 f   ShockwaveExplosion.obj
 0001:00065fd0       ?Init@ShockwaveExplosion@@UAEXABVMatrix34@@M@Z 00466fd0 f   ShockwaveExplosion.obj
 0001:00066020       ?ConstructGeometry@ShockwaveExplosion@@MAEXXZ 00467020 f   ShockwaveExplosion.obj
 0001:00066340       ?Simulate@ShockwaveExplosion@@UAEXM@Z 00467340 f   ShockwaveExplosion.obj
 0001:00066610       ?AdjustLighting@ShockwaveExplosion@@QAEXMM@Z 00467610 f   ShockwaveExplosion.obj
 0001:000666c0       ?Submit@ShockwaveExplosion@@UAEXPAVST3D_Camera@@@Z 004676c0 f   ShockwaveExplosion.obj
 0001:00066730       ?GetCurrentRadius@ShockwaveExplosion@@QAEMXZ 00467730 f   ShockwaveExplosion.obj
 0001:00066750       ?Save@ShockwaveExplosion@@UAE_NAAVFileWriter@@@Z 00467750 f   ShockwaveExplosion.obj
 0001:000667b0       ?Load@ShockwaveExplosion@@UAE_NAAVFileReader@@@Z 004677b0 f   ShockwaveExplosion.obj
 0001:00066830       ??_EShockwaveExplosion@@UAEPAXI@Z 00467830 f i ShockwaveExplosion.obj
 0001:00066830       ??_GShockwaveExplosion@@UAEPAXI@Z 00467830 f i ShockwaveExplosion.obj
 0001:00066890       ??0ShockwaveExplosionClass@@QAE@XZ 00467890 f   ShockwaveExplosionClass.obj
 0001:000669b0       ??0ShockwaveExplosionClass@@QAE@PAV0@ABVParameterDB@@@Z 004679b0 f   ShockwaveExplosionClass.obj
 0001:00066c00       ??1ShockwaveExplosionClass@@UAE@XZ 00467c00 f   ShockwaveExplosionClass.obj
 0001:00066ca0       ?BuildClass@ShockwaveExplosionClass@@UAEPAVExplosionClass@@ABVParameterDB@@@Z 00467ca0 f   ShockwaveExplosionClass.obj
 0001:00066d10       ?Build@ShockwaveExplosionClass@@UAEPAVExplosion@@ABVMatrix34@@M@Z 00467d10 f   ShockwaveExplosionClass.obj
 0001:00066d80       ??_GShockwaveExplosionClass@@UAEPAXI@Z 00467d80 f i ShockwaveExplosionClass.obj
 0001:00066d80       ??_EShockwaveExplosionClass@@UAEPAXI@Z 00467d80 f i ShockwaveExplosionClass.obj
 0001:00066db0       ?Simulate@BeeColony@@UAEXM@Z 00467db0 f   BeeColony.obj
 0001:00067100       ?ConstrainLocation@Bee@BeeColony@@QBEXPAVVector3@@@Z 00468100 f   BeeColony.obj
 0001:000672b0       ?UpdateBeeState@BeeColony@@IAE_NAAViterator@?$_Tree@HU?$pair@$$CBHVBee@BeeColony@@@std@@U_Kfn@?$multimap@HVBee@BeeColony@@U?$less@H@std@@V?$allocator@VBee@BeeColony@@@4@@2@U?$less@H@2@V?$allocator@VBee@BeeColony@@@2@@std@@_N@Z 004682b0 f   BeeColony.obj
 0001:00067420       ?DetermineBeeDestination@BeeColony@@IAE?AVVector3@@AAVBee@1@@Z 00468420 f   BeeColony.obj
 0001:00067590       ?DetermineBeePosition@BeeColony@@IAE?AVVector3@@ABVBee@1@ABV2@MPA_N@Z 00468590 f   BeeColony.obj
 0001:000678a0       ?Render@BeeColony@@UAEXPAVST3D_Camera@@_N@Z 004688a0 f   BeeColony.obj
 0001:00067980       ?PostRun@BeeColony@@UAEXXZ 00468980 f   BeeColony.obj
 0001:00067a30       ?RecallBees@BeeColony@@QAEXH@Z 00468a30 f   BeeColony.obj
 0001:00067ae0       ?SetBeesPaused@BeeColony@@QAEXH_N@Z 00468ae0 f   BeeColony.obj
 0001:00067b80       ?NotifyClosingDoors@BeeColony@@QAEXH@Z 00468b80 f   BeeColony.obj
 0001:00067c20       ?GetHomePosition@BeeColony@@IAE?AVVector3@@ABVBee@1@@Z 00468c20 f   BeeColony.obj
 0001:00067c70       ?GetConstrainedOutsidePosition@BeeColony@@IAE?AVVector3@@ABVBee@1@@Z 00468c70 f   BeeColony.obj
 0001:00067d50       ?ShouldDrawBee@BeeColony@@IAE_NABVBee@1@@Z 00468d50 f   BeeColony.obj
 0001:00067db0       ?GetOwner@Bee@BeeColony@@QBEPAVGameObject@@XZ 00468db0 f   BeeColony.obj
 0001:00067de0       ?IsBeeValid@BeeColony@@IAE_NABVBee@1@@Z 00468de0 f   BeeColony.obj
 0001:00067e50       ??0Vector3@@QAE@MMM@Z      00468e50 f i BeeColony.obj
	0001:00067e70       ?TransformPoint@@YAXAAVVector3@@ABV1@ABVMatrix34@@@Z 00468e70 f i BeeColony.obj
 0001:00067ed0       ?erase@?$_Tree@HU?$pair@$$CBHVBee@BeeColony@@@std@@U_Kfn@?$multimap@HVBee@BeeColony@@U?$less@H@std@@V?$allocator@VBee@BeeColony@@@4@@2@U?$less@H@2@V?$allocator@VBee@BeeColony@@@2@@std@@QAE?AViterator@12@V312@@Z 00468ed0 f i BeeColony.obj
 0001:00068350       ?_Min@?$_Tree@HU?$pair@$$CBHVBee@BeeColony@@@std@@U_Kfn@?$multimap@HVBee@BeeColony@@U?$less@H@std@@V?$allocator@VBee@BeeColony@@@4@@2@U?$less@H@2@V?$allocator@VBee@BeeColony@@@2@@std@@KAPAU_Node@12@PAU312@@Z 00469350 f i BeeColony.obj
 0001:00068370       ?_Inc@const_iterator@?$_Tree@HU?$pair@$$CBHVBee@BeeColony@@@std@@U_Kfn@?$multimap@HVBee@BeeColony@@U?$less@H@std@@V?$allocator@VBee@BeeColony@@@4@@2@U?$less@H@2@V?$allocator@VBee@BeeColony@@@2@@std@@QAEXXZ 00469370 f i BeeColony.obj
 0001:000683c0       ?_Erase@?$_Tree@HU?$pair@$$CBHVBee@BeeColony@@@std@@U_Kfn@?$multimap@HVBee@BeeColony@@U?$less@H@std@@V?$allocator@VBee@BeeColony@@@4@@2@U?$less@H@2@V?$allocator@VBee@BeeColony@@@2@@std@@IAEXPAU_Node@12@@Z 004693c0 f i BeeColony.obj
 0001:00068410       ??1?$pair@$$CBHVBee@BeeColony@@@std@@QAE@XZ 00469410 f i BeeColony.obj
 0001:00068490       ?Simulate@BuildingEffect@@UAEXM@Z 00469490 f   BuildingEffect.obj
 0001:00068660       ?Render@BuildingEffect@@UAEXPAVST3D_Camera@@_N@Z 00469660 f   BuildingEffect.obj
 0001:000688a0       ?PostRun@BuildingEffect@@UAEXXZ 004698a0 f   BuildingEffect.obj
 0001:00068960       ?StartConstruction@BuildingEffect@@SA?BHPBVGameObject@@PBVGameObjectClass@@ABVMatrix34@@M@Z 00469960 f   BuildingEffect.obj
 0001:00068b00       ?StartDeconstruction@BuildingEffect@@SA?BHPBVGameObject@@PBVGameObjectClass@@ABVMatrix34@@M@Z 00469b00 f   BuildingEffect.obj
 0001:00068cc0       ?UpdateConstruction@BuildingEffect@@SAXHM@Z 00469cc0 f   BuildingEffect.obj
 0001:00068db0       ?CancelConstruction@BuildingEffect@@SAXHM@Z 00469db0 f   BuildingEffect.obj
 0001:00068f20       ?StopConstruction@BuildingEffect@@SAXH@Z 00469f20 f   BuildingEffect.obj
 0001:00069080       ?SafeDestroyConstruction@BuildingEffect@@SAXPAHPBVGameObject@@PBD@Z 0046a080 f   BuildingEffect.obj
 0001:00069150       ?GetRandomWeldLocation@BuildingEffect@@SA?AVVector3@@H@Z 0046a150 f   BuildingEffect.obj
 0001:000691d0       ?InitializeConstructionInfo@BuildingEffect@@KA?BHAAVInfo@1@PBVGameObjectClass@@ABVMatrix34@@@Z 0046a1d0 f   BuildingEffect.obj
 0001:000692f0       ?UpdateDeconstruction@BuildingEffect@@KAXAAVInfo@1@M@Z 0046a2f0 f   BuildingEffect.obj
 0001:00069380       ?AddNewWeldingEdges@BuildingEffect@@KAXAAVInfo@1@QAVST3D_Node@@AAH2@Z 0046a380 f   BuildingEffect.obj
 0001:000696a0       ?AddWeldingEdge@BuildingEffect@@KAXAAVInfo@1@ABVWeldingEdgeKey@1@ABVWeldingEdge@1@@Z 0046a6a0 f   BuildingEffect.obj
 0001:00069810       ??1?$map@HV?$auto_ptr@VInfo@BuildingEffect@@@std@@U?$less@H@2@V?$allocator@V?$auto_ptr@VInfo@BuildingEffect@@@std@@@2@@std@@QAE@XZ 0046a810 f i BuildingEffect.obj
 0001:00069910       ??1?$pair@$$CBHV?$auto_ptr@VInfo@BuildingEffect@@@std@@@std@@QAE@XZ 0046a910 f i BuildingEffect.obj
 0001:00069a30       ??1CraftInstance@@UAE@XZ   0046aa30 f i BuildingEffect.obj
 0001:00069a40       ??1?$set@VWeldingEdgeKey@BuildingEffect@@U?$less@VWeldingEdgeKey@BuildingEffect@@@std@@V?$allocator@VWeldingEdgeKey@BuildingEffect@@@4@@std@@QAE@XZ 0046aa40 f i BuildingEffect.obj
 0001:00069b30       ??1WeldingEdge@BuildingEffect@@QAE@XZ 0046ab30 f i BuildingEffect.obj
 0001:00069b40       ??MWeldingEdgeKey@BuildingEffect@@QBE?B_NABV01@@Z 0046ab40 f i BuildingEffect.obj
 0001:00069b90       ??1?$_Tree@VWeldingEdgeKey@BuildingEffect@@V12@U_Kfn@?$set@VWeldingEdgeKey@BuildingEffect@@U?$less@VWeldingEdgeKey@BuildingEffect@@@std@@V?$allocator@VWeldingEdgeKey@BuildingEffect@@@4@@std@@U?$less@VWeldingEdgeKey@BuildingEffect@@@5@V?$allocator@VWeldingEdgeKey@BuildingEffect@@@5@@std@@QAE@XZ 0046ab90 f i BuildingEffect.obj
 0001:00069c70       ??1?$list@VWeldingEdge@BuildingEffect@@V?$allocator@VWeldingEdge@BuildingEffect@@@std@@@std@@QAE@XZ 0046ac70 f i BuildingEffect.obj
 0001:00069ce0       ?erase@?$list@VWeldingEdge@BuildingEffect@@V?$allocator@VWeldingEdge@BuildingEffect@@@std@@@std@@QAE?AViterator@12@V312@@Z 0046ace0 f i BuildingEffect.obj
 0001:00069d20       ??0?$map@HV?$auto_ptr@VInfo@BuildingEffect@@@std@@U?$less@H@2@V?$allocator@V?$auto_ptr@VInfo@BuildingEffect@@@std@@@2@@std@@QAE@ABU?$less@H@1@ABV?$allocator@V?$auto_ptr@VInfo@BuildingEffect@@@std@@@1@@Z 0046ad20 f i BuildingEffect.obj
 0001:00069dd0       ??1?$auto_ptr@VInfo@BuildingEffect@@@std@@QAE@XZ 0046add0 f i BuildingEffect.obj
 0001:00069df0       ??1Info@BuildingEffect@@QAE@XZ 0046adf0 f i BuildingEffect.obj
 0001:00069ef0       ??0?$_Tree@VWeldingEdgeKey@BuildingEffect@@V12@U_Kfn@?$set@VWeldingEdgeKey@BuildingEffect@@U?$less@VWeldingEdgeKey@BuildingEffect@@@std@@V?$allocator@VWeldingEdgeKey@BuildingEffect@@@4@@std@@U?$less@VWeldingEdgeKey@BuildingEffect@@@5@V?$allocator@VWeldingEdgeKey@BuildingEffect@@@5@@std@@QAE@ABU?$less@VWeldingEdgeKey@BuildingEffect@@@1@_NABV?$allocator@VWeldingEdgeKey@BuildingEffect@@@1@@Z 0046aef0 f i BuildingEffect.obj
 0001:00069f20       ?begin@?$_Tree@VWeldingEdgeKey@BuildingEffect@@V12@U_Kfn@?$set@VWeldingEdgeKey@BuildingEffect@@U?$less@VWeldingEdgeKey@BuildingEffect@@@std@@V?$allocator@VWeldingEdgeKey@BuildingEffect@@@4@@std@@U?$less@VWeldingEdgeKey@BuildingEffect@@@5@V?$allocator@VWeldingEdgeKey@BuildingEffect@@@5@@std@@QAE?AViterator@12@XZ 0046af20 f i BuildingEffect.obj
 0001:00069f40       ?insert@?$_Tree@VWeldingEdgeKey@BuildingEffect@@V12@U_Kfn@?$set@VWeldingEdgeKey@BuildingEffect@@U?$less@VWeldingEdgeKey@BuildingEffect@@@std@@V?$allocator@VWeldingEdgeKey@BuildingEffect@@@4@@std@@U?$less@VWeldingEdgeKey@BuildingEffect@@@5@V?$allocator@VWeldingEdgeKey@BuildingEffect@@@5@@std@@QAE?AU?$pair@Viterator@?$_Tree@VWeldingEdgeKey@BuildingEffect@@V12@U_Kfn@?$set@VWeldingEdgeKey@BuildingEffect@@U?$less@VWeldingEdgeKey@BuildingEffect@@@std@@V?$allocator@VWeldingEdgeKey@BuildingEffect@@@4@@std@@U?$less@VWeldingEdgeKey@BuildingEffect@@@5@V?$allocator@VWeldingEdgeKey@BuildingEffect@@@5@@std@@_N@2@ABVWeldingEdgeKey@BuildingEffect@@@Z 0046af40 f i BuildingEffect.obj
 0001:0006a180       ?erase@?$_Tree@VWeldingEdgeKey@BuildingEffect@@V12@U_Kfn@?$set@VWeldingEdgeKey@BuildingEffect@@U?$less@VWeldingEdgeKey@BuildingEffect@@@std@@V?$allocator@VWeldingEdgeKey@BuildingEffect@@@4@@std@@U?$less@VWeldingEdgeKey@BuildingEffect@@@5@V?$allocator@VWeldingEdgeKey@BuildingEffect@@@5@@std@@QAE?AViterator@12@V312@0@Z 0046b180 f i BuildingEffect.obj
 0001:0006a250       ?insert@?$list@VWeldingEdge@BuildingEffect@@V?$allocator@VWeldingEdge@BuildingEffect@@@std@@@std@@QAE?AViterator@12@V312@ABVWeldingEdge@BuildingEffect@@@Z 0046b250 f i BuildingEffect.obj
 0001:0006a2b0       ?_Buynode@?$list@VWeldingEdge@BuildingEffect@@V?$allocator@VWeldingEdge@BuildingEffect@@@std@@@std@@IAEPAU_Node@12@PAU312@0@Z 0046b2b0 f i BuildingEffect.obj
 0001:0006a2e0       ?begin@?$_Tree@HU?$pair@$$CBHV?$auto_ptr@VInfo@BuildingEffect@@@std@@@std@@U_Kfn@?$map@HV?$auto_ptr@VInfo@BuildingEffect@@@std@@U?$less@H@2@V?$allocator@V?$auto_ptr@VInfo@BuildingEffect@@@std@@@2@@2@U?$less@H@2@V?$allocator@V?$auto_ptr@VInfo@BuildingEffect@@@std@@@2@@std@@QAE?AViterator@12@XZ 0046b2e0 f i BuildingEffect.obj
 0001:0006a300       ?insert@?$_Tree@HU?$pair@$$CBHV?$auto_ptr@VInfo@BuildingEffect@@@std@@@std@@U_Kfn@?$map@HV?$auto_ptr@VInfo@BuildingEffect@@@std@@U?$less@H@2@V?$allocator@V?$auto_ptr@VInfo@BuildingEffect@@@std@@@2@@2@U?$less@H@2@V?$allocator@V?$auto_ptr@VInfo@BuildingEffect@@@std@@@2@@std@@QAE?AU?$pair@Viterator@?$_Tree@HU?$pair@$$CBHV?$auto_ptr@VInfo@BuildingEffect@@@std@@@std@@U_Kfn@?$map@HV?$auto_ptr@VInfo@BuildingEffect@@@std@@U?$less@H@2@V?$allocator@V?$auto_ptr@VInfo@BuildingEffect@@@std@@@2@@2@U?$less@H@2@V?$allocator@V?$auto_ptr@VInfo@BuildingEffect@@@std@@@2@@std@@_N@2@ABU?$pair@$$CBHV?$auto_ptr@VInfo@BuildingEffect@@@std@@@2@@Z 0046b300 f i BuildingEffect.obj
 0001:0006a530       ?erase@?$_Tree@HU?$pair@$$CBHV?$auto_ptr@VInfo@BuildingEffect@@@std@@@std@@U_Kfn@?$map@HV?$auto_ptr@VInfo@BuildingEffect@@@std@@U?$less@H@2@V?$allocator@V?$auto_ptr@VInfo@BuildingEffect@@@std@@@2@@2@U?$less@H@2@V?$allocator@V?$auto_ptr@VInfo@BuildingEffect@@@std@@@2@@std@@QAE?AViterator@12@V312@@Z 0046b530 f i BuildingEffect.obj
 0001:0006aa10       ?begin@?$list@VWeldingEdge@BuildingEffect@@V?$allocator@VWeldingEdge@BuildingEffect@@@std@@@std@@QAE?AViterator@12@XZ 0046ba10 f i BuildingEffect.obj
 0001:0006aa30       ?end@?$list@VWeldingEdge@BuildingEffect@@V?$allocator@VWeldingEdge@BuildingEffect@@@std@@@std@@QAE?AViterator@12@XZ 0046ba30 f i BuildingEffect.obj
 0001:0006aa40       ?erase@?$list@VWeldingEdge@BuildingEffect@@V?$allocator@VWeldingEdge@BuildingEffect@@@std@@@std@@QAE?AViterator@12@V312@0@Z 0046ba40 f i BuildingEffect.obj
 0001:0006aaa0       ?_Freenode@?$list@VWeldingEdge@BuildingEffect@@V?$allocator@VWeldingEdge@BuildingEffect@@@std@@@std@@IAEXPAU_Node@12@@Z 0046baa0 f i BuildingEffect.obj
 0001:0006aac0       ??0?$pair@Viterator@?$_Tree@VWeldingEdgeKey@BuildingEffect@@V12@U_Kfn@?$set@VWeldingEdgeKey@BuildingEffect@@U?$less@VWeldingEdgeKey@BuildingEffect@@@std@@V?$allocator@VWeldingEdgeKey@BuildingEffect@@@4@@std@@U?$less@VWeldingEdgeKey@BuildingEffect@@@5@V?$allocator@VWeldingEdgeKey@BuildingEffect@@@5@@std@@_N@std@@QAE@ABViterator@?$_Tree@VWeldingEdgeKey@BuildingEffect@@V12@U_Kfn@?$set@VWeldingEdgeKey@BuildingEffect@@U?$less@VWeldingEdgeKey@BuildingEffect@@@std@@V?$allocator@VWeldingEdgeKey@BuildingEffect@@@4@@std@@U?$less@VWeldingEdgeKey@BuildingEffect@@@5@V?$allocator@VWeldingEdgeKey@BuildingEffect@@@5@@1@AB_N@Z 0046bac0 f i BuildingEffect.obj
 0001:0006aae0       ?erase@?$_Tree@VWeldingEdgeKey@BuildingEffect@@V12@U_Kfn@?$set@VWeldingEdgeKey@BuildingEffect@@U?$less@VWeldingEdgeKey@BuildingEffect@@@std@@V?$allocator@VWeldingEdgeKey@BuildingEffect@@@4@@std@@U?$less@VWeldingEdgeKey@BuildingEffect@@@5@V?$allocator@VWeldingEdgeKey@BuildingEffect@@@5@@std@@QAE?AViterator@12@V312@@Z 0046bae0 f i BuildingEffect.obj
 0001:0006af00       ?_Erase@?$_Tree@VWeldingEdgeKey@BuildingEffect@@V12@U_Kfn@?$set@VWeldingEdgeKey@BuildingEffect@@U?$less@VWeldingEdgeKey@BuildingEffect@@@std@@V?$allocator@VWeldingEdgeKey@BuildingEffect@@@4@@std@@U?$less@VWeldingEdgeKey@BuildingEffect@@@5@V?$allocator@VWeldingEdgeKey@BuildingEffect@@@5@@std@@IAEXPAU_Node@12@@Z 0046bf00 f i BuildingEffect.obj
 0001:0006af40       ?_Init@?$_Tree@VWeldingEdgeKey@BuildingEffect@@V12@U_Kfn@?$set@VWeldingEdgeKey@BuildingEffect@@U?$less@VWeldingEdgeKey@BuildingEffect@@@std@@V?$allocator@VWeldingEdgeKey@BuildingEffect@@@4@@std@@U?$less@VWeldingEdgeKey@BuildingEffect@@@5@V?$allocator@VWeldingEdgeKey@BuildingEffect@@@5@@std@@IAEXXZ 0046bf40 f i BuildingEffect.obj
 0001:0006afe0       ?_Insert@?$_Tree@VWeldingEdgeKey@BuildingEffect@@V12@U_Kfn@?$set@VWeldingEdgeKey@BuildingEffect@@U?$less@VWeldingEdgeKey@BuildingEffect@@@std@@V?$allocator@VWeldingEdgeKey@BuildingEffect@@@4@@std@@U?$less@VWeldingEdgeKey@BuildingEffect@@@5@V?$allocator@VWeldingEdgeKey@BuildingEffect@@@5@@std@@IAE?AViterator@12@PAU_Node@12@0ABVWeldingEdgeKey@BuildingEffect@@@Z 0046bfe0 f i BuildingEffect.obj
 0001:0006b260       ?lower_bound@?$_Tree@HU?$pair@$$CBHV?$auto_ptr@VInfo@BuildingEffect@@@std@@@std@@U_Kfn@?$map@HV?$auto_ptr@VInfo@BuildingEffect@@@std@@U?$less@H@2@V?$allocator@V?$auto_ptr@VInfo@BuildingEffect@@@std@@@2@@2@U?$less@H@2@V?$allocator@V?$auto_ptr@VInfo@BuildingEffect@@@std@@@2@@std@@QAE?AViterator@12@ABH@Z 0046c260 f i BuildingEffect.obj
 0001:0006b2a0       ?_Erase@?$_Tree@HU?$pair@$$CBHV?$auto_ptr@VInfo@BuildingEffect@@@std@@@std@@U_Kfn@?$map@HV?$auto_ptr@VInfo@BuildingEffect@@@std@@U?$less@H@2@V?$allocator@V?$auto_ptr@VInfo@BuildingEffect@@@std@@@2@@2@U?$less@H@2@V?$allocator@V?$auto_ptr@VInfo@BuildingEffect@@@std@@@2@@std@@IAEXPAU_Node@12@@Z 0046c2a0 f i BuildingEffect.obj
 0001:0006b2f0       ?_Insert@?$_Tree@HU?$pair@$$CBHV?$auto_ptr@VInfo@BuildingEffect@@@std@@@std@@U_Kfn@?$map@HV?$auto_ptr@VInfo@BuildingEffect@@@std@@U?$less@H@2@V?$allocator@V?$auto_ptr@VInfo@BuildingEffect@@@std@@@2@@2@U?$less@H@2@V?$allocator@V?$auto_ptr@VInfo@BuildingEffect@@@std@@@2@@std@@IAE?AViterator@12@PAU_Node@12@0ABU?$pair@$$CBHV?$auto_ptr@VInfo@BuildingEffect@@@std@@@2@@Z 0046c2f0 f i BuildingEffect.obj
 0001:0006b570       ?_Lrotate@?$_Tree@HU?$pair@$$CBHV?$auto_ptr@VInfo@BuildingEffect@@@std@@@std@@U_Kfn@?$map@HV?$auto_ptr@VInfo@BuildingEffect@@@std@@U?$less@H@2@V?$allocator@V?$auto_ptr@VInfo@BuildingEffect@@@std@@@2@@2@U?$less@H@2@V?$allocator@V?$auto_ptr@VInfo@BuildingEffect@@@std@@@2@@std@@IAEXPAU_Node@12@@Z 0046c570 f i BuildingEffect.obj
 0001:0006b5d0       ?_Rrotate@?$_Tree@HU?$pair@$$CBHV?$auto_ptr@VInfo@BuildingEffect@@@std@@@std@@U_Kfn@?$map@HV?$auto_ptr@VInfo@BuildingEffect@@@std@@U?$less@H@2@V?$allocator@V?$auto_ptr@VInfo@BuildingEffect@@@std@@@2@@2@U?$less@H@2@V?$allocator@V?$auto_ptr@VInfo@BuildingEffect@@@std@@@2@@std@@IAEXPAU_Node@12@@Z 0046c5d0 f i BuildingEffect.obj
 0001:0006b630       ?_Inc@const_iterator@?$_Tree@HU?$pair@$$CBHV?$auto_ptr@VInfo@BuildingEffect@@@std@@@std@@U_Kfn@?$map@HV?$auto_ptr@VInfo@BuildingEffect@@@std@@U?$less@H@2@V?$allocator@V?$auto_ptr@VInfo@BuildingEffect@@@std@@@2@@2@U?$less@H@2@V?$allocator@V?$auto_ptr@VInfo@BuildingEffect@@@std@@@2@@std@@QAEXXZ 0046c630 f i BuildingEffect.obj
 0001:0006b680       ?_Lrotate@?$_Tree@VWeldingEdgeKey@BuildingEffect@@V12@U_Kfn@?$set@VWeldingEdgeKey@BuildingEffect@@U?$less@VWeldingEdgeKey@BuildingEffect@@@std@@V?$allocator@VWeldingEdgeKey@BuildingEffect@@@4@@std@@U?$less@VWeldingEdgeKey@BuildingEffect@@@5@V?$allocator@VWeldingEdgeKey@BuildingEffect@@@5@@std@@IAEXPAU_Node@12@@Z 0046c680 f i BuildingEffect.obj
 0001:0006b6e0       ?_Min@?$_Tree@VWeldingEdgeKey@BuildingEffect@@V12@U_Kfn@?$set@VWeldingEdgeKey@BuildingEffect@@U?$less@VWeldingEdgeKey@BuildingEffect@@@std@@V?$allocator@VWeldingEdgeKey@BuildingEffect@@@4@@std@@U?$less@VWeldingEdgeKey@BuildingEffect@@@5@V?$allocator@VWeldingEdgeKey@BuildingEffect@@@5@@std@@KAPAU_Node@12@PAU312@@Z 0046c6e0 f i BuildingEffect.obj
 0001:0006b700       ?_Rrotate@?$_Tree@VWeldingEdgeKey@BuildingEffect@@V12@U_Kfn@?$set@VWeldingEdgeKey@BuildingEffect@@U?$less@VWeldingEdgeKey@BuildingEffect@@@std@@V?$allocator@VWeldingEdgeKey@BuildingEffect@@@4@@std@@U?$less@VWeldingEdgeKey@BuildingEffect@@@5@V?$allocator@VWeldingEdgeKey@BuildingEffect@@@5@@std@@IAEXPAU_Node@12@@Z 0046c700 f i BuildingEffect.obj
 0001:0006b760       ?_Buynode@?$_Tree@VWeldingEdgeKey@BuildingEffect@@V12@U_Kfn@?$set@VWeldingEdgeKey@BuildingEffect@@U?$less@VWeldingEdgeKey@BuildingEffect@@@std@@V?$allocator@VWeldingEdgeKey@BuildingEffect@@@4@@std@@U?$less@VWeldingEdgeKey@BuildingEffect@@@5@V?$allocator@VWeldingEdgeKey@BuildingEffect@@@5@@std@@IAEPAU_Node@12@PAU312@W4_Redbl@12@@Z 0046c760 f i BuildingEffect.obj
 0001:0006b780       ?_Dec@const_iterator@?$_Tree@VWeldingEdgeKey@BuildingEffect@@V12@U_Kfn@?$set@VWeldingEdgeKey@BuildingEffect@@U?$less@VWeldingEdgeKey@BuildingEffect@@@std@@V?$allocator@VWeldingEdgeKey@BuildingEffect@@@4@@std@@U?$less@VWeldingEdgeKey@BuildingEffect@@@5@V?$allocator@VWeldingEdgeKey@BuildingEffect@@@5@@std@@QAEXXZ 0046c780 f i BuildingEffect.obj
 0001:0006b7e0       ?_Lbound@?$_Tree@HU?$pair@$$CBHV?$auto_ptr@VInfo@BuildingEffect@@@std@@@std@@U_Kfn@?$map@HV?$auto_ptr@VInfo@BuildingEffect@@@std@@U?$less@H@2@V?$allocator@V?$auto_ptr@VInfo@BuildingEffect@@@std@@@2@@2@U?$less@H@2@V?$allocator@V?$auto_ptr@VInfo@BuildingEffect@@@std@@@2@@std@@IBEPAU_Node@12@ABH@Z 0046c7e0 f i BuildingEffect.obj
 0001:0006b810       ?_Buynode@?$_Tree@HU?$pair@$$CBHV?$auto_ptr@VInfo@BuildingEffect@@@std@@@std@@U_Kfn@?$map@HV?$auto_ptr@VInfo@BuildingEffect@@@std@@U?$less@H@2@V?$allocator@V?$auto_ptr@VInfo@BuildingEffect@@@std@@@2@@2@U?$less@H@2@V?$allocator@V?$auto_ptr@VInfo@BuildingEffect@@@std@@@2@@std@@IAEPAU_Node@12@PAU312@W4_Redbl@12@@Z 0046c810 f i BuildingEffect.obj
 0001:0006b830       ?_Dec@const_iterator@?$_Tree@HU?$pair@$$CBHV?$auto_ptr@VInfo@BuildingEffect@@@std@@@std@@U_Kfn@?$map@HV?$auto_ptr@VInfo@BuildingEffect@@@std@@U?$less@H@2@V?$allocator@V?$auto_ptr@VInfo@BuildingEffect@@@std@@@2@@2@U?$less@H@2@V?$allocator@V?$auto_ptr@VInfo@BuildingEffect@@@std@@@2@@std@@QAEXXZ 0046c830 f i BuildingEffect.obj
 0001:0006b890       ?_Inc@const_iterator@?$_Tree@VWeldingEdgeKey@BuildingEffect@@V12@U_Kfn@?$set@VWeldingEdgeKey@BuildingEffect@@U?$less@VWeldingEdgeKey@BuildingEffect@@@std@@V?$allocator@VWeldingEdgeKey@BuildingEffect@@@4@@std@@U?$less@VWeldingEdgeKey@BuildingEffect@@@5@V?$allocator@VWeldingEdgeKey@BuildingEffect@@@5@@std@@QAEXXZ 0046c890 f i BuildingEffect.obj
 0001:0006b8e0       ?_Ubound@?$_Tree@HU?$pair@$$CBHV?$auto_ptr@VInfo@BuildingEffect@@@std@@@std@@U_Kfn@?$map@HV?$auto_ptr@VInfo@BuildingEffect@@@std@@U?$less@H@2@V?$allocator@V?$auto_ptr@VInfo@BuildingEffect@@@std@@@2@@2@U?$less@H@2@V?$allocator@V?$auto_ptr@VInfo@BuildingEffect@@@std@@@2@@std@@IBEPAU_Node@12@ABH@Z 0046c8e0 f i BuildingEffect.obj
 0001:0006b910       ?_Construct@std@@YAXPAVWeldingEdge@BuildingEffect@@ABV23@@Z 0046c910 f i BuildingEffect.obj
 0001:0006b990       ?_Construct@std@@YAXPAVWeldingEdgeKey@BuildingEffect@@ABV23@@Z 0046c990 f i BuildingEffect.obj
 0001:0006b9b0       ?_Construct@std@@YAXPAU?$pair@$$CBHV?$auto_ptr@VInfo@BuildingEffect@@@std@@@1@ABU21@@Z 0046c9b0 f i BuildingEffect.obj
 0001:0006b9e0       ??_GWeldingEdge@BuildingEffect@@QAEPAXI@Z 0046c9e0 f i BuildingEffect.obj
 0001:0006ba10       ??_G?$pair@$$CBHV?$auto_ptr@VInfo@BuildingEffect@@@std@@@std@@QAEPAXI@Z 0046ca10 f i BuildingEffect.obj
 0001:0006bab0       ?CreateBees@DroneColony@@UAEHPAVDrones@@@Z 0046cab0 f   DroneColony.obj
 0001:0006bba0       ?CreateBee@DroneColony@@MAE?AVBee@BeeColony@@PAVDrones@@PAVST3D_Node@@@Z 0046cba0 f   DroneColony.obj
 0001:0006bee0       ?TellOwnerBeeLanded@DroneColony@@MAEXABVBee@BeeColony@@@Z 0046cee0 f   DroneColony.obj
 0001:0006bef0       ?FindWeldSpot@DroneColony@@MAEXAAVBee@BeeColony@@@Z 0046cef0 f   DroneColony.obj
 0001:0006bf60       ?GetWeldFromLocation@DroneColony@@MAE?AVVector3@@AAVBee@BeeColony@@@Z 0046cf60 f   DroneColony.obj
 0001:0006c020       ?GetBeeList@DroneColony@@MAEAAV?$multimap@HVBee@BeeColony@@U?$less@H@std@@V?$allocator@VBee@BeeColony@@@4@@std@@XZ 0046d020 f i DroneColony.obj
 0001:0006c030       ??1?$multimap@HVBee@BeeColony@@U?$less@H@std@@V?$allocator@VBee@BeeColony@@@4@@std@@QAE@XZ 0046d030 f i DroneColony.obj
 0001:0006c130       ??1Bee@BeeColony@@UAE@XZ   0046d130 f i DroneColony.obj
 0001:0006c140       ??0Bee@BeeColony@@QAE@ABV01@@Z 0046d140 f i DroneColony.obj
 0001:0006c390       ??_EBee@BeeColony@@UAEPAXI@Z 0046d390 f i DroneColony.obj
 0001:0006c390       ??_GBee@BeeColony@@UAEPAXI@Z 0046d390 f i DroneColony.obj
 0001:0006c3c0       ??_EST3D_Instance@@UAEPAXI@Z 0046d3c0 f i DroneColony.obj
 0001:0006c3c0       ??_GST3D_Instance@@UAEPAXI@Z 0046d3c0 f i DroneColony.obj
 0001:0006c3f0       ??0?$list@PAVST3D_Particle@@V?$allocator@PAVST3D_Particle@@@std@@@std@@QAE@ABV01@@Z 0046d3f0 f i DroneColony.obj
 0001:0006c490       ??0?$multimap@HVBee@BeeColony@@U?$less@H@std@@V?$allocator@VBee@BeeColony@@@4@@std@@QAE@ABU?$less@H@1@ABV?$allocator@VBee@BeeColony@@@1@@Z 0046d490 f i DroneColony.obj
 0001:0006c550       ?begin@?$_Tree@HU?$pair@$$CBHVBee@BeeColony@@@std@@U_Kfn@?$multimap@HVBee@BeeColony@@U?$less@H@std@@V?$allocator@VBee@BeeColony@@@4@@2@U?$less@H@2@V?$allocator@VBee@BeeColony@@@2@@std@@QAE?AViterator@12@XZ 0046d550 f i DroneColony.obj
 0001:0006c570       ?insert@?$_Tree@HU?$pair@$$CBHVBee@BeeColony@@@std@@U_Kfn@?$multimap@HVBee@BeeColony@@U?$less@H@std@@V?$allocator@VBee@BeeColony@@@4@@2@U?$less@H@2@V?$allocator@VBee@BeeColony@@@2@@std@@QAE?AU?$pair@Viterator@?$_Tree@HU?$pair@$$CBHVBee@BeeColony@@@std@@U_Kfn@?$multimap@HVBee@BeeColony@@U?$less@H@std@@V?$allocator@VBee@BeeColony@@@4@@2@U?$less@H@2@V?$allocator@VBee@BeeColony@@@2@@std@@_N@2@ABU?$pair@$$CBHVBee@BeeColony@@@2@@Z 0046d570 f i DroneColony.obj
 0001:0006c7d0       ?_Insert@?$_Tree@HU?$pair@$$CBHVBee@BeeColony@@@std@@U_Kfn@?$multimap@HVBee@BeeColony@@U?$less@H@std@@V?$allocator@VBee@BeeColony@@@4@@2@U?$less@H@2@V?$allocator@VBee@BeeColony@@@2@@std@@IAE?AViterator@12@PAU_Node@12@0ABU?$pair@$$CBHVBee@BeeColony@@@2@@Z 0046d7d0 f i DroneColony.obj
 0001:0006ca80       ?_Lrotate@?$_Tree@HU?$pair@$$CBHVBee@BeeColony@@@std@@U_Kfn@?$multimap@HVBee@BeeColony@@U?$less@H@std@@V?$allocator@VBee@BeeColony@@@4@@2@U?$less@H@2@V?$allocator@VBee@BeeColony@@@2@@std@@IAEXPAU_Node@12@@Z 0046da80 f i DroneColony.obj
 0001:0006cae0       ?_Rrotate@?$_Tree@HU?$pair@$$CBHVBee@BeeColony@@@std@@U_Kfn@?$multimap@HVBee@BeeColony@@U?$less@H@std@@V?$allocator@VBee@BeeColony@@@4@@2@U?$less@H@2@V?$allocator@VBee@BeeColony@@@2@@std@@IAEXPAU_Node@12@@Z 0046dae0 f i DroneColony.obj
 0001:0006cb40       ?_Buynode@?$_Tree@HU?$pair@$$CBHVBee@BeeColony@@@std@@U_Kfn@?$multimap@HVBee@BeeColony@@U?$less@H@std@@V?$allocator@VBee@BeeColony@@@4@@2@U?$less@H@2@V?$allocator@VBee@BeeColony@@@2@@std@@IAEPAU_Node@12@PAU312@W4_Redbl@12@@Z 0046db40 f i DroneColony.obj
 0001:0006cb70       ?_Dec@const_iterator@?$_Tree@HU?$pair@$$CBHVBee@BeeColony@@@std@@U_Kfn@?$multimap@HVBee@BeeColony@@U?$less@H@std@@V?$allocator@VBee@BeeColony@@@4@@2@U?$less@H@2@V?$allocator@VBee@BeeColony@@@2@@std@@QAEXXZ 0046db70 f i DroneColony.obj
 0001:0006cbd0       ?_Construct@std@@YAXPAU?$pair@$$CBHVBee@BeeColony@@@1@ABU21@@Z 0046dbd0 f i DroneColony.obj
 0001:0006ce20       ?insert@?$list@PAVST3D_Particle@@V?$allocator@PAVST3D_Particle@@@std@@@std@@QAE?AViterator@12@V312@ABQAVST3D_Particle@@@Z 0046de20 f i DroneColony.obj
 0001:0006ce80       ??_G?$pair@$$CBHVBee@BeeColony@@@std@@QAEPAXI@Z 0046de80 f i DroneColony.obj
 0001:0006ceb0       ?GameFeature_InitAll@@YAXXZ 0046deb0 f   GameFeature.obj
 0001:0006cfd0       ?GameFeature_PreLoadAll@@YAXXZ 0046dfd0 f   GameFeature.obj
 0001:0006d0f0       ?GameFeature_PostLoadAll@@YAXXZ 0046e0f0 f   GameFeature.obj
 0001:0006d440       ?GameFeature_ControlAll@@YAXXZ 0046e440 f   GameFeature.obj
 0001:0006d470       ?GameFeature_SimulateAll@@YAXM@Z 0046e470 f   GameFeature.obj
 0001:0006d4b0       ?GameFeature_RenderAll@@YAXPAVST3D_Camera@@_N@Z 0046e4b0 f   GameFeature.obj
 0001:0006d4f0       ?GameFeature_PreDestroyAll@@YAXXZ 0046e4f0 f   GameFeature.obj
 0001:0006d610       ?GameFeature_PostRunAll@@YAXXZ 0046e610 f   GameFeature.obj
 0001:0006d730       ?GameFeature_CleanupAll@@YAXXZ 0046e730 f   GameFeature.obj
 0001:0006d850       ??0GameFeature@@QAE@XZ     0046e850 f   GameFeature.obj
 0001:0006da50       ?Init@GameFeature@@UAEXXZ  0046ea50 f   GameFeature.obj
 0001:0006da60       ?Cleanup@GameFeature@@UAEXXZ 0046ea60 f   GameFeature.obj
 0001:0006da70       ?PreLoad@GameFeature@@UAEXXZ 0046ea70 f   GameFeature.obj
 0001:0006da80       ?PostLoad@GameFeature@@UAEXXZ 0046ea80 f   GameFeature.obj
 0001:0006da90       ?PreDestroy@GameFeature@@UAEXXZ 0046ea90 f   GameFeature.obj
 0001:0006daa0       ?PostRun@GameFeature@@UAEXXZ 0046eaa0 f   GameFeature.obj
 0001:0006dab0       ?Control@GameFeature@@UAEXXZ 0046eab0 f   GameFeature.obj
 0001:0006dac0       ?Simulate@GameFeature@@UAEXM@Z 0046eac0 f   GameFeature.obj
 0001:0006dad0       ?AddEntity@GameFeature@@UAEXPAVST3D_Node@@@Z 0046ead0 f   GameFeature.obj
 0001:0006dae0       ?DeleteEntity@GameFeature@@UAEXPAVST3D_Node@@@Z 0046eae0 f   GameFeature.obj
 0001:0006daf0       ?AddObject@GameFeature@@UAEXPAVGameObject@@@Z 0046eaf0 f   GameFeature.obj
 0001:0006db00       ?DeleteObject@GameFeature@@UAEXPAVGameObject@@@Z 0046eb00 f   GameFeature.obj
 0001:0006db10       ?Render@GameFeature@@UAEXPAVST3D_Camera@@_N@Z 0046eb10 f   GameFeature.obj
 0001:0006db20       ?AddObjectEvent@GameFeature@@SAXPAVGameObject@@@Z 0046eb20 f   GameFeature.obj
 0001:0006db50       ?DeleteObjectEvent@GameFeature@@SAXPAVGameObject@@@Z 0046eb50 f   GameFeature.obj
 0001:0006db80       ??RGFRenderPri@@QAE_NPAVGameFeature@@0@Z 0046eb80 f i GameFeature.obj
 0001:0006dc20       ?size@?$vector@PAVGameFeature@@V?$allocator@PAVGameFeature@@@std@@@std@@QBEIXZ 0046ec20 f i GameFeature.obj
 0001:0006dc40       ?_Destroy@?$vector@PAVGameFeature@@V?$allocator@PAVGameFeature@@@std@@@std@@IAEXPAPAVGameFeature@@0@Z 0046ec40 f i GameFeature.obj
 0001:0006dc50       ?_Ucopy@?$vector@PAVGameFeature@@V?$allocator@PAVGameFeature@@@std@@@std@@IAEPAPAVGameFeature@@PBQAV3@0PAPAV3@@Z 0046ec50 f i GameFeature.obj
 0001:0006dc80       ?_Ufill@?$vector@PAVGameFeature@@V?$allocator@PAVGameFeature@@@std@@@std@@IAEXPAPAVGameFeature@@IABQAV3@@Z 0046ec80 f i GameFeature.obj
 0001:0006dcb0       ?_Construct@std@@YAXPAPAVGameFeature@@ABQAV2@@Z 0046ecb0 f i GameFeature.obj
 0001:0006dcd0       ?_Sort@std@@YAXPAPAVGameFeature@@0VGFInitPri@@0@Z 0046ecd0 f i GameFeature.obj
 0001:0006dfc0       ??RGFInitPri@@QAE_NPAVGameFeature@@0@Z 0046efc0 f i GameFeature.obj
 0001:0006e060       ?_Unguarded_insert@std@@YAXPAPAVGameFeature@@PAV2@VGFInitPri@@@Z 0046f060 f i GameFeature.obj
 0001:0006e100       ?_Sort@std@@YAXPAPAVGameFeature@@0VGFPreLoadPri@@0@Z 0046f100 f i GameFeature.obj
 0001:0006e3f0       ??RGFPreLoadPri@@QAE_NPAVGameFeature@@0@Z 0046f3f0 f i GameFeature.obj
 0001:0006e490       ?_Unguarded_insert@std@@YAXPAPAVGameFeature@@PAV2@VGFPreLoadPri@@@Z 0046f490 f i GameFeature.obj
 0001:0006e530       ?_Sort@std@@YAXPAPAVGameFeature@@0VGFPostLoadPri@@0@Z 0046f530 f i GameFeature.obj
 0001:0006e820       ??RGFPostLoadPri@@QAE_NPAVGameFeature@@0@Z 0046f820 f i GameFeature.obj
 0001:0006e8c0       ?_Unguarded_insert@std@@YAXPAPAVGameFeature@@PAV2@VGFPostLoadPri@@@Z 0046f8c0 f i GameFeature.obj
 0001:0006e960       ?_Sort@std@@YAXPAPAVGameFeature@@0VGFRenderPri@@0@Z 0046f960 f i GameFeature.obj
 0001:0006ec50       ?_Unguarded_insert@std@@YAXPAPAVGameFeature@@PAV2@VGFRenderPri@@@Z 0046fc50 f i GameFeature.obj
 0001:0006ecf0       ?_Sort@std@@YAXPAPAVGameFeature@@0VGFPreDestroyPri@@0@Z 0046fcf0 f i GameFeature.obj
 0001:0006efe0       ??RGFPreDestroyPri@@QAE_NPAVGameFeature@@0@Z 0046ffe0 f i GameFeature.obj
 0001:0006f080       ?_Unguarded_insert@std@@YAXPAPAVGameFeature@@PAV2@VGFPreDestroyPri@@@Z 00470080 f i GameFeature.obj
 0001:0006f120       ?_Sort@std@@YAXPAPAVGameFeature@@0VGFPostRunPri@@0@Z 00470120 f i GameFeature.obj
 0001:0006f410       ??RGFPostRunPri@@QAE_NPAVGameFeature@@0@Z 00470410 f i GameFeature.obj
 0001:0006f4b0       ?_Unguarded_insert@std@@YAXPAPAVGameFeature@@PAV2@VGFPostRunPri@@@Z 004704b0 f i GameFeature.obj
 0001:0006f550       ?_Sort@std@@YAXPAPAVGameFeature@@0VGFCleanupPri@@0@Z 00470550 f i GameFeature.obj
 0001:0006f840       ??RGFCleanupPri@@QAE_NPAVGameFeature@@0@Z 00470840 f i GameFeature.obj
 0001:0006f8e0       ?_Unguarded_insert@std@@YAXPAPAVGameFeature@@PAV2@VGFCleanupPri@@@Z 004708e0 f i GameFeature.obj
 0001:0006f980       ?_Insertion_sort_1@std@@YAXPAPAVGameFeature@@0VGFInitPri@@0@Z 00470980 f i GameFeature.obj
 0001:0006fb00       ?_Median@std@@YAPAVGameFeature@@PAV2@00VGFInitPri@@@Z 00470b00 f i GameFeature.obj
 0001:0006fd90       ?_Unguarded_partition@std@@YAPAPAVGameFeature@@PAPAV2@0PAV2@VGFInitPri@@@Z 00470d90 f i GameFeature.obj
 0001:0006fec0       ?_Insertion_sort_1@std@@YAXPAPAVGameFeature@@0VGFPreLoadPri@@0@Z 00470ec0 f i GameFeature.obj
 0001:00070040       ?_Median@std@@YAPAVGameFeature@@PAV2@00VGFPreLoadPri@@@Z 00471040 f i GameFeature.obj
 0001:000702d0       ?_Unguarded_partition@std@@YAPAPAVGameFeature@@PAPAV2@0PAV2@VGFPreLoadPri@@@Z 004712d0 f i GameFeature.obj
 0001:00070400       ?_Insertion_sort_1@std@@YAXPAPAVGameFeature@@0VGFPostLoadPri@@0@Z 00471400 f i GameFeature.obj
 0001:00070580       ?_Unguarded_partition@std@@YAPAPAVGameFeature@@PAPAV2@0PAV2@VGFRenderPri@@@Z 00471580 f i GameFeature.obj
 0001:000706b0       ?_Insertion_sort_1@std@@YAXPAPAVGameFeature@@0VGFPreDestroyPri@@0@Z 004716b0 f i GameFeature.obj
 0001:00070830       ?_Median@std@@YAPAVGameFeature@@PAV2@00VGFPreDestroyPri@@@Z 00471830 f i GameFeature.obj
 0001:00070ac0       ?_Unguarded_partition@std@@YAPAPAVGameFeature@@PAPAV2@0PAV2@VGFPreDestroyPri@@@Z 00471ac0 f i GameFeature.obj
 0001:00070bf0       ?_Insertion_sort_1@std@@YAXPAPAVGameFeature@@0VGFPostRunPri@@0@Z 00471bf0 f i GameFeature.obj
 0001:00070d70       ?_Median@std@@YAPAVGameFeature@@PAV2@00VGFPostRunPri@@@Z 00471d70 f i GameFeature.obj
 0001:00071000       ?_Unguarded_partition@std@@YAPAPAVGameFeature@@PAPAV2@0PAV2@VGFPostRunPri@@@Z 00472000 f i GameFeature.obj
 0001:00071130       ?_Insertion_sort_1@std@@YAXPAPAVGameFeature@@0VGFCleanupPri@@0@Z 00472130 f i GameFeature.obj
 0001:000712b0       ?_Median@std@@YAPAVGameFeature@@PAV2@00VGFCleanupPri@@@Z 004722b0 f i GameFeature.obj
 0001:00071540       ?_Unguarded_partition@std@@YAPAPAVGameFeature@@PAPAV2@0PAV2@VGFCleanupPri@@@Z 00472540 f i GameFeature.obj
 0001:00071760       ??0Ghost@@QAE@XZ           00472760 f   Ghost.obj
 0001:00071780       ??1Ghost@@UAE@XZ           00472780 f   Ghost.obj
 0001:00071790       ?PostRun@Ghost@@UAEXXZ     00472790 f   Ghost.obj
 0001:00071830       ?PreLoad@Ghost@@UAEXXZ     00472830 f   Ghost.obj
 0001:000719c0       ?SaveAll@Ghost@@SA_NAAVFileWriter@@@Z 004729c0 f   Ghost.obj
 0001:00071a50       ?LoadAll@Ghost@@SA_NAAVFileReader@@@Z 00472a50 f   Ghost.obj
 0001:00071b30       ?PostLoad@Ghost@@UAEXXZ    00472b30 f   Ghost.obj
 0001:00071b60       ?Simulate@Ghost@@UAEXM@Z   00472b60 f   Ghost.obj
 0001:00071cc0       ?Render@Ghost@@UAEXPAVST3D_Camera@@_N@Z 00472cc0 f   Ghost.obj
 0001:00071db0       ?MakeMeSomeGhosties@Ghost@@QAEXHH@Z 00472db0 f   Ghost.obj
 0001:00071e90       ?EraseGhost@Ghost@@SA?AViterator@?$list@PAVSpirit@@V?$allocator@PAVSpirit@@@std@@@std@@V234@@Z 00472e90 f   Ghost.obj
 0001:00071f00       ??_EGhost@@UAEPAXI@Z       00472f00 f i Ghost.obj
 0001:00071f00       ??_GGhost@@UAEPAXI@Z       00472f00 f i Ghost.obj
 0001:00071f30       ?insert@?$list@PAVSpirit@@V?$allocator@PAVSpirit@@@std@@@std@@QAE?AViterator@12@V312@ABQAVSpirit@@@Z 00472f30 f i Ghost.obj
 0001:00071f90       ?erase@?$list@PAVSpirit@@V?$allocator@PAVSpirit@@@std@@@std@@QAE?AViterator@12@V312@0@Z 00472f90 f i Ghost.obj
 0001:00071fe0       ??0NaniteEffect@@QAE@HPAD@Z 00472fe0 f   NaniteEffect.obj
 0001:00072120       ??1NaniteEffect@@QAE@XZ    00473120 f   NaniteEffect.obj
 0001:00072130       ?PreLoad@NaniteEffect@@UAEXXZ 00473130 f   NaniteEffect.obj
 0001:00072140       ?PreDestroy@NaniteEffect@@UAEXXZ 00473140 f   NaniteEffect.obj
 0001:00072150       ?Simulate@NaniteEffect@@UAEXM@Z 00473150 f   NaniteEffect.obj
 0001:00072280       ?Render@NaniteEffect@@UAEXPAVST3D_Camera@@_N@Z 00473280 f   NaniteEffect.obj
 0001:00072390       ?sCanAddParticle@NodeParticleEffect@@CA_NPAVGameObject@@@Z 00473390 f   NodeParticleEffect.obj
 0001:000723c0       ?AddParticle@NodeParticleEffect@@SAXPBDABVST3D_Colour@@PAVGameObject@@PBVST3D_Node@@MM@Z 004733c0 f   NodeParticleEffect.obj
 0001:000724c0       ?AddParticle@NodeParticleEffect@@SAXPBDABVST3D_Colour@@PAVGameObject@@ABVVector3@@MM@Z 004734c0 f   NodeParticleEffect.obj
 0001:000725b0       ?PostRun@NodeParticleEffect@@UAEXXZ 004735b0 f   NodeParticleEffect.obj
 0001:000725f0       ?Simulate@NodeParticleEffect@@UAEXM@Z 004735f0 f   NodeParticleEffect.obj
 0001:00072670       ?Render@NodeParticleEffect@@UAEXPAVST3D_Camera@@_N@Z 00473670 f   NodeParticleEffect.obj
 0001:00072810       ?Init@PlaceholderFeature@@UAEXXZ 00473810 f   Placeholder.obj
 0001:00072880       ?PreLoad@PlaceholderFeature@@UAEXXZ 00473880 f   Placeholder.obj
 0001:00072890       ?PostLoad@PlaceholderFeature@@UAEXXZ 00473890 f   Placeholder.obj
 0001:000728a0       ?Render@PlaceholderFeature@@UAEXPAVST3D_Camera@@_N@Z 004738a0 f   Placeholder.obj
 0001:00072930       ?RenderFootprints@PlaceholderFeature@@QAEXPAVST3D_Camera@@M@Z 00473930 f   Placeholder.obj
 0001:00072aa0       ?sRenderInternal@PlaceholderFeature@@SAXPBVCraftClass@@ABVMatrix34@@ABVST3D_Colour@@@Z 00473aa0 f   Placeholder.obj
 0001:00072c10       ?PostLoad@GameObjectInstance@@UAEXXZ 00473c10 f i Placeholder.obj
 0001:00072c20       ?IsCraftInstance@CraftInstance@@UBE_NXZ 00473c20 f i Placeholder.obj
 0001:00072c30       ?ComputeFadeOut@PlaceHolderInstance@@UBE_NAAM@Z 00473c30 f i Placeholder.obj
 0001:00072c60       ??1PlaceHolderInstance@@UAE@XZ 00473c60 f i Placeholder.obj
 0001:00072c70       ??_EPlaceHolderInstance@@UAEPAXI@Z 00473c70 f i Placeholder.obj
 0001:00072c70       ??_GPlaceHolderInstance@@UAEPAXI@Z 00473c70 f i Placeholder.obj
 0001:00072ca0       ??0ShieldHit@@QAE@PAVGameObject@@MH@Z 00473ca0 f   ShieldEffect.obj
 0001:00072d50       ?ShieldUpdate@ShieldHit@@QAEXABVMatrix34@@@Z 00473d50 f   ShieldEffect.obj
 0001:00073070       ?DrawShield@ShieldHit@@QAEXPAVST3D_Camera@@PAVST3D_LightingMaterial@@@Z 00474070 f   ShieldEffect.obj
 0001:000733b0       ?CreateShieldHit@ShieldEffect@@SAHPAVGameObject@@ABVMatrix34@@W4ShieldType@@MH@Z 004743b0 f   ShieldEffect.obj
 0001:00073530       ?Init@ShieldEffect@@UAEXXZ 00474530 f   ShieldEffect.obj
 0001:000735d0       ?PreLoad@ShieldEffect@@UAEXXZ 004745d0 f   ShieldEffect.obj
 0001:00073600       ?PostLoad@ShieldEffect@@UAEXXZ 00474600 f   ShieldEffect.obj
 0001:00073670       ?Cleanup@ShieldEffect@@UAEXXZ 00474670 f   ShieldEffect.obj
 0001:000736b0       ?PostRun@ShieldEffect@@UAEXXZ 004746b0 f   ShieldEffect.obj
 0001:00073710       ?GetDefaultSOD@ShieldEffect@@SAPBDXZ 00474710 f   ShieldEffect.obj
 0001:00073720       ?GetShieldType@ShieldEffect@@SA?AW4ShieldType@@PBD@Z 00474720 f   ShieldEffect.obj
 0001:00073770       ?ShieldStop@ShieldEffect@@SAXH@Z 00474770 f   ShieldEffect.obj
 0001:000737d0       ?ShieldUpdate@ShieldEffect@@SAXHABVMatrix34@@@Z 004747d0 f   ShieldEffect.obj
 0001:00073820       ?Simulate@ShieldEffect@@UAEXM@Z 00474820 f   ShieldEffect.obj
 0001:00073910       ?Render@ShieldEffect@@UAEXPAVST3D_Camera@@_N@Z 00474910 f   ShieldEffect.obj
 0001:00073980       ?DeleteObject@ShieldEffect@@UAEXPAVGameObject@@@Z 00474980 f   ShieldEffect.obj
 0001:00073a30       ??_EShieldHit@@UAEPAXI@Z   00474a30 f i ShieldEffect.obj
 0001:00073a30       ??_GShieldHit@@UAEPAXI@Z   00474a30 f i ShieldEffect.obj
 0001:00073a60       ??1ShieldHit@@UAE@XZ       00474a60 f i ShieldEffect.obj
 0001:00073a70       ??1?$map@HV?$auto_ptr@VShieldHit@@@std@@U?$less@H@2@V?$allocator@V?$auto_ptr@VShieldHit@@@std@@@2@@std@@QAE@XZ 00474a70 f i ShieldEffect.obj
 0001:00073b70       ??1?$pair@$$CBHV?$auto_ptr@VShieldHit@@@std@@@std@@QAE@XZ 00474b70 f i ShieldEffect.obj
 0001:00073b90       ??0?$map@HV?$auto_ptr@VShieldHit@@@std@@U?$less@H@2@V?$allocator@V?$auto_ptr@VShieldHit@@@std@@@2@@std@@QAE@ABU?$less@H@1@ABV?$allocator@V?$auto_ptr@VShieldHit@@@std@@@1@@Z 00474b90 f i ShieldEffect.obj
 0001:00073c40       ??1?$auto_ptr@VShieldHit@@@std@@QAE@XZ 00474c40 f i ShieldEffect.obj
 0001:00073c60       ?begin@?$_Tree@HU?$pair@$$CBHV?$auto_ptr@VShieldHit@@@std@@@std@@U_Kfn@?$map@HV?$auto_ptr@VShieldHit@@@std@@U?$less@H@2@V?$allocator@V?$auto_ptr@VShieldHit@@@std@@@2@@2@U?$less@H@2@V?$allocator@V?$auto_ptr@VShieldHit@@@std@@@2@@std@@QAE?AViterator@12@XZ 00474c60 f i ShieldEffect.obj
 0001:00073c80       ?insert@?$_Tree@HU?$pair@$$CBHV?$auto_ptr@VShieldHit@@@std@@@std@@U_Kfn@?$map@HV?$auto_ptr@VShieldHit@@@std@@U?$less@H@2@V?$allocator@V?$auto_ptr@VShieldHit@@@std@@@2@@2@U?$less@H@2@V?$allocator@V?$auto_ptr@VShieldHit@@@std@@@2@@std@@QAE?AU?$pair@Viterator@?$_Tree@HU?$pair@$$CBHV?$auto_ptr@VShieldHit@@@std@@@std@@U_Kfn@?$map@HV?$auto_ptr@VShieldHit@@@std@@U?$less@H@2@V?$allocator@V?$auto_ptr@VShieldHit@@@std@@@2@@2@U?$less@H@2@V?$allocator@V?$auto_ptr@VShieldHit@@@std@@@2@@std@@_N@2@ABU?$pair@$$CBHV?$auto_ptr@VShieldHit@@@std@@@2@@Z 00474c80 f i ShieldEffect.obj
 0001:00073eb0       ?erase@?$_Tree@HU?$pair@$$CBHV?$auto_ptr@VShieldHit@@@std@@@std@@U_Kfn@?$map@HV?$auto_ptr@VShieldHit@@@std@@U?$less@H@2@V?$allocator@V?$auto_ptr@VShieldHit@@@std@@@2@@2@U?$less@H@2@V?$allocator@V?$auto_ptr@VShieldHit@@@std@@@2@@std@@QAE?AViterator@12@V312@@Z 00474eb0 f i ShieldEffect.obj
 0001:000742e0       ?_Erase@?$_Tree@HU?$pair@$$CBHV?$auto_ptr@VShieldHit@@@std@@@std@@U_Kfn@?$map@HV?$auto_ptr@VShieldHit@@@std@@U?$less@H@2@V?$allocator@V?$auto_ptr@VShieldHit@@@std@@@2@@2@U?$less@H@2@V?$allocator@V?$auto_ptr@VShieldHit@@@std@@@2@@std@@IAEXPAU_Node@12@@Z 004752e0 f i ShieldEffect.obj
 0001:00074330       ?_Insert@?$_Tree@HU?$pair@$$CBHV?$auto_ptr@VShieldHit@@@std@@@std@@U_Kfn@?$map@HV?$auto_ptr@VShieldHit@@@std@@U?$less@H@2@V?$allocator@V?$auto_ptr@VShieldHit@@@std@@@2@@2@U?$less@H@2@V?$allocator@V?$auto_ptr@VShieldHit@@@std@@@2@@std@@IAE?AViterator@12@PAU_Node@12@0ABU?$pair@$$CBHV?$auto_ptr@VShieldHit@@@std@@@2@@Z 00475330 f i ShieldEffect.obj
 0001:000745b0       ?_Lrotate@?$_Tree@HU?$pair@$$CBHV?$auto_ptr@VShieldHit@@@std@@@std@@U_Kfn@?$map@HV?$auto_ptr@VShieldHit@@@std@@U?$less@H@2@V?$allocator@V?$auto_ptr@VShieldHit@@@std@@@2@@2@U?$less@H@2@V?$allocator@V?$auto_ptr@VShieldHit@@@std@@@2@@std@@IAEXPAU_Node@12@@Z 004755b0 f i ShieldEffect.obj
 0001:00074610       ?_Rrotate@?$_Tree@HU?$pair@$$CBHV?$auto_ptr@VShieldHit@@@std@@@std@@U_Kfn@?$map@HV?$auto_ptr@VShieldHit@@@std@@U?$less@H@2@V?$allocator@V?$auto_ptr@VShieldHit@@@std@@@2@@2@U?$less@H@2@V?$allocator@V?$auto_ptr@VShieldHit@@@std@@@2@@std@@IAEXPAU_Node@12@@Z 00475610 f i ShieldEffect.obj
 0001:00074670       ?_Inc@const_iterator@?$_Tree@HU?$pair@$$CBHV?$auto_ptr@VShieldHit@@@std@@@std@@U_Kfn@?$map@HV?$auto_ptr@VShieldHit@@@std@@U?$less@H@2@V?$allocator@V?$auto_ptr@VShieldHit@@@std@@@2@@2@U?$less@H@2@V?$allocator@V?$auto_ptr@VShieldHit@@@std@@@2@@std@@QAEXXZ 00475670 f i ShieldEffect.obj
 0001:000746c0       ?_Lbound@?$_Tree@HU?$pair@$$CBHV?$auto_ptr@VShieldHit@@@std@@@std@@U_Kfn@?$map@HV?$auto_ptr@VShieldHit@@@std@@U?$less@H@2@V?$allocator@V?$auto_ptr@VShieldHit@@@std@@@2@@2@U?$less@H@2@V?$allocator@V?$auto_ptr@VShieldHit@@@std@@@2@@std@@IBEPAU_Node@12@ABH@Z 004756c0 f i ShieldEffect.obj
 0001:000746f0       ?_Buynode@?$_Tree@HU?$pair@$$CBHV?$auto_ptr@VShieldHit@@@std@@@std@@U_Kfn@?$map@HV?$auto_ptr@VShieldHit@@@std@@U?$less@H@2@V?$allocator@V?$auto_ptr@VShieldHit@@@std@@@2@@2@U?$less@H@2@V?$allocator@V?$auto_ptr@VShieldHit@@@std@@@2@@std@@IAEPAU_Node@12@PAU312@W4_Redbl@12@@Z 004756f0 f i ShieldEffect.obj
 0001:00074710       ?_Dec@const_iterator@?$_Tree@HU?$pair@$$CBHV?$auto_ptr@VShieldHit@@@std@@@std@@U_Kfn@?$map@HV?$auto_ptr@VShieldHit@@@std@@U?$less@H@2@V?$allocator@V?$auto_ptr@VShieldHit@@@std@@@2@@2@U?$less@H@2@V?$allocator@V?$auto_ptr@VShieldHit@@@std@@@2@@std@@QAEXXZ 00475710 f i ShieldEffect.obj
 0001:00074770       ?_Construct@std@@YAXPAU?$pair@$$CBHV?$auto_ptr@VShieldHit@@@std@@@1@ABU21@@Z 00475770 f i ShieldEffect.obj
 0001:000747a0       ??_G?$pair@$$CBHV?$auto_ptr@VShieldHit@@@std@@@std@@QAEPAXI@Z 004757a0 f i ShieldEffect.obj
 0001:00074840       ??0WorkerBee@@QAE@XZ       00475840 f   WorkerBee.obj
 0001:00074860       ?CreateBees@WorkerBee@@UAEHPAVGameObject@@@Z 00475860 f   WorkerBee.obj
 0001:00074950       ?CreateBee@WorkerBee@@MAE?AVBee@BeeColony@@PAVGameObject@@PAVST3D_Node@@@Z 00475950 f   WorkerBee.obj
 0001:00074cf0       ?TellOwnerBeeLanded@WorkerBee@@MAEXABVBee@BeeColony@@@Z 00475cf0 f   WorkerBee.obj
 0001:00074d10       ?FindWeldSpot@WorkerBee@@MAEXAAVBee@BeeColony@@@Z 00475d10 f   WorkerBee.obj
 0001:00074e30       ?GetWeldFromLocation@BeeColony@@MAE?AVVector3@@AAVBee@1@@Z 00475e30 f i WorkerBee.obj
 0001:00074e60       ?GetBeeList@WorkerBee@@MAEAAV?$multimap@HVBee@BeeColony@@U?$less@H@std@@V?$allocator@VBee@BeeColony@@@4@@std@@XZ 00475e60 f i WorkerBee.obj
 0001:00074e70       ?GetSplashWindow@@YAPAUHWND__@@XZ 00475e70 f   ArmadaWin.obj
 0001:00074e80       ?Debug_ShowSplashScreen@@YAPAUHWND__@@XZ 00475e80 f   ArmadaWin.obj
 0001:00074f70       _WinMain@16                00475f70 f   ArmadaWin.obj
 0001:000750a0       ?GetMetalExchangeRate@Economy@@SAMH@Z 004760a0 f   Economy.obj
 0001:000750b0       ?GetDilithiumExchangeRate@Economy@@SAMH@Z 004760b0 f   Economy.obj
 0001:00075100       ?TeamHasWeaponClass@ExtraWeaponManager@@SA_NHPAVWeaponClass@@@Z 00476100 f   ExtraWeapons.obj
 0001:00075170       ?AddExtraWeapon@ExtraWeaponManager@@SAXPBVCraftClass@@HPAVWeaponClass@@@Z 00476170 f   ExtraWeapons.obj
 0001:000752e0       ?RemoveExtraWeapon@ExtraWeaponManager@@SAXPBVCraftClass@@HPAVWeaponClass@@@Z 004762e0 f   ExtraWeapons.obj
 0001:00075400       ?mFindWeaponList@ExtraWeaponManager@@KAPAVExtraWeaponList@@PBVCraftClass@@@Z 00476400 f   ExtraWeapons.obj
 0001:00075440       ?GetExtraWeaponList@ExtraWeaponManager@@SAPBV?$DynArray@PAVWeaponClass@@@@PBVCraftClass@@H@Z 00476440 f   ExtraWeapons.obj
 0001:00075690       ?Cleanup@ExtraWeaponManager@@SAXXZ 00476690 f   ExtraWeapons.obj
 0001:00075730       ?Save@ExtraWeaponManager@@SA_NAAVFileWriter@@@Z 00476730 f   ExtraWeapons.obj
 0001:000757a0       ?Load@ExtraWeaponManager@@SA_NAAVFileReader@@@Z 004767a0 f   ExtraWeapons.obj
 0001:000759c0       ?mAddWeaponClass@ExtraWeaponList@@IAEXPAVWeaponClass@@H@Z 004769c0 f   ExtraWeapons.obj
 0001:00075ab0       ?mRemoveWeaponClass@ExtraWeaponList@@IAEXPAVWeaponClass@@H@Z 00476ab0 f   ExtraWeapons.obj
 0001:00075b00       ?Save@ExtraWeaponList@@QAE_NAAVFileWriter@@@Z 00476b00 f   ExtraWeapons.obj
 0001:00075ba0       ?Load@ExtraWeaponList@@QAE_NAAVFileReader@@@Z 00476ba0 f   ExtraWeapons.obj
 0001:00075d50       ??1?$DynArray@PAVExtraWeaponList@@@@QAE@XZ 00476d50 f i ExtraWeapons.obj
 0001:00075da0       ??_F?$DynArray@PAVWeaponClass@@@@QAEXXZ 00476da0 f i ExtraWeapons.obj
 0001:00075db0       ??1?$DynArray@PAVWeaponClass@@@@QAE@XZ 00476db0 f i ExtraWeapons.obj
 0001:00075e00       ??0?$DynArray@PAVWeaponClass@@@@QAE@H@Z 00476e00 f i ExtraWeapons.obj
 0001:00075e30       ??0?$DynArray@PAVExtraWeaponList@@@@QAE@H@Z 00476e30 f i ExtraWeapons.obj
 0001:00075e60       ??1ExtraWeaponList@@QAE@XZ 00476e60 f i ExtraWeapons.obj
 0001:00075e70       ?SetSize@?$DynArrayGrowthRate@PAVWeaponClass@@$20AEC@@@QAEXH@Z 00476e70 f i ExtraWeapons.obj
 0001:00075f40       ?SetCapacity@?$DynArrayGrowthRate@PAVWeaponClass@@$20AEC@@@QAEXH@Z 00476f40 f i ExtraWeapons.obj
 0001:00075fe0       ?SetCapacity@?$DynArrayGrowthRate@PAVExtraWeaponList@@$20AEC@@@QAEXH@Z 00476fe0 f i ExtraWeapons.obj
 0001:000760b0       ?FontInit@@YAXH@Z          004770b0 f   Fonts.obj
 0001:000762e0       ?FontShutdown@@YAXXZ       004772e0 f   Fonts.obj
 0001:000763e0       ?FontNewScreenWidth@@YAXH@Z 004773e0 f   Fonts.obj
 0001:000765b0       ?Load@cFontSet@@QAEXPBDH@Z 004775b0 f i Fonts.obj
 0001:000766f0       ??0GameBalance@@QAE@XZ     004776f0 f   GameBalance.obj
 0001:000768b0       ??1GameBalance@@QAE@XZ     004778b0 f   GameBalance.obj
 0001:000769c0       ?Simulate@GameBalance@@QAEXXZ 004779c0 f   GameBalance.obj
 0001:00076a60       ?SetResourceLimit@GameBalance@@QAEXH@Z 00477a60 f   GameBalance.obj
 0001:00076a70       ?TestJustThisRace@GameBalance@@QAEXHH@Z 00477a70 f   GameBalance.obj
 0001:00076ab0       ?TestJustThisShip@GameBalance@@QAEXPBD@Z 00477ab0 f   GameBalance.obj
 0001:00076af0       ?TestAgainstJustThisShip@GameBalance@@QAEXPBD@Z 00477af0 f   GameBalance.obj
 0001:00076b30       ?TestJustThisClass@GameBalance@@QAEXW4eShipTypeInfo@@@Z 00477b30 f   GameBalance.obj
 0001:00076b40       ?GenerateValidShipClasses@GameBalance@@IAEXXZ 00477b40 f   GameBalance.obj
 0001:00076e40       ?IsCurrentFightDone@GameBalance@@IAE_NXZ 00477e40 f   GameBalance.obj
 0001:000770a0       ?AllShipsAreDead@GameBalance@@IAE_NHABV?$vector@HV?$allocator@H@std@@@std@@@Z 004780a0 f   GameBalance.obj
 0001:00077120       ?GenerateShips@GameBalance@@IAEMMMHAAV?$vector@PAVGameObjectClass@@V?$allocator@PAVGameObjectClass@@@std@@@std@@AAV?$vector@HV?$allocator@H@std@@@3@1@Z 00478120 f   GameBalance.obj
 0001:00077430       ?StartFight@GameBalance@@IAEXAAV?$vector@PAVGameObjectClass@@V?$allocator@PAVGameObjectClass@@@std@@@std@@0@Z 00478430 f   GameBalance.obj
 0001:00077a40       ?TallySurvivingValue@GameBalance@@IAEMHV?$vector@HV?$allocator@H@std@@@std@@@Z 00478a40 f   GameBalance.obj
 0001:00077b30       ?ClearOldShips@GameBalance@@IAEXAAV?$vector@HV?$allocator@H@std@@@std@@@Z 00478b30 f   GameBalance.obj
 0001:00077bd0       ?GenerateNextFightCombination@GameBalance@@IAE_NXZ 00478bd0 f   GameBalance.obj
 0001:00077de0       ?LogCombatResults@GameBalance@@IAEXXZ 00478de0 f   GameBalance.obj
 0001:00078000       ?SwitchToNextRace@GameBalance@@IAE_NXZ 00479000 f   GameBalance.obj
 0001:00078080       ??_F?$vector@HV?$allocator@H@std@@@std@@QAEXXZ 00479080 f i GameBalance.obj
 0001:000780a0       ??_E?$vector@PAVGameObjectClass@@V?$allocator@PAVGameObjectClass@@@std@@@std@@QAEPAXI@Z 004790a0 f i GameBalance.obj
 0001:00078110       ??_F?$vector@PAVGameObjectClass@@V?$allocator@PAVGameObjectClass@@@std@@@std@@QAEXXZ 00479110 f i GameBalance.obj
 0001:00078130       ?GetCraftEvenIfDestroyed@Craft@@SAPAV1@H@Z 00479130 f i GameBalance.obj
 0001:00078150       ?erase@?$vector@HV?$allocator@H@std@@@std@@QAEPAHPAH0@Z 00479150 f i GameBalance.obj
 0001:00078190       ??1?$vector@PAVGameObjectClass@@V?$allocator@PAVGameObjectClass@@@std@@@std@@QAE@XZ 00479190 f i GameBalance.obj
 0001:000781c0       ?_Ucopy@?$vector@HV?$allocator@H@std@@@std@@IAEPAHPBH0PAH@Z 004791c0 f i GameBalance.obj
 0001:000781f0       ?_Destroy@?$vector@PAVGameObjectClass@@V?$allocator@PAVGameObjectClass@@@std@@@std@@IAEXPAPAVGameObjectClass@@0@Z 004791f0 f i GameBalance.obj
 0001:00078200       ?insert@?$vector@PAVGameObjectClass@@V?$allocator@PAVGameObjectClass@@@std@@@std@@QAEXPAPAVGameObjectClass@@IABQAV3@@Z 00479200 f i GameBalance.obj
 0001:00078410       ?_Ufill@?$vector@HV?$allocator@H@std@@@std@@IAEXPAHIABH@Z 00479410 f i GameBalance.obj
 0001:00078440       ?Game_Configure@@YAHXZ     00479440 f   GameConfig.obj
 0001:00078590       ?Cleanup@GameEvent@@SAXXZ  00479590 f   GameEvent.obj
 0001:000786d0       ??1GameEvent@@IAE@XZ       004796d0 f   GameEvent.obj
 0001:00078760       ?mSaveLocation@GameEvent@@KAXABVVector3@@@Z 00479760 f   GameEvent.obj
 0001:000787c0       ?ResetTimers@GameEvent@@SAXXZ 004797c0 f   GameEvent.obj
 0001:00078800       ?mTriggerRaceSound@GameEvent@@IAEXPBVRace@@@Z 00479800 f   GameEvent.obj
 0001:00078880       ?TriggerEvent@GameEvent@@QAE_NXZ 00479880 f   GameEvent.obj
 0001:000789a0       ?TriggerEvent@GameEvent@@QAE_NABVVector3@@HPBVRace@@@Z 004799a0 f   GameEvent.obj
 0001:00078b60       ?ShowCinematic@GameEvent@@QAEXPAVGameObject@@@Z 00479b60 f   GameEvent.obj
 0001:00078b70       ?TriggerEvent@GameEvent@@QAE_NPAVGameObject@@PBVRace@@@Z 00479b70 f   GameEvent.obj
 0001:00078bb0       ?TriggerEvent@GameEvent@@QAE_NPBVRace@@@Z 00479bb0 f   GameEvent.obj
 0001:00078ce0       ??0SoundTable@GameEvent@@QAE@XZ 00479ce0 f   GameEvent.obj
 0001:00078d20       ??1SoundTable@GameEvent@@QAE@XZ 00479d20 f   GameEvent.obj
 0001:00078d90       ?Get@GameEvent@@SA_NPBDABV?$basic_string@DU?$char_traits@D@std@@V?$allocator@D@2@@std@@PAM@Z 00479d90 f   GameEvent.obj
 0001:00078ff0       ?Get@GameEvent@@SA_NPBDABV?$basic_string@DU?$char_traits@D@std@@V?$allocator@D@2@@std@@PAM22@Z 00479ff0 f   GameEvent.obj
 0001:00079270       ?Get@GameEvent@@SA_NPBDABV?$basic_string@DU?$char_traits@D@std@@V?$allocator@D@2@@std@@PAH@Z 0047a270 f   GameEvent.obj
 0001:000794d0       ?Get@GameEvent@@SA_NPBDABV?$basic_string@DU?$char_traits@D@std@@V?$allocator@D@2@@std@@PA_N@Z 0047a4d0 f   GameEvent.obj
 0001:00079730       ?Get@GameEvent@@SA_NABV?$basic_string@DU?$char_traits@D@std@@V?$allocator@D@2@@std@@AAV23@DD@Z 0047a730 f   GameEvent.obj
 0001:000798e0       ?Get@GameEvent@@SA_NPBDABV?$basic_string@DU?$char_traits@D@std@@V?$allocator@D@2@@std@@AAV23@DD@Z 0047a8e0 f   GameEvent.obj
 0001:00079ac0       ?ReadString@GameEvent@@SA_NPBDABV?$basic_string@DU?$char_traits@D@std@@V?$allocator@D@2@@std@@AAV23@@Z 0047aac0 f   GameEvent.obj
 0001:00079ae0       ?Find@GameEvent@@SAPAV1@PBD@Z 0047aae0 f   GameEvent.obj
 0001:00079b60       ?AddSound@SoundTable@GameEvent@@QAEHPADPBD@Z 0047ab60 f   GameEvent.obj
 0001:00079bc0       ?AddSound@SoundTable@GameEvent@@QAEHPAD@Z 0047abc0 f   GameEvent.obj
 0001:00079c20       ?CopySounds@SoundTable@GameEvent@@QAEXABV?$basic_string@DU?$char_traits@D@std@@V?$allocator@D@2@@std@@@Z 0047ac20 f   GameEvent.obj
 0001:00079fa0       ?Read@GameEvent@@QAE_NAAV?$basic_istream@DU?$char_traits@D@std@@@std@@@Z 0047afa0 f   GameEvent.obj
 0001:0007a9f0       ?ReadList@GameEvent@@SA_NXZ 0047b9f0 f   GameEvent.obj
 0001:0007ad70       ??0strstreambuf@std@@QAE@PBDH@Z 0047bd70 f i GameEvent.obj
 0001:0007ae60       ??_Gstrstreambuf@std@@UAEPAXI@Z 0047be60 f i GameEvent.obj
 0001:0007ae60       ??_Estrstreambuf@std@@UAEPAXI@Z 0047be60 f i GameEvent.obj
 0001:0007ae90       ??_Eistrstream@std@@UAEPAXI@Z 0047be90 f i GameEvent.obj
 0001:0007ae90       ??_Gistrstream@std@@UAEPAXI@Z 0047be90 f i GameEvent.obj
 0001:0007aed0       ??_Distrstream@std@@QAEXXZ 0047bed0 f i GameEvent.obj
 0001:0007aef0       ?size@?$vector@PAVGameEvent@@V?$allocator@PAVGameEvent@@@std@@@std@@QBEIXZ 0047bef0 f i GameEvent.obj
 0001:0007af10       ?insert@?$vector@PAVGameEvent@@V?$allocator@PAVGameEvent@@@std@@@std@@QAEPAPAVGameEvent@@PAPAV3@ABQAV3@@Z 0047bf10 f i GameEvent.obj
 0001:0007b0d0       ?_Destroy@?$vector@PAVGameEvent@@V?$allocator@PAVGameEvent@@@std@@@std@@IAEXPAPAVGameEvent@@0@Z 0047c0d0 f i GameEvent.obj
 0001:0007b0e0       ?_Ucopy@?$vector@PAVGameEvent@@V?$allocator@PAVGameEvent@@@std@@@std@@IAEPAPAVGameEvent@@PBQAV3@0PAPAV3@@Z 0047c0e0 f i GameEvent.obj
 0001:0007b110       ?_Ufill@?$vector@PAVGameEvent@@V?$allocator@PAVGameEvent@@@std@@@std@@IAEXPAPAVGameEvent@@IABQAV3@@Z 0047c110 f i GameEvent.obj
 0001:0007b140       ?_Construct@std@@YAXPAPAVGameEvent@@ABQAV2@@Z 0047c140 f i GameEvent.obj
 0001:0007b8b0       ??0GameType@@QAE@XZ        0047c8b0 f   GameType.obj
 0001:0007b8c0       ??1GameType@@UAE@XZ        0047c8c0 f   GameType.obj
 0001:0007b8d0       ?Load@GameType@@UAEXAAVFileReader@@@Z 0047c8d0 f   GameType.obj
 0001:0007b8e0       ?Save@GameType@@UAEXAAVFileWriter@@@Z 0047c8e0 f   GameType.obj
 0001:0007b910       ?Create@GameTypeFactory@@SAPAVGameType@@ABVGameSetup@@@Z 0047c910 f   GameType.obj
 0001:0007bdf0       ??0Matrix34@@QAE@XZ        0047cdf0 f i GameType.obj
 0001:0007be00       ?PreLoad@GameTypeDLLMission@@UAEXXZ 0047ce00 f i GameType.obj
 0001:0007be10       ?PostLoad@GameTypeDLLMission@@UAEXXZ 0047ce10 f i GameType.obj
 0001:0007be20       ?Simulate@GameTypeDLLMission@@UAEXXZ 0047ce20 f i GameType.obj
 0001:0007be30       ?Render@GameTypeDLLMission@@UAEXXZ 0047ce30 f i GameType.obj
 0001:0007be40       ?IsMission@GameTypeDLLMission@@UBE_NXZ 0047ce40 f i GameType.obj
 0001:0007be50       ?CanAiPlay@GameTypeDLLMission@@UBE_NXZ 0047ce50 f i GameType.obj
 0001:0007be60       ?Load@GameTypeDLLMission@@UAEXAAVFileReader@@@Z 0047ce60 f i GameType.obj
 0001:0007be70       ?Save@GameTypeDLLMission@@UAEXAAVFileWriter@@@Z 0047ce70 f i GameType.obj
 0001:0007be80       ?CanSave@GameTypeDLLMission@@UBE_NXZ 0047ce80 f i GameType.obj
 0001:0007be90       ?IsFlag@GameTypeDLLMission@@UBE_NH@Z 0047ce90 f i GameType.obj
 0001:0007bea0       ??_EGameTypeDLLMission@@UAEPAXI@Z 0047cea0 f i GameType.obj
 0001:0007bea0       ??_GGameTypeDLLMission@@UAEPAXI@Z 0047cea0 f i GameType.obj
 0001:0007bed0       ??1GameTypeDLLMission@@UAE@XZ 0047ced0 f i GameType.obj
 0001:0007bee0       ??0GameTypeGeneral@@QAE@XZ 0047cee0 f i GameType.obj
 0001:0007bf10       ?PreLoad@GameTypeGeneral@@UAEXXZ 0047cf10 f i GameType.obj
 0001:0007bf60       ?PostLoad@GameTypeGeneral@@UAEXXZ 0047cf60 f i GameType.obj
 0001:0007bf70       ?Simulate@GameTypeGeneral@@UAEXXZ 0047cf70 f i GameType.obj
 0001:0007c0c0       ?IsMission@GameTypeGeneral@@UBE_NXZ 0047d0c0 f i GameType.obj
 0001:0007c0d0       ?CanAiPlay@GameTypeGeneral@@UBE_NXZ 0047d0d0 f i GameType.obj
 0001:0007c0e0       ?Render@GameTypeGeneral@@UAEXXZ 0047d0e0 f i GameType.obj
 0001:0007c0f0       ?Load@GameTypeGeneral@@UAEXAAVFileReader@@@Z 0047d0f0 f i GameType.obj
 0001:0007c150       ?Save@GameTypeGeneral@@UAEXAAVFileWriter@@@Z 0047d150 f i GameType.obj
 0001:0007c1c0       ?CanSave@GameTypeGeneral@@UBE_NXZ 0047d1c0 f i GameType.obj
 0001:0007c1d0       ?IsFlag@GameTypeGeneral@@UBE_NH@Z 0047d1d0 f i GameType.obj
 0001:0007c1e0       ?SetGameOverMessage@GameTypeGeneral@@MAEXPBD@Z 0047d1e0 f i GameType.obj
 0001:0007c250       ?CheckAll@GameTypeGeneral@@MAEXXZ 0047d250 f i GameType.obj
 0001:0007c260       ?CheckStartLocation@GameTypeGeneral@@MAEXH@Z 0047d260 f i GameType.obj
 0001:0007c270       ?MessageYouWereEliminated@GameTypeGeneral@@MAEXXZ 0047d270 f i GameType.obj
 0001:0007c2b0       ?MessageStartLocationEliminated@GameTypeGeneral@@MAEXH@Z 0047d2b0 f i GameType.obj
 0001:0007c420       ?MessageYouAreVictorious@GameTypeGeneral@@MAEXXZ 0047d420 f i GameType.obj
 0001:0007c450       ?MessageYouAreVanquished@GameTypeGeneral@@MAEXXZ 0047d450 f i GameType.obj
 0001:0007c480       ?GetPlayerNames@GameTypeGeneral@@ABE?AV?$vector@V?$basic_string@DU?$char_traits@D@std@@V?$allocator@D@2@@std@@V?$allocator@V?$basic_string@DU?$char_traits@D@std@@V?$allocator@D@2@@std@@@2@@std@@H@Z 0047d480 f i GameType.obj
 0001:0007c610       ?SetAllActive@GameTypeGeneral@@AAEXW4StartLocationState@1@@Z 0047d610 f i GameType.obj
 0001:0007c630       ?GameOver@GameTypeGeneral@@AAEXXZ 0047d630 f i GameType.obj
 0001:0007c6f0       ?DisplayVictoriousPlayers@GameTypeGeneral@@ABEXABV?$basic_string@DU?$char_traits@D@std@@V?$allocator@D@2@@std@@@Z 0047d6f0 f i GameType.obj
 0001:0007c8b0       ?GetVictoriousPlayerNames@GameTypeGeneral@@ABE?AV?$vector@V?$basic_string@DU?$char_traits@D@std@@V?$allocator@D@2@@std@@V?$allocator@V?$basic_string@DU?$char_traits@D@std@@V?$allocator@D@2@@std@@@2@@std@@XZ 0047d8b0 f i GameType.obj
 0001:0007ca50       ??_GGameTypeGeneral@@UAEPAXI@Z 0047da50 f i GameType.obj
 0001:0007ca50       ??_EGameTypeGeneral@@UAEPAXI@Z 0047da50 f i GameType.obj
 0001:0007ca80       ??1GameTypeGeneral@@UAE@XZ 0047da80 f i GameType.obj
 0001:0007ca90       ??0GameTypeToTheDeath@@QAE@XZ 0047da90 f i GameType.obj
 0001:0007cad0       ?CheckAll@GameTypeToTheDeath@@UAEXXZ 0047dad0 f i GameType.obj
 0001:0007cbe0       ??1GameTypeToTheDeath@@UAE@XZ 0047dbe0 f i GameType.obj
 0001:0007cbf0       ?Render@GameTypeToTheDeath@@UAEXXZ 0047dbf0 f i GameType.obj
 0001:0007cc60       ?Load@GameTypeToTheDeath@@UAEXAAVFileReader@@@Z 0047dc60 f i GameType.obj
 0001:0007cce0       ?Save@GameTypeToTheDeath@@UAEXAAVFileWriter@@@Z 0047dce0 f i GameType.obj
 0001:0007cd70       ??_GGameTypeToTheDeath@@UAEPAXI@Z 0047dd70 f i GameType.obj
 0001:0007cd70       ??_EGameTypeToTheDeath@@UAEPAXI@Z 0047dd70 f i GameType.obj
 0001:0007cda0       ?CanAiPlay@GameTypeTeamOrAlliance@@UBE_NXZ 0047dda0 f i GameType.obj
 0001:0007cdb0       ?Render@GameTypeCaptureTheFlag@@UAEXXZ 0047ddb0 f i GameType.obj
 0001:0007d150       ?PostLoad@GameTypeCaptureTheFlag@@UAEXXZ 0047e150 f i GameType.obj
 0001:0007d580       ?CheckStartLocation@GameTypeCaptureTheFlag@@UAEXH@Z 0047e580 f i GameType.obj
 0001:0007d8a0       ?Eliminate@GameTypeGeneral@@IAEXH@Z 0047e8a0 f i GameType.obj
 0001:0007d930       ?Load@GameTypeCaptureTheFlag@@UAEXAAVFileReader@@@Z 0047e930 f i GameType.obj
 0001:0007d9f0       ?Save@GameTypeCaptureTheFlag@@UAEXAAVFileWriter@@@Z 0047e9f0 f i GameType.obj
 0001:0007dac0       ?IsFlag@GameTypeCaptureTheFlag@@UBE_NH@Z 0047eac0 f i GameType.obj
 0001:0007daf0       ?ProcessFlagTowingAlly@GameTypeCaptureTheFlag@@AAEXAAVGameObject@@0AAVTractorBeam@@@Z 0047eaf0 f i GameType.obj
 0001:0007db40       ?ProcessFlagTowingNot@GameTypeCaptureTheFlag@@AAEXAAVGameObject@@_N@Z 0047eb40 f i GameType.obj
 0001:0007dbc0       ?ProcessFlagCapture@GameTypeCaptureTheFlag@@AAEXAAVGameObject@@@Z 0047ebc0 f i GameType.obj
 0001:0007dcd0       ??_GGameTypeCaptureTheFlag@@UAEPAXI@Z 0047ecd0 f i GameType.obj
 0001:0007dcd0       ??_EGameTypeCaptureTheFlag@@UAEPAXI@Z 0047ecd0 f i GameType.obj
 0001:0007dd00       ??1GameTypeCaptureTheFlag@@UAE@XZ 0047ed00 f i GameType.obj
 0001:0007dd90       ??0GameTypeAssault@@QAE@XZ 0047ed90 f i GameType.obj
 0001:0007e180       ?CheckAll@GameTypeAssault@@UAEXXZ 0047f180 f i GameType.obj
 0001:0007e2f0       ?Render@GameTypeAssault@@UAEXXZ 0047f2f0 f i GameType.obj
 0001:0007e780       ?Load@GameTypeAssault@@UAEXAAVFileReader@@@Z 0047f780 f i GameType.obj
 0001:0007e820       ?Save@GameTypeAssault@@UAEXAAVFileWriter@@@Z 0047f820 f i GameType.obj
 0001:0007e8e0       ?MessageYouAreVictorious@GameTypeAssault@@MAEXXZ 0047f8e0 f i GameType.obj
 0001:0007e930       ?MessageYouAreVanquished@GameTypeAssault@@MAEXXZ 0047f930 f i GameType.obj
 0001:0007e980       ??_EGameTypeAssault@@UAEPAXI@Z 0047f980 f i GameType.obj
 0001:0007e980       ??_GGameTypeAssault@@UAEPAXI@Z 0047f980 f i GameType.obj
 0001:0007e9b0       ??1GameTypeAssault@@UAE@XZ 0047f9b0 f i GameType.obj
 0001:0007eb00       ?PostLoad@GameTypeCollectLatinum@@UAEXXZ 0047fb00 f i GameType.obj
 0001:0007ebd0       ?CheckAll@GameTypeCollectLatinum@@UAEXXZ 0047fbd0 f i GameType.obj
 0001:0007f130       ?Load@GameTypeCollectLatinum@@UAEXAAVFileReader@@@Z 00480130 f i GameType.obj
 0001:0007f1c0       ?Save@GameTypeCollectLatinum@@UAEXAAVFileWriter@@@Z 004801c0 f i GameType.obj
 0001:0007f260       ?MessageYouAreVictorious@GameTypeCollectLatinum@@EAEXXZ 00480260 f i GameType.obj
 0001:0007f2b0       ?MessageYouAreVanquished@GameTypeCollectLatinum@@EAEXXZ 004802b0 f i GameType.obj
 0001:0007f300       ??_GGameTypeCollectLatinum@@UAEPAXI@Z 00480300 f i GameType.obj
 0001:0007f300       ??_EGameTypeCollectLatinum@@UAEPAXI@Z 00480300 f i GameType.obj
 0001:0007f330       ??1GameTypeCollectLatinum@@UAE@XZ 00480330 f i GameType.obj
 0001:0007f370       ?PostLoad@GameTypeColonizePlanets@@UAEXXZ 00480370 f i GameType.obj
 0001:0007f400       ?CheckAll@GameTypeColonizePlanets@@UAEXXZ 00480400 f i GameType.obj
 0001:0007f5f0       ?Load@GameTypeColonizePlanets@@UAEXAAVFileReader@@@Z 004805f0 f i GameType.obj
 0001:0007f680       ?Save@GameTypeColonizePlanets@@UAEXAAVFileWriter@@@Z 00480680 f i GameType.obj
 0001:0007f720       ?MessageYouAreVictorious@GameTypeColonizePlanets@@MAEXXZ 00480720 f i GameType.obj
 0001:0007f770       ??_GGameTypeColonizePlanets@@UAEPAXI@Z 00480770 f i GameType.obj
 0001:0007f770       ??_EGameTypeColonizePlanets@@UAEPAXI@Z 00480770 f i GameType.obj
 0001:0007f7a0       ??1GameTypeColonizePlanets@@UAE@XZ 004807a0 f i GameType.obj
 0001:0007f7e0       ??0GameTypeDefendPlanet@@QAE@XZ 004807e0 f i GameType.obj
 0001:0007f820       ?PostLoad@GameTypeDefendPlanet@@UAEXXZ 00480820 f i GameType.obj
 0001:0007f9a0       ?CheckStartLocation@GameTypeDefendPlanet@@UAEXH@Z 004809a0 f i GameType.obj
 0001:0007fa50       ?MessageYouWereEliminated@GameTypeDefendPlanet@@MAEXXZ 00480a50 f i GameType.obj
 0001:0007fa90       ??_GGameTypeDefendPlanet@@UAEPAXI@Z 00480a90 f i GameType.obj
 0001:0007fa90       ??_EGameTypeDefendPlanet@@UAEPAXI@Z 00480a90 f i GameType.obj
 0001:0007fac0       ??1GameTypeDefendPlanet@@UAE@XZ 00480ac0 f i GameType.obj
 0001:0007fad0       ??0GameTypeUnknown@@QAE@XZ 00480ad0 f i GameType.obj
 0001:0007fae0       ?PreLoad@GameTypeUnknown@@UAEXXZ 00480ae0 f i GameType.obj
 0001:0007faf0       ?PostLoad@GameTypeUnknown@@UAEXXZ 00480af0 f i GameType.obj
 0001:0007fb00       ?Simulate@GameTypeUnknown@@UAEXXZ 00480b00 f i GameType.obj
 0001:0007fb10       ?Render@GameTypeUnknown@@UAEXXZ 00480b10 f i GameType.obj
 0001:0007fb20       ?IsMission@GameTypeUnknown@@UBE_NXZ 00480b20 f i GameType.obj
 0001:0007fb30       ?CanAiPlay@GameTypeUnknown@@UBE_NXZ 00480b30 f i GameType.obj
 0001:0007fb40       ?Load@GameTypeUnknown@@UAEXAAVFileReader@@@Z 00480b40 f i GameType.obj
 0001:0007fb50       ?Save@GameTypeUnknown@@UAEXAAVFileWriter@@@Z 00480b50 f i GameType.obj
 0001:0007fb60       ?CanSave@GameTypeUnknown@@UBE_NXZ 00480b60 f i GameType.obj
 0001:0007fb70       ?IsFlag@GameTypeUnknown@@UBE_NH@Z 00480b70 f i GameType.obj
 0001:0007fb80       ??_GGameTypeUnknown@@UAEPAXI@Z 00480b80 f i GameType.obj
 0001:0007fb80       ??_EGameTypeUnknown@@UAEPAXI@Z 00480b80 f i GameType.obj
 0001:0007fbb0       ??1GameTypeUnknown@@UAE@XZ 00480bb0 f i GameType.obj
 0001:0007fbc0       ??_EGameTypeTeamOrAlliance@@UAEPAXI@Z 00480bc0 f i GameType.obj
 0001:0007fbc0       ??_GGameTypeTeamOrAlliance@@UAEPAXI@Z 00480bc0 f i GameType.obj
 0001:0007fbf0       ??1GameTypeTeamOrAlliance@@UAE@XZ 00480bf0 f i GameType.obj
 0001:0007fc00       ??1?$vector@V?$basic_string@DU?$char_traits@D@std@@V?$allocator@D@2@@std@@V?$allocator@V?$basic_string@DU?$char_traits@D@std@@V?$allocator@D@2@@std@@@2@@std@@QAE@XZ 00480c00 f i GameType.obj
 0001:0007fc70       ??0?$vector@HV?$allocator@H@std@@@std@@QAE@ABV?$allocator@H@1@@Z 00480c70 f i GameType.obj
 0001:0007fc90       ?Search@?$Range@H@@QAEXMMMAAV?$Generic_Range_Search_Results@H@@@Z 00480c90 f i GameType.obj
 0001:0007fdf0       ?Get_Next_Object@?$Generic_Range_Search_Results@H@@QAE_NAAPAH@Z 00480df0 f i GameType.obj
 0001:0007fe90       ??0?$vector@MV?$allocator@M@std@@@std@@QAE@ABV?$allocator@M@1@@Z 00480e90 f i GameType.obj
 0001:0007feb0       ??1?$vector@PAVPlanet@@V?$allocator@PAVPlanet@@@std@@@std@@QAE@XZ 00480eb0 f i GameType.obj
 0001:0007fee0       ??_G?$basic_string@DU?$char_traits@D@std@@V?$allocator@D@2@@std@@QAEPAXI@Z 00480ee0 f i GameType.obj
 0001:0007ff40       ?insert@?$vector@MV?$allocator@M@std@@@std@@QAEPAMPAMABM@Z 00480f40 f i GameType.obj
 0001:00080100       ?insert@?$vector@V?$basic_string@DU?$char_traits@D@std@@V?$allocator@D@2@@std@@V?$allocator@V?$basic_string@DU?$char_traits@D@std@@V?$allocator@D@2@@std@@@2@@std@@QAEXPAV?$basic_string@DU?$char_traits@D@std@@V?$allocator@D@2@@2@IABV32@@Z 00481100 f i GameType.obj
 0001:000803c0       ?insert@?$vector@PAVPlanet@@V?$allocator@PAVPlanet@@@std@@@std@@QAEXPAPAVPlanet@@IABQAV3@@Z 004813c0 f i GameType.obj
 0001:000805d0       ?_Construct@std@@YAXPAV?$basic_string@DU?$char_traits@D@std@@V?$allocator@D@2@@1@ABV21@@Z 004815d0 f i GameType.obj
 0001:00080840       ??0LoadSaveTester@@QAE@XZ  00481840 f   LoadSaveTester.obj
 0001:00080850       ?Simulate@LoadSaveTester@@QAEXXZ 00481850 f   LoadSaveTester.obj
 0001:00080960       ??0Localized_Strings@@QAE@XZ 00481960 f   Localized_Strings.obj
 0001:00080990       ??1Localized_Strings@@QAE@XZ 00481990 f   Localized_Strings.obj
 0001:00080a20       ?Load_Dynamic_String_File@Localized_Strings@@QAEXPAD@Z 00481a20 f   Localized_Strings.obj
 0001:00080c90       ?Localize@Localized_Strings@@QAEPBDPBD@Z 00481c90 f   Localized_Strings.obj
 0001:00080d70       ?LocalizeString@Localized_Strings@@QAE?AV?$basic_string@DU?$char_traits@D@std@@V?$allocator@D@2@@std@@ABV23@@Z 00481d70 f   Localized_Strings.obj
 0001:00080f20       ?Add_To_Hash_Table@Localized_Strings@@IAEXPAD0@Z 00481f20 f   Localized_Strings.obj
 0001:000810d0       ?Hash_The_String@Localized_Strings@@IAEHPBD@Z 004820d0 f   Localized_Strings.obj
 0001:00081150       ?Look_Up_Translation@Localized_Strings@@IAEPADPBD@Z 00482150 f   Localized_Strings.obj
 0001:00081200       ?LocalizeDateTime@@YAXPADHABJ@Z 00482200 f   Localized_Strings.obj
 0001:00081300       ?LocalizeHotkeyTooltip@@YA?AV?$basic_string@DU?$char_traits@D@std@@V?$allocator@D@2@@std@@PBD@Z 00482300 f   Localized_Strings.obj
 0001:000815e0       ??0Nebula_Map@@QAE@XZ      004825e0 f   Nebula_Map.obj
 0001:000816d0       ??1Nebula_Map@@QAE@XZ      004826d0 f   Nebula_Map.obj
 0001:00081730       ?Clear@Nebula_Map@@QAEXXZ  00482730 f   Nebula_Map.obj
 0001:00081780       ?Add_Nebula@Nebula_Map@@QAEXABVVector3@@ABMHH@Z 00482780 f   Nebula_Map.obj
 0001:00081980       ?Subtract_Nebula@Nebula_Map@@QAEXABVVector3@@ABMH@Z 00482980 f   Nebula_Map.obj
 0001:000819a0       ?Compute_Connected_Regions@Nebula_Map@@QAEXXZ 004829a0 f   Nebula_Map.obj
 0001:000819f0       ?What_Nebula_Are_We_In@Nebula_Map@@QAEXABVVector3@@AAG_N@Z 004829f0 f   Nebula_Map.obj
 0001:00081a80       ?What_Type_Of_Nebula_Are_We_In@Nebula_Map@@QAEXPAVCraft@@QAH@Z 00482a80 f   Nebula_Map.obj
 0001:00081b50       ?Apply_Nebula_Effects_To_All_Craft@Nebula_Map@@QAEXM@Z 00482b50 f   Nebula_Map.obj
 0001:00081cd0       ?Determine_Nebulae_Affecting@Nebula_Map@@QAEXPBVVector3@@QAH@Z 00482cd0 f   Nebula_Map.obj
 0001:00081d80       ?DetermineDangerousNebulaeAffecting@Nebula_Map@@QAEXPBVVector3@@QAH@Z 00482d80 f   Nebula_Map.obj
 0001:00081e70       ?IsAffectedByDangerousNebulae@Nebula_Map@@QAE_NPBVVector3@@@Z 00482e70 f   Nebula_Map.obj
 0001:00081f60       ?IsAffectedByTargetDisablingNebula@Nebula_Map@@QAE_NABVVector3@@@Z 00482f60 f   Nebula_Map.obj
 0001:00082030       ?Get_Nebula_Cell_Size@Nebula_Map@@QAEMXZ 00483030 f   Nebula_Map.obj
 0001:00082040       ?Get_Cell_Center_In_World_Coordinates@Nebula_Map@@IAEXABH0AAVVector3@@@Z 00483040 f   Nebula_Map.obj
 0001:00082100       ??0Program@@QAE@XZ         00483100 f   Program.obj
 0001:000821b0       ??1Program@@QAE@XZ         004831b0 f   Program.obj
 0001:00082220       ?cleanup_before_exit@@YAXXZ 00483220 f   Program.obj
 0001:00082250       ?ControlWeapons@@YAXM@Z    00483250 f   Program.obj
 0001:00082290       ?Simulate@@YAXM@Z          00483290 f   Program.obj
 0001:000823a0       ?clear_events@@YAXXZ       004833a0 f   Program.obj
 0001:00082450       ?GameProcess@Program@@QAEXH@Z 00483450 f   Program.obj
 0001:00082680       ?DisplayInputProcess@Program@@QAEXHAAVRoundBuffer@@@Z 00483680 f   Program.obj
 0001:00082b00       ?GameStateDump@Program@@QAEXH@Z 00483b00 f   Program.obj
 0001:00082d50       ?SetWindowsState@Program@@QAEXPAX0PAD@Z 00483d50 f   Program.obj
 0001:00082d70       ?DisableTaskSwitching@@YAXXZ 00483d70 f   Program.obj
 0001:00082dd0       ?EnableTaskSwitching@@YAXXZ 00483dd0 f   Program.obj
 0001:00082e10       ?SystemOpen@Program@@QAE_NXZ 00483e10 f   Program.obj
 0001:000834d0       ?SystemClose@Program@@QAEXXZ 004844d0 f   Program.obj
 0001:000835d0       ?GameSystemOpen@Program@@AAEXXZ 004845d0 f   Program.obj
 0001:00083670       ?GameSystemClose@Program@@AAEXXZ 00484670 f   Program.obj
 0001:000836a0       ?GameOpenPreLoad@Program@@AAEXABV?$basic_string@DU?$char_traits@D@std@@V?$allocator@D@2@@std@@@Z 004846a0 f   Program.obj
 0001:00083d40       ?GameOpenLoad@Program@@AAE?AVLoadGameResult@@ABV?$basic_string@DU?$char_traits@D@std@@V?$allocator@D@2@@std@@@Z 00484d40 f   Program.obj
 0001:00083e00       ?GameOpenLoad@Program@@AAE?AVLoadGameResult@@AAVFileReader@@@Z 00484e00 f   Program.obj
 0001:00083eb0       ?GameOpenPostLoad@Program@@AAEX_NABV?$basic_string@DU?$char_traits@D@std@@V?$allocator@D@2@@std@@ABVLoadGameResult@@@Z 00484eb0 f   Program.obj
 0001:00084780       ?GameOpen@Program@@AAEXABV?$basic_string@DU?$char_traits@D@std@@V?$allocator@D@2@@std@@@Z 00485780 f   Program.obj
 0001:00084a10       ?GameClose@Program@@AAEXXZ 00485a10 f   Program.obj
 0001:00084ba0       ?GameOpenFirst@Program@@AAEXXZ 00485ba0 f   Program.obj
 0001:00084bb0       ?GameCloseFinal@Program@@AAEXXZ 00485bb0 f   Program.obj
 0001:00084c00       ?GameClosePostDebriefing@Program@@AAEXXZ 00485c00 f   Program.obj
 0001:00084c40       ?ProbeSwapFile@Program@@AAEXXZ 00485c40 f   Program.obj
 0001:00084ca0       ?CheckCD@Program@@AAEXXZ   00485ca0 f   Program.obj
 0001:00084e80       ?TestCD@Program@@QAE_NXZ   00485e80 f   Program.obj
 0001:00084ee0       ?Toggle_Edit_Mode@Program@@QAEXXZ 00485ee0 f   Program.obj
 0001:00084f80       ?Set_Edit_Mode@Program@@QAEX_N@Z 00485f80 f   Program.obj
 0001:00085020       ?PlayMovie@Program@@AAE_NPAD@Z 00486020 f   Program.obj
 0001:000851a0       ?PlayIntroMovie@Program@@AAEX_N@Z 004861a0 f   Program.obj
 0001:00085330       ?QueueLoadASavedGame@Program@@QAEXABV?$basic_string@DU?$char_traits@D@std@@V?$allocator@D@2@@std@@@Z 00486330 f   Program.obj
	0001:00085480       ?QueueNextFilename@Program@@QAEXABV?$basic_string@DU?$char_traits@D@std@@V?$allocator@D@2@@std@@@Z 00486480 f   Program.obj
 0001:000855d0       ?DebugGetLastMissionName@Program@@QAEABV?$basic_string@DU?$char_traits@D@std@@V?$allocator@D@2@@std@@XZ 004865d0 f   Program.obj
 0001:000855e0       ?IsLastLoadASavedGame@Program@@QBE_NXZ 004865e0 f   Program.obj
 0001:000855f0       ?SetLastLoadASavedGame@Program@@QAEX_N@Z 004865f0 f   Program.obj
 0001:00085600       ?MainLoop@Program@@QAEXXZ  00486600 f   Program.obj
 0001:00085c30       ?SetupNextScreen@Program@@AAEX_N@Z 00486c30 f   Program.obj
 0001:00085ee0       ?GameReSync@Program@@QAEXXZ 00486ee0 f   Program.obj
 0001:00085ef0       ?GameReset@Program@@QAEXABV?$basic_string@DU?$char_traits@D@std@@V?$allocator@D@2@@std@@@Z 00486ef0 f   Program.obj
 0001:00085f40       ?GameReset@Program@@QAEXAAVFileReader@@@Z 00486f40 f   Program.obj
 0001:000860e0       ?GameDoOne@Program@@AAEXABV?$basic_string@DU?$char_traits@D@std@@V?$allocator@D@2@@std@@_N@Z 004870e0 f   Program.obj
 0001:00086430       ?DoShell@Program@@AAE_NXZ  00487430 f   Program.obj
 0001:00086540       ?LatencyGameOrder@@YAXH@Z  00487540 f   Program.obj
 0001:00086570       ?GameSpeedGameOrder@@YAXH@Z 00487570 f   Program.obj
 0001:000865b0       ?SessionMessageProcessInGame@@YAXAAVSessionMessage@@@Z 004875b0 f   Program.obj
 0001:00087620       ?GameStateSyncCheck@Program@@QAE?AVCRC32@@XZ 00488620 f   Program.obj
 0001:00087730       ?HandleMessageQueue@@YAXXZ 00488730 f   Program.obj
 0001:000877c0       ?WindowProc@@YGJPAUHWND__@@IIJ@Z 004887c0 f   Program.obj
 0001:00087990       ?I76FatalError@@YAXPAD@Z   00488990 f   Program.obj
 0001:000888f0       ?NextGameAsEditMode@Program@@QAEXXZ 004898f0 f   Program.obj
 0001:00088900       ?NextGameAsTutorial@Program@@QAEXXZ 00489900 f   Program.obj
 0001:00088910       ?WasLastGameATutorial@Program@@QAE_NXZ 00489910 f   Program.obj
 0001:00088920       ?ResetLastGameAsTutorial@Program@@QAEXXZ 00489920 f   Program.obj
 0001:00088930       ?GetMissionFilename@Program@@QAE?AV?$basic_string@DU?$char_traits@D@std@@V?$allocator@D@2@@std@@XZ 00489930 f   Program.obj
 0001:00088a70       ?SetMissionFilename@Program@@QAEXV?$basic_string@DU?$char_traits@D@std@@V?$allocator@D@2@@std@@@Z 00489a70 f   Program.obj
 0001:00088bf0       ?IsGamePausedAtAll@@YA_NXZ 00489bf0 f   Program.obj
 0001:00088c20       ?IsGeneratingReplay@Program@@QBE_NXZ 00489c20 f   Program.obj
 0001:00088c50       ?SetGameTypeSupportsReplay@Program@@QAEX_N@Z 00489c50 f   Program.obj
 0001:00088c60       ??1ActionGameCycle@Replay@@UAE@XZ 00489c60 f i Program.obj
 0001:00088c70       ??_GAction@Replay@@UAEPAXI@Z 00489c70 f i Program.obj
 0001:00088c70       ??_EAction@Replay@@UAEPAXI@Z 00489c70 f i Program.obj
 0001:00088ca0       ??_GActionGameCycle@Replay@@UAEPAXI@Z 00489ca0 f i Program.obj
 0001:00088ca0       ??_EActionGameCycle@Replay@@UAEPAXI@Z 00489ca0 f i Program.obj
 0001:00088cd0       ??1AutoTimer@@QAE@XZ       00489cd0 f i Program.obj
 0001:00088d30       ??1ActionRender@Replay@@UAE@XZ 00489d30 f i Program.obj
 0001:00088d40       ??_GActionRender@Replay@@UAEPAXI@Z 00489d40 f i Program.obj
 0001:00088d40       ??_EActionRender@Replay@@UAEPAXI@Z 00489d40 f i Program.obj
 0001:00088d70       ??1?$set@HU?$less@H@std@@V?$allocator@H@2@@std@@QAE@XZ 00489d70 f i Program.obj
 0001:00088e60       ??_ESaveDetailsReplay@@UAEPAXI@Z 00489e60 f i Program.obj
 0001:00088e60       ??_GSaveDetailsReplay@@UAEPAXI@Z 00489e60 f i Program.obj
 0001:00088e90       ??0SaveDetails@@QAE@ABV0@@Z 00489e90 f i Program.obj
 0001:00088fe0       ??_GSaveDetails@@UAEPAXI@Z 00489fe0 f i Program.obj
 0001:00088fe0       ??_ESaveDetails@@UAEPAXI@Z 00489fe0 f i Program.obj
 0001:00089010       ?insert@?$set@HU?$less@H@std@@V?$allocator@H@2@@std@@QAE?AU?$pair@Viterator@?$_Tree@HHU_Kfn@?$set@HU?$less@H@std@@V?$allocator@H@2@@std@@U?$less@H@3@V?$allocator@H@3@@std@@_N@2@ABH@Z 0048a010 f i Program.obj
 0001:00089100       ?erase@?$set@HU?$less@H@std@@V?$allocator@H@2@@std@@QAE?AViterator@?$_Tree@HHU_Kfn@?$set@HU?$less@H@std@@V?$allocator@H@2@@std@@U?$less@H@3@V?$allocator@H@3@@2@V342@@Z 0048a100 f i Program.obj
 0001:00089120       ??1?$_Tree@HHU_Kfn@?$set@HU?$less@H@std@@V?$allocator@H@2@@std@@U?$less@H@3@V?$allocator@H@3@@std@@QAE@XZ 0048a120 f i Program.obj
 0001:00089200       ??1?$list@VChatLine@@V?$allocator@VChatLine@@@std@@@std@@QAE@XZ 0048a200 f i Program.obj
 0001:00089270       ??0?$_Tree@HHU_Kfn@?$set@HU?$less@H@std@@V?$allocator@H@2@@std@@U?$less@H@3@V?$allocator@H@3@@std@@QAE@ABU?$less@H@1@_NABV?$allocator@H@1@@Z 0048a270 f i Program.obj
 0001:000892a0       ?begin@?$_Tree@HHU_Kfn@?$set@HU?$less@H@std@@V?$allocator@H@2@@std@@U?$less@H@3@V?$allocator@H@3@@std@@QAE?AViterator@12@XZ 0048a2a0 f i Program.obj
 0001:000892c0       ?erase@?$_Tree@HHU_Kfn@?$set@HU?$less@H@std@@V?$allocator@H@2@@std@@U?$less@H@3@V?$allocator@H@3@@std@@QAE?AViterator@12@V312@@Z 0048a2c0 f i Program.obj
 0001:000896e0       ?_Inc@const_iterator@?$_Tree@HHU_Kfn@?$set@HU?$less@H@std@@V?$allocator@H@2@@std@@U?$less@H@3@V?$allocator@H@3@@std@@QAEXXZ 0048a6e0 f i Program.obj
 0001:00089730       ?_Erase@?$_Tree@HHU_Kfn@?$set@HU?$less@H@std@@V?$allocator@H@2@@std@@U?$less@H@3@V?$allocator@H@3@@std@@IAEXPAU_Node@12@@Z 0048a730 f i Program.obj
 0001:00089770       ?_Init@?$_Tree@HHU_Kfn@?$set@HU?$less@H@std@@V?$allocator@H@2@@std@@U?$less@H@3@V?$allocator@H@3@@std@@IAEXXZ 0048a770 f i Program.obj
 0001:00089810       ?_Insert@?$_Tree@HHU_Kfn@?$set@HU?$less@H@std@@V?$allocator@H@2@@std@@U?$less@H@3@V?$allocator@H@3@@std@@IAE?AViterator@12@PAU_Node@12@0ABH@Z 0048a810 f i Program.obj
 0001:00089a90       ?_Dec@const_iterator@?$_Tree@HHU_Kfn@?$set@HU?$less@H@std@@V?$allocator@H@2@@std@@U?$less@H@3@V?$allocator@H@3@@std@@QAEXXZ 0048aa90 f i Program.obj
 0001:00089af0       ??1ChatLine@@QAE@XZ        0048aaf0 f i Program.obj
 0001:00089b30       ?CRCString@Version@@QAEPBDXZ 0048ab30 f   ProgramVersion.obj
 0001:00089b70       ?InternalString@Version@@QAEPBDXZ 0048ab70 f   ProgramVersion.obj
 0001:00089bb0       ?ExternalStringLocalized@Version@@QAEPBDXZ 0048abb0 f   ProgramVersion.obj
 0001:00089bf0       ??0RaceLoader@@QAE@XZ      0048abf0 f   Race.obj
 0001:00089c00       ?Init@RaceLoader@@UAEXXZ   0048ac00 f   Race.obj
 0001:00089d30       ?GameCloseCleanupAll@Race@@SAXXZ 0048ad30 f   Race.obj
 0001:00089d40       ?Cleanup@RaceLoader@@UAEXXZ 0048ad40 f   Race.obj
 0001:00089da0       ?InitAll@Race@@SAXXZ       0048ada0 f   Race.obj
 0001:00089fa0       ?CleanupAll@Race@@SAXXZ    0048afa0 f   Race.obj
	0001:0008a020       ?Find@Race@@SAPAV1@ABVParameterDB@@@Z 0048b020 f   Race.obj
	0001:0008a0c0       ?Find@Race@@SAPAV1@H@Z     0048b0c0 f   Race.obj
	 0001:0008a100       ?Find@Race@@SAPAV1@PBD@Z   0048b100 f   Race.obj
 0001:0008a180       ?FindInstantActionSlot@Race@@SAPAV1@H@Z 0048b180 f   Race.obj
 0001:0008a1d0       ?ParseStartingUnits@Race@@AAEXAAVParameterDB@@HABV?$basic_string@DU?$char_traits@D@std@@V?$allocator@D@2@@std@@@Z 0048b1d0 f   Race.obj
 0001:0008a350       ??1Race@@UAE@XZ            0048b350 f   Race.obj
 0001:0008a3b0       ??0Race@@QAE@PAD@Z         0048b3b0 f   Race.obj
 0001:0008b120       ?GetInsufficentOfficerEventId@Race@@QBEHXZ 0048c120 f   Race.obj
 0001:0008b140       ?GetStartUnit@Race@@QBEABV?$basic_string@DU?$char_traits@D@std@@V?$allocator@D@2@@std@@HH@Z 0048c140 f   Race.obj
 0001:0008b160       ?GetMaxOfficerMultiplier@Race@@QBEMXZ 0048c160 f   Race.obj
 0001:0008b170       ?CanRacePlayCollectLatinumGames@Race@@SA_NH@Z 0048c170 f   Race.obj
 0001:0008b1d0       ?CanRacePlayColonizePlanetGames@Race@@SA_NH@Z 0048c1d0 f   Race.obj
 0001:0008b230       ?CanRacePlayCaptureTheFlagGames@Race@@SA_NH@Z 0048c230 f   Race.obj
 0001:0008b290       ?GetStartingResource@Race@@QBEHW4eResource@@H@Z 0048c290 f   Race.obj
 0001:0008b330       ?GetValue@CityAllocArray@@QBEMHH@Z 0048c330 f   Race.obj
 0001:0008b350       ?SetValue@CityAllocArray@@QAEXHHM@Z 0048c350 f   Race.obj
 0001:0008b370       ??0CityAllocArray@@QAE@HH@Z 0048c370 f   Race.obj
 0001:0008b3a0       ??1CityAllocArray@@QAE@XZ  0048c3a0 f   Race.obj
 0001:0008b3b0       ??1RaceStatic@Race@@QAE@XZ 0048c3b0 f i Race.obj
 0001:0008b570       ??_ERace@@UAEPAXI@Z        0048c570 f i Race.obj
 0001:0008b570       ??_GRace@@UAEPAXI@Z        0048c570 f i Race.obj
 0001:0008b5a0       ?insert@?$_Tree@HHU_Kfn@?$set@HU?$less@H@std@@V?$allocator@H@2@@std@@U?$less@H@3@V?$allocator@H@3@@std@@QAE?AU?$pair@Viterator@?$_Tree@HHU_Kfn@?$set@HU?$less@H@std@@V?$allocator@H@2@@std@@U?$less@H@3@V?$allocator@H@3@@std@@_N@2@ABH@Z 0048c5a0 f i Race.obj
 0001:0008b7d0       ?erase@?$_Tree@HHU_Kfn@?$set@HU?$less@H@std@@V?$allocator@H@2@@std@@U?$less@H@3@V?$allocator@H@3@@std@@QAE?AViterator@12@V312@0@Z 0048c7d0 f i Race.obj
 0001:0008b8a0       ??Eiterator@?$_Tree@HHU_Kfn@?$set@HU?$less@H@std@@V?$allocator@H@2@@std@@U?$less@H@3@V?$allocator@H@3@@std@@QAE?AV012@H@Z 0048c8a0 f i Race.obj
 0001:0008b900       ?_Lbound@?$_Tree@HHU_Kfn@?$set@HU?$less@H@std@@V?$allocator@H@2@@std@@U?$less@H@3@V?$allocator@H@3@@std@@IBEPAU_Node@12@ABH@Z 0048c900 f i Race.obj
 0001:0008b930       ?_Lrotate@?$_Tree@HHU_Kfn@?$set@HU?$less@H@std@@V?$allocator@H@2@@std@@U?$less@H@3@V?$allocator@H@3@@std@@IAEXPAU_Node@12@@Z 0048c930 f i Race.obj
 0001:0008b990       ?_Min@?$_Tree@HHU_Kfn@?$set@HU?$less@H@std@@V?$allocator@H@2@@std@@U?$less@H@3@V?$allocator@H@3@@std@@KAPAU_Node@12@PAU312@@Z 0048c990 f i Race.obj
 0001:0008b9b0       ?_Rrotate@?$_Tree@HHU_Kfn@?$set@HU?$less@H@std@@V?$allocator@H@2@@std@@U?$less@H@3@V?$allocator@H@3@@std@@IAEXPAU_Node@12@@Z 0048c9b0 f i Race.obj
 0001:0008ba10       ?_Buynode@?$_Tree@HHU_Kfn@?$set@HU?$less@H@std@@V?$allocator@H@2@@std@@U?$less@H@3@V?$allocator@H@3@@std@@IAEPAU_Node@12@PAU312@W4_Redbl@12@@Z 0048ca10 f i Race.obj
 0001:0008ba30       ??0RandomMap@@QAE@H@Z      0048ca30 f   RandomMap.obj
 0001:0008bbc0       ??1RandomMap@@UAE@XZ       0048cbc0 f   RandomMap.obj
 0001:0008bbf0       ?SetupStartLocations@RandomMap@@QAEXXZ 0048cbf0 f   RandomMap.obj
 0001:0008c360       ?SetupMap@RandomMap@@QAEXXZ 0048d360 f   RandomMap.obj
 0001:0008c6b0       ?mGenerateStartPosition@RandomMap@@AAEXH@Z 0048d6b0 f   RandomMap.obj
 0001:0008c8b0       ?mGenerateNebula@RandomMap@@AAEXH@Z 0048d8b0 f   RandomMap.obj
 0001:0008ce00       ?mGenerateAsteroidBelt@RandomMap@@AAEXH@Z 0048de00 f   RandomMap.obj
 0001:0008d510       ?mGenerateWormholePair@RandomMap@@AAEXXZ 0048e510 f   RandomMap.obj
 0001:0008d890       ?mGenerateBlackhole@RandomMap@@AAEXXZ 0048e890 f   RandomMap.obj
 0001:0008db40       ?mGenerateRandomResource@RandomMap@@AAEXXZ 0048eb40 f   RandomMap.obj
 0001:0008df70       ?mGenerateRandomPlanet@RandomMap@@AAEXXZ 0048ef70 f   RandomMap.obj
 0001:0008e240       ?mGenerateRandomMoon@RandomMap@@AAEXXZ 0048f240 f   RandomMap.obj
 0001:0008e560       ?mGenerateRandomLatNebula@RandomMap@@AAEXXZ 0048f560 f   RandomMap.obj
 0001:0008e810       ?mGenerateItem@RandomMap@@AAEXPBDM@Z 0048f810 f   RandomMap.obj
 0001:0008eab0       ?mGetRandomLocation@RandomMap@@AAE?AVMatrix34@@PAVGameObjectClass@@M_N@Z 0048fab0 f   RandomMap.obj
 0001:0008ec30       ?mObjectAtLocation@RandomMap@@AAE_NPAVGameObjectClass@@ABVVector3@@M_N@Z 0048fc30 f   RandomMap.obj
 0001:0008ee10       ?mTooCloseToStartLocation@RandomMap@@AAE_NPAVGameObjectClass@@VVector3@@M@Z 0048fe10 f   RandomMap.obj
 0001:0008eed0       ??_GRandomMap@@UAEPAXI@Z   0048fed0 f i RandomMap.obj
 0001:0008eed0       ??_ERandomMap@@UAEPAXI@Z   0048fed0 f i RandomMap.obj
 0001:0008ef00       ??8@YA_NABVMatrix34@@0@Z   0048ff00 f i RandomMap.obj
 0001:0008f120       ??1?$vector@VVector3@@V?$allocator@VVector3@@@std@@@std@@QAE@XZ 00490120 f i RandomMap.obj
 0001:0008f150       ?insert@?$vector@VVector3@@V?$allocator@VVector3@@@std@@@std@@QAEPAVVector3@@PAV3@ABV3@@Z 00490150 f i RandomMap.obj
 0001:0008f380       ?size@?$vector@VVector3@@V?$allocator@VVector3@@@std@@@std@@QBEIXZ 00490380 f i RandomMap.obj
 0001:0008f3a0       ?_Destroy@?$vector@VVector3@@V?$allocator@VVector3@@@std@@@std@@IAEXPAVVector3@@0@Z 004903a0 f i RandomMap.obj
 0001:0008f3b0       ?insert@?$vector@VVector3@@V?$allocator@VVector3@@@std@@@std@@QAEXPAVVector3@@IABV3@@Z 004903b0 f i RandomMap.obj
 0001:0008f6e0       ?_Ucopy@?$vector@VVector3@@V?$allocator@VVector3@@@std@@@std@@IAEPAVVector3@@PBV3@0PAV3@@Z 004906e0 f i RandomMap.obj
 0001:0008f730       ?_Ufill@?$vector@VVector3@@V?$allocator@VVector3@@@std@@@std@@IAEXPAVVector3@@IABV3@@Z 00490730 f i RandomMap.obj
 0001:0008f770       ?_Construct@std@@YAXPAVVector3@@ABV2@@Z 00490770 f i RandomMap.obj
 0001:0008f790       ?g_GeteResourceFromString@@YA?AW4eResource@@PAD@Z 00490790 f   ResourceTypes.obj
 0001:0008f7f0       ?RTS_Read_Graphics_Detail_Parameters@@YAXPAViparser@@@Z 004907f0 f   RTS.obj
 0001:0008fd30       ?RTS_Configure@@YAHXZ      00490d30 f   RTS.obj
 0001:00091b00       ?Set_Graphics_Detail_Level@Graphics_Configuration@@SAXPAVST3D_GraphicsEngine_Configuration@@@Z 00492b00 f   RTS.obj
 0001:00091b90       ??0ScanGrid@@QAE@H@Z       00492b90 f   Scanner.obj
 0001:00091c50       ??1ScanGrid@@UAE@XZ        00492c50 f   Scanner.obj
 0001:00091c70       ?Simulate@ScanGrid@@UAEXM_N@Z 00492c70 f   Scanner.obj
 0001:00091cd0       ?Update@ScanGrid@@UAEXM_N@Z 00492cd0 f   Scanner.obj
 0001:00091d00       ?Clear@ScanGrid@@UAEXXZ    00492d00 f   Scanner.obj
 0001:00091d30       ?GetMask@ScanGrid@@QBEKHH@Z 00492d30 f   Scanner.obj
 0001:00091d70       ?GetMask@ScanGrid@@QBEKABVVector3@@@Z 00492d70 f   Scanner.obj
 0001:00091dd0       ?GetMask@ScanGrid@@QBEKABVVector3@@M@Z 00492dd0 f   Scanner.obj
 0001:00091f00       ?ComputeIndex@ScanGrid@@IBEHHH@Z 00492f00 f   Scanner.obj
 0001:00091f20       ??0Fog@@QAE@H@Z            00492f20 f   Scanner.obj
 0001:00092020       ??1Fog@@UAE@XZ             00493020 f   Scanner.obj
 0001:00092050       ?Clear@Fog@@UAEXXZ         00493050 f   Scanner.obj
 0001:000920a0       ?GetNebulaAwareMask@Fog@@QBEKHH@Z 004930a0 f   Scanner.obj
 0001:000920e0       ?GetNebulaAwareMask@Fog@@QBEKABVVector3@@@Z 004930e0 f   Scanner.obj
 0001:00092140       ?Scan@Fog@@UAEXM@Z         00493140 f   Scanner.obj
 0001:00092250       ?ScanCircle@Fog@@QAEXPBVCircleOctant@@ABVVector3@@K@Z 00493250 f   Scanner.obj
 0001:00092480       ?Scan@Shroud@@UAEXM@Z      00493480 f   Scanner.obj
 0001:000925d0       ?ForceFogAndShroud@Scanner@@SAX_N@Z 004935d0 f   Scanner.obj
 0001:00092600       ?ForceUpdate@Scanner@@SAXXZ 00493600 f   Scanner.obj
 0001:00092640       ?FullSweep@Scanner@@SAXM@Z 00493640 f   Scanner.obj
 0001:00092860       ?Set_All_Entities_Visibility@Scanner@@SAXXZ 00493860 f   Scanner.obj
	0001:00092ae0       ?IsFogged@Scanner@@SA_NABVVector3@@K@Z 00493ae0 f   Scanner.obj
	0001:00092bf0       ?IsShrouded@Scanner@@SA_NABVVector3@@K@Z 00493bf0 f   Scanner.obj		
 0001:00092c80       ?Set_All_Ghosts_Visibility@Scanner@@SAXXZ 00493c80 f   Scanner.obj
 0001:00092d80       ?Set_All_BuildingEffects_Visibility@Scanner@@SAXXZ 00493d80 f   Scanner.obj
 0001:00092e50       ?InitializeGrids@Scanner@@SAXH@Z 00493e50 f   Scanner.obj
 0001:000930c0       ?CleanupGrids@Scanner@@SAXXZ 004940c0 f   Scanner.obj
 0001:00093120       ??0Scanner@@QAE@PAVGameObject@@@Z 00494120 f   Scanner.obj
 0001:00093140       ??0Scanner@@QAE@PAVOrdnance@@@Z 00494140 f   Scanner.obj
 0001:00093160       ??1Scanner@@QAE@XZ         00494160 f   Scanner.obj
 0001:00093210       ?GetRange@Scanner@@QBEMXZ  00494210 f   Scanner.obj
 0001:00093240       ?SetRange@Scanner@@QAEXM@Z 00494240 f   Scanner.obj
 0001:00093270       ?GetTeamMask@Scanner@@QBEKXZ 00494270 f   Scanner.obj
 0001:000932f0       ?GetPosition@Scanner@@QBE?AVVector3@@XZ 004942f0 f   Scanner.obj
 0001:00093350       ?InitializeDefaultScanner@Scanner@@IAEXXZ 00494350 f   Scanner.obj
 0001:000935b0       ?RecomputeCircle@Scanner@@QAEXXZ 004945b0 f   Scanner.obj
 0001:00093650       ?Save@ScanGrid@@QAE_NAAVFileWriter@@@Z 00494650 f   Scanner.obj
 0001:00093680       ?Load@ScanGrid@@QAE_NAAVFileReader@@@Z 00494680 f   Scanner.obj
 0001:000936b0       ?Save@Scanner@@SA_NAAVFileWriter@@@Z 004946b0 f   Scanner.obj
 0001:00093700       ?Load@Scanner@@SA_NAAVFileReader@@@Z 00494700 f   Scanner.obj
 0001:00093780       ??_EScanGrid@@UAEPAXI@Z    00494780 f i Scanner.obj
 0001:00093780       ??_GScanGrid@@UAEPAXI@Z    00494780 f i Scanner.obj
 0001:000937b0       ??_EFog@@UAEPAXI@Z         004947b0 f i Scanner.obj
 0001:000937b0       ??_GFog@@UAEPAXI@Z         004947b0 f i Scanner.obj
 0001:000937e0       ??_GShroud@@UAEPAXI@Z      004947e0 f i Scanner.obj
 0001:000937e0       ??_EShroud@@UAEPAXI@Z      004947e0 f i Scanner.obj
 0001:00093810       ??1Shroud@@UAE@XZ          00494810 f i Scanner.obj
 0001:00093830       ?Scan@Cloak_Fog@@UAEXM@Z   00494830 f i Scanner.obj
 0001:00093900       ??_ECloak_Fog@@UAEPAXI@Z   00494900 f i Scanner.obj
 0001:00093900       ??_GCloak_Fog@@UAEPAXI@Z   00494900 f i Scanner.obj
 0001:00093930       ??1Cloak_Fog@@UAE@XZ       00494930 f i Scanner.obj
 0001:00093960       ?size@?$vector@PAVScanner@@V?$allocator@PAVScanner@@@std@@@std@@QBEIXZ 00494960 f i Scanner.obj
 0001:00093980       ?_Destroy@?$vector@PAVScanner@@V?$allocator@PAVScanner@@@std@@@std@@IAEXPAPAVScanner@@0@Z 00494980 f i Scanner.obj
 0001:00093990       ?_Ucopy@?$vector@PAVScanner@@V?$allocator@PAVScanner@@@std@@@std@@IAEPAPAVScanner@@PBQAV3@0PAPAV3@@Z 00494990 f i Scanner.obj
 0001:000939c0       ?_Ufill@?$vector@PAVScanner@@V?$allocator@PAVScanner@@@std@@@std@@IAEXPAPAVScanner@@IABQAV3@@Z 004949c0 f i Scanner.obj
 0001:000939f0       ?_Construct@std@@YAXPAPAVScanner@@ABQAV2@@Z 004949f0 f i Scanner.obj
 0001:00093a70       ??0Station_Placement@@QAE@XZ 00494a70 f   Station_Placement.obj
 0001:00093a80       ??1Station_Placement@@QAE@XZ 00494a80 f   Station_Placement.obj
	0001:00093ac0       ?Init@Station_Placement@@QAEXXZ 00494ac0 f   Station_Placement.obj
 0001:00093bd0       ?Clear@Station_Placement@@QAEXXZ 00494bd0 f   Station_Placement.obj
 0001:00093c10       ?Block_Placement@Station_Placement@@QAEXMMMMH@Z 00494c10 f   Station_Placement.obj
 0001:00093d00       ?Unblock_Placement@Station_Placement@@QAEXMMMM@Z 00494d00 f   Station_Placement.obj
 0001:00093de0       ?Is_Clear_For_Placement@Station_Placement@@QAE_NMMMMMMMPBVGameObject@@_N@Z 00494de0 f   Station_Placement.obj
 0001:000942e0       ?Is_Clear_For_Placement@Station_Placement@@QBE_NHH@Z 004952e0 f   Station_Placement.obj
 0001:00094310       ?Convert_Placement_Map_To_World_Coords@Station_Placement@@QBEXHHPAVVector3@@@Z 00495310 f   Station_Placement.obj
 0001:00094370       ?Convert_World_To_Placement_Map_Coords@Station_Placement@@IAEXMMAAH0@Z 00495370 f   Station_Placement.obj
 0001:00094400       ?Reset_Results@?$Generic_Range_Search_Results@H@@QAEXXZ 00495400 f i Station_Placement.obj
 0001:00094440       ?GetNumColors@TeamColor@@SAHXZ 00495440 f   TeamColor.obj
 0001:00094450       ?GetColorIndex@TeamColor@@SAHPBD@Z 00495450 f   TeamColor.obj
 0001:000944b0       ?Init@TeamColor@@SAXXZ     004954b0 f   TeamColor.obj
 0001:000945e0       ?Save@UpgradeInfo@Team@@QAE_NAAVFileWriter@@@Z 004955e0 f   Teams.obj
 0001:00094630       ?Load@UpgradeInfo@Team@@QAE_NAAVFileReader@@@Z 00495630 f   Teams.obj
 0001:00094670       ??0Team@@QAE@H@Z           00495670 f   Teams.obj
 0001:00094850       ??1Team@@QAE@XZ            00495850 f   Teams.obj
 0001:00094930       ?RecordShipAttackOrderByTeam@Team@@QAEXH@Z 00495930 f   Teams.obj
 0001:00094980       ?RecordStationAttackOrderByTeam@Team@@QAEXH@Z 00495980 f   Teams.obj
 0001:000949d0       ?Configure@Team@@SAXHHHHHHHHHHHH@Z 004959d0 f   Teams.obj
 0001:00094a40       ?SimulateAll@Team@@SAXXZ   00495a40 f   Teams.obj
 0001:00094ae0       ?GetDefaultStartingCrew@Team@@SAHXZ 00495ae0 f   Teams.obj
 0001:00094af0       ?GetDefaultStartingDilithium@Team@@SAHXZ 00495af0 f   Teams.obj
 0001:00094b00       ?GetDefaultStartingLatinum@Team@@SAHXZ 00495b00 f   Teams.obj
 0001:00094b10       ?GetDefaultStartingMetal@Team@@SAHXZ 00495b10 f   Teams.obj
 0001:00094b20       ?GetDefaultStartingCrewCapacity@Team@@SAHXZ 00495b20 f   Teams.obj
 0001:00094b30       ?GetDefaultMaxOfficers@Team@@SAHXZ 00495b30 f   Teams.obj
 0001:00094b40       ?GetDefaultStartingBiomatter@Team@@SAHXZ 00495b40 f   Teams.obj
 0001:00094b60       ?PreLoadAll@Team@@SAXXZ    00495b60 f   Teams.obj
 0001:00095300       ?CleanAll@Team@@SAXXZ      00496300 f   Teams.obj
 0001:00095340       ?GetTeam@Team@@SAAAV1@H@Z  00496340 f   Teams.obj
 0001:00095350       ?LoadAll@Team@@SA_NAAVFileReader@@@Z 00496350 f   Teams.obj
 0001:00095430       ?Load@Team@@QAE_NAAVFileReader@@@Z 00496430 f   Teams.obj
 0001:00095830       ?PostLoad@Team@@QAEXXZ     00496830 f   Teams.obj
 0001:00095840       ?PostLoadAll@Team@@SA_NXZ  00496840 f   Teams.obj
 0001:00095850       ?SaveAll@Team@@SA_NAAVFileWriter@@@Z 00496850 f   Teams.obj
 0001:000958d0       ?Save@Team@@QAE_NAAVFileWriter@@@Z 004968d0 f   Teams.obj
 0001:00095ba0       ?SaveUpgradeInfos@Team@@IAE_NAAVFileWriter@@@Z 00496ba0 f   Teams.obj
 0001:00095c30       ?LoadUpgradeInfos@Team@@IAE_NAAVFileReader@@@Z 00496c30 f   Teams.obj
 0001:00095d40       ?AddBiomatter@Team@@QAEMM@Z 00496d40 f   Teams.obj
 0001:00095dd0       ?SetBiomatter@Team@@QAEXM@Z 00496dd0 f   Teams.obj
 0001:00095e30       ?AddDilithium@Team@@QAEMM@Z 00496e30 f   Teams.obj
 0001:00095ec0       ?SetDilithium@Team@@QAEXM@Z 00496ec0 f   Teams.obj
 0001:00095f20       ?AddLatinum@Team@@QAEMM@Z  00496f20 f   Teams.obj
 0001:00095fb0       ?SetLatinum@Team@@QAEXM@Z  00496fb0 f   Teams.obj
 0001:00096010       ?AddMetal@Team@@QAEMM@Z    00497010 f   Teams.obj
 0001:000960a0       ?SetMetal@Team@@QAEXM@Z    004970a0 f   Teams.obj
	0001:00096100       ?Compute_Teams_Visible_To@Team@@QAEKXZ 00497100 f   Teams.obj
 0001:00096180       ?GetUnconfirmedRelation@Team@@QBE?AW4eTeamRelation@@H@Z 00497180 f   Teams.obj
 0001:000961a0       ?GetConfirmedRelation@Team@@QBE?AW4eTeamRelation@@H@Z 004971a0 f   Teams.obj
 0001:000961d0       ?SetRelation@Team@@QAEXHW4eTeamRelation@@@Z 004971d0 f   Teams.obj
 0001:000961f0       ?IsUnconfirmedAlly@Team@@QBE_NH@Z 004971f0 f   Teams.obj
 0001:00096210       ?IsUnconfirmedNeutral@Team@@QBE_NH@Z 00497210 f   Teams.obj
 0001:00096230       ?IsUnconfirmedEnemy@Team@@QBE_NH@Z 00497230 f   Teams.obj
 0001:00096250       ?IsConfirmedAlly@Team@@QBE_NH@Z 00497250 f   Teams.obj
 0001:00096290       ?IsConfirmedNeutral@Team@@QBE_NH@Z 00497290 f   Teams.obj
 0001:000962d0       ?IsConfirmedEnemy@Team@@QBE_NH@Z 004972d0 f   Teams.obj
 0001:00096310       ?SetTeamColor@Team@@QAEXH@Z 00497310 f   Teams.obj
 0001:00096340       ?SetMapColor@Team@@QAEXH@Z 00497340 f   Teams.obj
 0001:00096370       ?GiveView@Team@@SAXHH@Z    00497370 f   Teams.obj
 0001:000963a0       ?RemoveView@Team@@SAXHH@Z  004973a0 f   Teams.obj
 0001:000964b0       ?AddCrew@Team@@QAEXM@Z     004974b0 f   Teams.obj
 0001:00096560       ?GetMaxOfficers@Team@@QBEHXZ 00497560 f   Teams.obj
 0001:00096580       ?GetOfficerVacancies@Team@@QBEJXZ 00497580 f   Teams.obj
 0001:000965b0       ?AddCrewCapacity@Team@@QAEXM@Z 004975b0 f   Teams.obj
 0001:00096600       ?SetStartingCrewCapacity@Team@@QAEXM@Z 00497600 f   Teams.obj
 0001:00096660       ?RegisterDilithiumTrade@Team@@QAEXHM@Z 00497660 f   Teams.obj
 0001:00096690       ?RegisterLatinumTrade@Team@@QAEXHM@Z 00497690 f   Teams.obj
 0001:000966c0       ?RegisterMetalTrade@Team@@QAEXHM@Z 004976c0 f   Teams.obj
 0001:00096700       ?RegisterCrewTrade@Team@@QAEXHM@Z 00497700 f   Teams.obj
 0001:00096740       ?GetStartLocation@Team@@QBE?AVVector3@@XZ 00497740 f   Teams.obj
 0001:00096a10       ?GetFlagLocations@Team@@QBE?AV?$vector@VVector3@@V?$allocator@VVector3@@@std@@@std@@XZ 00497a10 f   Teams.obj
 0001:00096b80       ?RenderResourcesSentToTeam@Team@@QAEXH@Z 00497b80 f   Teams.obj
 0001:00096d40       ?RenderTeamMessage@Team@@SAXXZ 00497d40 f   Teams.obj
 0001:00096dc0       ?SetTeamMessage@Team@@SAXPAD@Z 00497dc0 f   Teams.obj
 0001:00096df0       ?RenderUserTeamData@Team@@SAXXZ 00497df0 f   Teams.obj
 0001:00096e90       ?ShowTradeDataTo@Team@@SAXH@Z 00497e90 f   Teams.obj
 0001:00096ea0       ?AddUnit@Team@@QAEXPAVGameObject@@@Z 00497ea0 f   Teams.obj
 0001:00096f90       ?SetResearchUpgrades@Team@@QAEXPAVCraft@@@Z 00497f90 f   Teams.obj
 0001:00097070       ?SetScannerUpgrade@Team@@QAEXPAVCraft@@@Z 00498070 f   Teams.obj
 0001:00097140       ?SetEngineUpgrade@Team@@QAEXPAVCraft@@@Z 00498140 f   Teams.obj
 0001:000971c0       ?SetShieldUpgrade@Team@@QAEXPAVCraft@@@Z 004981c0 f   Teams.obj
 0001:00097220       ?SetWeaponUpgrade@Team@@QAEXPAVCraft@@@Z 00498220 f   Teams.obj
 0001:00097230       ?UpdateCraftEngines@Team@@SAXH@Z 00498230 f   Teams.obj
 0001:00097310       ?UpdateCraftShields@Team@@SAXH@Z 00498310 f   Teams.obj
 0001:000973d0       ?UpdateCraftSensors@Team@@SAXH@Z 004983d0 f   Teams.obj
 0001:00097430       ?UpdateCraftWeapons@Team@@SAXH@Z 00498430 f   Teams.obj
 0001:00097440       ?CreateUpgradePod@Team@@QAEXHH@Z 00498440 f   Teams.obj
 0001:00097460       ?DestroyUpgradePod@Team@@QAEXHH@Z 00498460 f   Teams.obj
 0001:000977a0       ?GetCurrentUpgradeLevel@Team@@QBEHH@Z 004987a0 f   Teams.obj
 0001:000977d0       ?SetUpgradeModifier@Team@@QAEXHHM@Z 004987d0 f   Teams.obj
 0001:00097850       ?GetUpgradeModifier@Team@@QBEMHH@Z 00498850 f   Teams.obj
 0001:00097870       ?EnlistOfficers@Team@@QAEXH@Z 00498870 f   Teams.obj
 0001:00097890       ?DischargeOfficers@Team@@QAEXH@Z 00498890 f   Teams.obj
 0001:000978d0       ?AddResource@Team@@QAEMMW4eResource@@@Z 004988d0 f   Teams.obj
 0001:00097b00       ?GetResource@Team@@QAEMW4eResource@@@Z 00498b00 f   Teams.obj
 0001:00097bd0       ?GetViableUnitCount@Team@@QBEHXZ 00498bd0 f   Teams.obj
 0001:00097c60       ??0TechnologyTree@@QAE@XZ  00498c60 f   TechnologyTree.obj
 0001:00097cc0       ??1TechnologyTree@@UAE@XZ  00498cc0 f   TechnologyTree.obj
 0001:00097cd0       ?Possible@TechnologyTree@@QBE_NABVcPrjID@@@Z 00498cd0 f   TechnologyTree.obj
 0001:00097d60       ?Available@TechnologyTree@@QBE_NABVcPrjID@@@Z 00498d60 f   TechnologyTree.obj
 0001:00097df0       ?ExistingAndPossible@TechnologyTree@@QBEHABVcPrjID@@@Z 00498df0 f   TechnologyTree.obj
 0001:00097e80       ?Created@TechnologyTree@@QAEXABVcPrjID@@@Z 00498e80 f   TechnologyTree.obj
 0001:00097f50       ?Destroyed@TechnologyTree@@QAEXABVcPrjID@@@Z 00498f50 f   TechnologyTree.obj
 0001:00098000       ?mAddWithDependencies@TechnologyTree@@IAEXABVcPrjID@@PAPADH@Z 00499000 f   TechnologyTree.obj
 0001:000982e0       ?mMakeMeAndAllDependentOnMeImpossible@TechnologyTree@@IAEXPAVTechItem@@@Z 004992e0 f   TechnologyTree.obj
	0001:00098310       ?mLoadTree@TechnologyTree@@IAEXPBD@Z 00499310 f   TechnologyTree.obj
 0001:00098360       ?mParseFile@TechnologyTree@@IAEXPBD@Z 00499360 f   TechnologyTree.obj
 0001:000987a0       ?GetTreeName@TechnologyTree@@QBEPBDXZ 004997a0 f   TechnologyTree.obj
 0001:000987b0       ?mClear@TechnologyTree@@IAEXXZ 004997b0 f   TechnologyTree.obj
 0001:00098960       ?mFind@TechnologyTree@@IBEPAVTechItem@@ABVcPrjID@@@Z 00499960 f   TechnologyTree.obj
 0001:000989e0       ?mFind@TechnologyTree@@IBEPAVTechItem@@PBD@Z 004999e0 f   TechnologyTree.obj
 0001:00098a50       ?mFindOrCreate@TechnologyTree@@IAEPAVTechItem@@PBD@Z 00499a50 f   TechnologyTree.obj
 0001:00098b30       ?mAddItem@TechnologyTree@@IAEXPAVTechItem@@@Z 00499b30 f   TechnologyTree.obj
 0001:00098c30       ?mFindWeaponRace@TechnologyTree@@IAEHPAVTechItem@@@Z 00499c30 f   TechnologyTree.obj
 0001:00098c50       ?mComputeTechInfo@TechnologyTree@@IAEXXZ 00499c50 f   TechnologyTree.obj
 0001:00099110       ?ToText@TechnologyTree@@QAEXHAAV?$basic_stringstream@DU?$char_traits@D@std@@V?$allocator@D@2@@std@@PAH@Z 0049a110 f   TechnologyTree.obj
 0001:00099500       ?ShowDependencies@TechnologyTree@@QAEXAAV?$basic_stringstream@DU?$char_traits@D@std@@V?$allocator@D@2@@std@@ABVcPrjID@@@Z 0049a500 f   TechnologyTree.obj
 0001:000995e0       ?mShowDependencies@TechnologyTree@@IBEXAAV?$basic_stringstream@DU?$char_traits@D@std@@V?$allocator@D@2@@std@@PBVTechItem@@H@Z 0049a5e0 f   TechnologyTree.obj
 0001:000997d0       ?LoadAllTeams@TechnologyTree@@SAXPBD@Z 0049a7d0 f   TechnologyTree.obj
 0001:00099870       ?ClearAllTeams@TechnologyTree@@SAXXZ 0049a870 f   TechnologyTree.obj
 0001:00099890       ??_ETechnologyTree@@UAEPAXI@Z 0049a890 f i TechnologyTree.obj
 0001:00099890       ??_GTechnologyTree@@UAEPAXI@Z 0049a890 f i TechnologyTree.obj
 0001:000998c0       ??0TechItem@@QAE@PBD@Z     0049a8c0 f i TechnologyTree.obj
 0001:000998f0       ??1?$DynArray@PAVTechInfo@@@@QAE@XZ 0049a8f0 f i TechnologyTree.obj
 0001:00099940       ??_ETechInfo@@QAEPAXI@Z    0049a940 f i TechnologyTree.obj
 0001:000999a0       ??1TechInfo@@QAE@XZ        0049a9a0 f i TechnologyTree.obj
 0001:00099a50       ??0TechInfo@@QAE@XZ        0049aa50 f i TechnologyTree.obj
 0001:00099ad0       ?sSortSecondaryParents@TechInfo@@SAHPBX0@Z 0049aad0 f i TechnologyTree.obj
 0001:00099af0       ?mSetRaces@TechInfo@@QAEXH@Z 0049aaf0 f i TechnologyTree.obj
 0001:00099b50       ?CreateSecondaries@TechInfo@@QAEXPAV?$DynArray@PAVTechInfo@@@@@Z 0049ab50 f i TechnologyTree.obj
 0001:00099d90       ?FindMaxLevel@TechInfo@@QAEHXZ 0049ad90 f i TechnologyTree.obj
 0001:00099f20       ?sSortChildren@TechInfo@@KAHPBX0@Z 0049af20 f i TechnologyTree.obj
 0001:00099f90       ?mDependentOn@TechInfo@@IAE_NPAV1@@Z 0049af90 f i TechnologyTree.obj
 0001:00099ff0       ?PrintGraph@TechInfo@@QAEXAAV?$basic_stringstream@DU?$char_traits@D@std@@V?$allocator@D@2@@std@@@Z 0049aff0 f i TechnologyTree.obj
 0001:0009a360       ?mPrintNameSpaces@TechInfo@@IBEXAAV?$basic_stringstream@DU?$char_traits@D@std@@V?$allocator@D@2@@std@@@Z 0049b360 f i TechnologyTree.obj
 0001:0009a3b0       ?mPrintNextLine@TechInfo@@IBEXAAV?$basic_stringstream@DU?$char_traits@D@std@@V?$allocator@D@2@@std@@@Z 0049b3b0 f i TechnologyTree.obj
 0001:0009a470       ??1?$DynArray@PBVTechItem@@@@QAE@XZ 0049b470 f i TechnologyTree.obj
 0001:0009a4c0       ??0?$DynArray@PAVTechInfo@@@@QAE@H@Z 0049b4c0 f i TechnologyTree.obj
 0001:0009a4f0       ?Append@?$DynArrayGrowthRate@PAVTechInfo@@$20AEC@@@QAEXABQAVTechInfo@@@Z 0049b4f0 f i TechnologyTree.obj
 0001:0009a5c0       ??0?$DynArray@PBVTechItem@@@@QAE@H@Z 0049b5c0 f i TechnologyTree.obj
 0001:0009a5f0       ??0?$DynArrayGrowthRate@PAVTechInfo@@$20AEC@@@QAE@H@Z 0049b5f0 f i TechnologyTree.obj
 0001:0009a620       ?Grow@?$DynArrayGrowthRate@PAVTechInfo@@$20AEC@@@QAEHH@Z 0049b620 f i TechnologyTree.obj
 0001:0009a700       ?SetSize@?$DynArrayGrowthRate@PAVTechInfo@@$20AEC@@@QAEXH@Z 0049b700 f i TechnologyTree.obj
 0001:0009a7d0       ?SetCapacity@?$DynArrayGrowthRate@PAVTechInfo@@$20AEC@@@QAEXH@Z 0049b7d0 f i TechnologyTree.obj
 0001:0009a930       ??0Terrain@@QAE@MMMMMM@Z   0049b930 f   Terramap.obj
 0001:0009a960       ??0Terrain@@QAE@XZ         0049b960 f   Terramap.obj
	0001:0009a990       ?On_Map@Terrain@@QBE_NABVVector3@@@Z 0049b990 f   Terramap.obj
 0001:0009aa00       ?Adjust_Position_For_Actual_Map@Terrain@@QAEXAAM0@Z 0049ba00 f   Terramap.obj
 0001:0009aa60       ?Adjust_Position_For_Actual_Map@Terrain@@QAEXAAVVector3@@@Z 0049ba60 f   Terramap.obj
 0001:0009aad0       ?Keep_Point_On_Map@Terrain@@QAEXAAVVector3@@_N@Z 0049bad0 f   Terramap.obj
 0001:0009ab50       ?FindOpenSpotNearPoint@Terrain@@QAE?AVVector3@@ABV2@PBVGameObjectClass@@@Z 0049bb50 f   Terramap.obj
 0001:0009ad40       ?Load@Terrain@@QAE_NAAVFileReader@@@Z 0049bd40q	 f   Terramap.obj
 0001:0009ae50       ?SetProperMapHeightBounds@Terrain@@QAEXXZ 0049be50 f   Terramap.obj
 0001:0009aed0       ?Save@Terrain@@QAE_NAAVFileWriter@@@Z 0049bed0 f   Terramap.obj
 0001:0009af70       ?LoadAll@Terrain@@SA_NAAVFileReader@@@Z 0049bf70 f   Terramap.obj
 0001:0009b1f0       ?SaveAll@Terrain@@SA_NAAVFileWriter@@@Z 0049c1f0 f   Terramap.obj
	0001:0009b360       ?SetSizeForReload@Terrain@@SAXMM@Z 0049c360 f   Terramap.obj
	 0001:0009b3b0       ?ResetResize@Terrain@@SAXXZ 0049c3b0 f   Terramap.obj
 0001:0009b410       ??0AreaEffectObjectClass@@QAE@XZ 0049c410 f   AreaEffectObjectClass.obj
 0001:0009b470       ??0AreaEffectObjectClass@@QAE@PAV0@ABVParameterDB@@@Z 0049c470 f   AreaEffectObjectClass.obj
 0001:0009b4e0       ??1AreaEffectObjectClass@@UAE@XZ 0049c4e0 f   AreaEffectObjectClass.obj
 0001:0009b4f0       ?BuildClass@AreaEffectObjectClass@@UAEPAVGameObjectClass@@ABVParameterDB@@@Z 0049c4f0 f   AreaEffectObjectClass.obj
 0001:0009b570       ?Build@AreaEffectObjectClass@@UBEPAVGameObject@@XZ 0049c570 f   AreaEffectObjectClass.obj
 0001:0009b5f0       ?GetBuildCookie@GameObjectClass@@UBEPAVBuildCookie@@ABVVector3@@@Z 0049c5f0 f i AreaEffectObjectClass.obj
 0001:0009b600       ?CanStillPlaceHere@GameObjectClass@@UBE_NPBVBuildCookie@@@Z 0049c600 f i AreaEffectObjectClass.obj
 0001:0009b610       ?GetWarpSuppressionRadius@GameObjectClass@@UBE_NPAM@Z 0049c610 f i AreaEffectObjectClass.obj
 0001:0009b620       ?MapSize@GameObjectClass@@UBEHXZ 0049c620 f i AreaEffectObjectClass.obj
 0001:0009b630       ?IsCraftClass@GameObjectClass@@UBE_NXZ 0049c630 f i AreaEffectObjectClass.obj
 0001:0009b640       ??_GAreaEffectObjectClass@@UAEPAXI@Z 0049c640 f i AreaEffectObjectClass.obj
 0001:0009b640       ??_EAreaEffectObjectClass@@UAEPAXI@Z 0049c640 f i AreaEffectObjectClass.obj
 0001:0009b770       ??0AsteroidFieldClass@@QAE@XZ 0049c770 f   AsteroidFieldClass.obj
 0001:0009b830       ??0AsteroidFieldClass@@QAE@PAV0@ABVParameterDB@@@Z 0049c830 f   AsteroidFieldClass.obj
 0001:0009ba10       ??1AsteroidFieldClass@@UAE@XZ 0049ca10 f   AsteroidFieldClass.obj
 0001:0009ba40       ?BuildClass@AsteroidFieldClass@@MAEPAVGameObjectClass@@ABVParameterDB@@@Z 0049ca40 f   AsteroidFieldClass.obj
 0001:0009bab0       ?Build@AsteroidFieldClass@@EBEPAVGameObject@@XZ 0049cab0 f   AsteroidFieldClass.obj
 0001:0009bb50       ?CreateSpirit@AsteroidFieldClass@@UBEPAVSpirit@@XZ 0049cb50 f   AsteroidFieldClass.obj
 0001:0009bbf0       ?MapSize@AsteroidFieldClass@@UBEHXZ 0049cbf0 f   AsteroidFieldClass.obj
 0001:0009bc60       ??_GAsteroidFieldClass@@UAEPAXI@Z 0049cc60 f i AsteroidFieldClass.obj
 0001:0009bc60       ??_EAsteroidFieldClass@@UAEPAXI@Z 0049cc60 f i AsteroidFieldClass.obj
 0001:0009bc90       ?IsCraftInstance@GameObjectInstance@@UBE_NXZ 0049cc90 f i AsteroidFieldClass.obj
 0001:0009bca0       ??_EAsteroidFieldInstance@@UAEPAXI@Z 0049cca0 f i AsteroidFieldClass.obj
 0001:0009bca0       ??_GAsteroidFieldInstance@@UAEPAXI@Z 0049cca0 f i AsteroidFieldClass.obj
 0001:0009bcd0       ??_GAsteroidFieldSpirit@@UAEPAXI@Z 0049ccd0 f i AsteroidFieldClass.obj
 0001:0009bcd0       ??_EAsteroidFieldSpirit@@UAEPAXI@Z 0049ccd0 f i AsteroidFieldClass.obj
 0001:0009bd00       ??1AsteroidFieldSpirit@@UAE@XZ 0049cd00 f i AsteroidFieldClass.obj
 0001:0009bd40       ??0BackgroundObjectClass@@QAE@XZ 0049cd40 f   BackgroundObjectClass.obj
 0001:0009bda0       ??0BackgroundObjectClass@@QAE@PAV0@ABVParameterDB@@@Z 0049cda0 f   BackgroundObjectClass.obj
 0001:0009bdd0       ??1BackgroundObjectClass@@UAE@XZ 0049cdd0 f   BackgroundObjectClass.obj
 0001:0009bde0       ?BuildClass@BackgroundObjectClass@@UAEPAVGameObjectClass@@ABVParameterDB@@@Z 0049cde0 f   BackgroundObjectClass.obj
 0001:0009be40       ?Build@BackgroundObjectClass@@UBEPAVGameObject@@XZ 0049ce40 f   BackgroundObjectClass.obj
 0001:0009bec0       ??_GBackgroundObjectClass@@UAEPAXI@Z 0049cec0 f i BackgroundObjectClass.obj
 0001:0009bec0       ??_EBackgroundObjectClass@@UAEPAXI@Z 0049cec0 f i BackgroundObjectClass.obj
 0001:0009bf20       ??0BackgroundPlanetClass@@QAE@XZ 0049cf20 f   BackgroundPlanetClass.obj
 0001:0009bf90       ??0BackgroundPlanetClass@@QAE@PAV0@ABVParameterDB@@@Z 0049cf90 f   BackgroundPlanetClass.obj
 0001:0009c030       ?BuildClass@BackgroundPlanetClass@@UAEPAVGameObjectClass@@ABVParameterDB@@@Z 0049d030 f   BackgroundPlanetClass.obj
 0001:0009c0e0       ?Build@BackgroundPlanetClass@@UBEPAVGameObject@@XZ 0049d0e0 f   BackgroundPlanetClass.obj
 0001:0009c160       ??1BackgroundPlanetClass@@UAE@XZ 0049d160 f i BackgroundPlanetClass.obj
 0001:0009c170       ??_GBackgroundPlanetClass@@UAEPAXI@Z 0049d170 f i BackgroundPlanetClass.obj
 0001:0009c170       ??_EBackgroundPlanetClass@@UAEPAXI@Z 0049d170 f i BackgroundPlanetClass.obj
 0001:0009c1d0       ??0BlackHoleClass@@QAE@XZ  0049d1d0 f   BlackHoleClass.obj
 0001:0009c240       ??0BlackHoleClass@@QAE@PAV0@ABVParameterDB@@@Z 0049d240 f   BlackHoleClass.obj
 0001:0009c310       ??1BlackHoleClass@@UAE@XZ  0049d310 f   BlackHoleClass.obj
 0001:0009c320       ?BuildClass@BlackHoleClass@@UAEPAVGameObjectClass@@ABVParameterDB@@@Z 0049d320 f   BlackHoleClass.obj
 0001:0009c410       ?Build@BlackHoleClass@@UBEPAVGameObject@@XZ 0049d410 f   BlackHoleClass.obj
 0001:0009c470       ?GetWarpSuppressionRadius@BlackHoleClass@@UBE_NPAM@Z 0049d470 f   BlackHoleClass.obj
 0001:0009c4b0       ??_GBlackHoleClass@@UAEPAXI@Z 0049d4b0 f i BlackHoleClass.obj
 0001:0009c4b0       ??_EBlackHoleClass@@UAEPAXI@Z 0049d4b0 f i BlackHoleClass.obj
 0001:0009c510       ??0ConstructionObjectClass@@QAE@XZ 0049d510 f   ConstructionObjectClass.obj
 0001:0009c570       ??0ConstructionObjectClass@@QAE@PAV0@ABVParameterDB@@@Z 0049d570 f   ConstructionObjectClass.obj
 0001:0009c5a0       ??1ConstructionObjectClass@@UAE@XZ 0049d5a0 f   ConstructionObjectClass.obj
 0001:0009c5b0       ?Build@ConstructionObjectClass@@UBEPAVGameObject@@XZ 0049d5b0 f   ConstructionObjectClass.obj
 0001:0009c610       ?BuildClass@ConstructionObjectClass@@UAEPAVGameObjectClass@@ABVParameterDB@@@Z 0049d610 f   ConstructionObjectClass.obj
 0001:0009c690       ??_GConstructionObjectClass@@UAEPAXI@Z 0049d690 f i ConstructionObjectClass.obj
 0001:0009c690       ??_EConstructionObjectClass@@UAEPAXI@Z 0049d690 f i ConstructionObjectClass.obj
 0001:0009c6f0       ??0IonStormClass@@QAE@XZ   0049d6f0 f   IonStormClass.obj
 0001:0009c750       ??0IonStormClass@@QAE@PAV0@ABVParameterDB@@@Z 0049d750 f   IonStormClass.obj
 0001:0009c810       ??1IonStormClass@@UAE@XZ   0049d810 f   IonStormClass.obj
 0001:0009c820       ?BuildClass@IonStormClass@@UAEPAVGameObjectClass@@ABVParameterDB@@@Z 0049d820 f   IonStormClass.obj
 0001:0009c900       ?Build@IonStormClass@@UBEPAVGameObject@@XZ 0049d900 f   IonStormClass.obj
 0001:0009c980       ??_EIonStormClass@@UAEPAXI@Z 0049d980 f i IonStormClass.obj
 0001:0009c980       ??_GIonStormClass@@UAEPAXI@Z 0049d980 f i IonStormClass.obj
 0001:0009c9e0       ??0LatinumNebulaClass@@QAE@XZ 0049d9e0 f   LatinumNebulaClass.obj
 0001:0009ca50       ??0LatinumNebulaClass@@QAE@PAV0@ABVParameterDB@@@Z 0049da50 f   LatinumNebulaClass.obj
 0001:0009cac0       ??1LatinumNebulaClass@@UAE@XZ 0049dac0 f   LatinumNebulaClass.obj
 0001:0009cad0       ?Build@LatinumNebulaClass@@UBEPAVGameObject@@XZ 0049dad0 f   LatinumNebulaClass.obj
 0001:0009cb30       ?BuildClass@LatinumNebulaClass@@UAEPAVGameObjectClass@@ABVParameterDB@@@Z 0049db30 f   LatinumNebulaClass.obj
 0001:0009cbd0       ??_GLatinumNebulaClass@@UAEPAXI@Z 0049dbd0 f i LatinumNebulaClass.obj
 0001:0009cbd0       ??_ELatinumNebulaClass@@UAEPAXI@Z 0049dbd0 f i LatinumNebulaClass.obj
 0001:0009cc30       ?Simulate@HideEffect@@UAEXM@Z 0049dc30 f   NebulaClass.obj
 0001:0009cc40       ??0NebulaClass@@QAE@XZ     0049dc40 f   NebulaClass.obj
 0001:0009cce0       ?getNebulaClass@NebulaClass@@SAPBV1@H@Z 0049dce0 f   NebulaClass.obj
 0001:0009cd30       ?Reset_Nebula_Classes@NebulaClass@@SAXXZ 0049dd30 f   NebulaClass.obj
 0001:0009cd40       ?s_SetTexturesRecursive@NebulaClass@@KAXPAVST3D_Node@@@Z 0049dd40 f   NebulaClass.obj
 0001:0009cd90       ??0NebulaClass@@QAE@PAV0@ABVParameterDB@@@Z 0049dd90 f   NebulaClass.obj
 0001:0009d300       ??1NebulaClass@@UAE@XZ     0049e300 f   NebulaClass.obj
 0001:0009d400       ?BuildClass@NebulaClass@@UAEPAVGameObjectClass@@ABVParameterDB@@@Z 0049e400 f   NebulaClass.obj
 0001:0009d470       ?Build@NebulaClass@@UBEPAVGameObject@@XZ 0049e470 f   NebulaClass.obj
 0001:0009d4d0       ?EffectAction@NebulaClass@@QBEXPAVCraft@@M@Z 0049e4d0 f   NebulaClass.obj
 0001:0009d7b0       ?DamageAction@NebulaClass@@QBEXPAVCraft@@M@Z 0049e7b0 f   NebulaClass.obj
 0001:0009d920       ?RegenAction@NebulaClass@@QBEXPAVCraft@@M@Z 0049e920 f   NebulaClass.obj
 0001:0009d970       ?ClearEffects@NebulaClass@@QBEXPAVCraft@@@Z 0049e970 f   NebulaClass.obj
 0001:0009d990       ?RepairAction@NebulaClass@@QBEXPAVCraft@@M@Z 0049e990 f   NebulaClass.obj
 0001:0009d9d0       ?MapSize@NebulaClass@@UBEHXZ 0049e9d0 f   NebulaClass.obj
 0001:0009da40       ??_GNebulaClass@@UAEPAXI@Z 0049ea40 f i NebulaClass.obj
 0001:0009da40       ??_ENebulaClass@@UAEPAXI@Z 0049ea40 f i NebulaClass.obj
 0001:0009da70       ?Render@SpecialObjectEffect@@UAEXPAVST3D_Camera@@@Z 0049ea70 f i NebulaClass.obj
 0001:0009da80       ?PostLoad@SpecialObjectEffect@@UAEXXZ 0049ea80 f i NebulaClass.obj
 0001:0009da90       ??_GHideEffect@@UAEPAXI@Z  0049ea90 f i NebulaClass.obj
 0001:0009da90       ??_EHideEffect@@UAEPAXI@Z  0049ea90 f i NebulaClass.obj
 0001:0009dac0       ??1HideEffect@@UAE@XZ      0049eac0 f i NebulaClass.obj
 0001:0009dad0       ?_Xran@?$vector@PAVNebulaClass@@V?$allocator@PAVNebulaClass@@@std@@@std@@IBEXXZ 0049ead0 f i NebulaClass.obj
 0001:0009dbb0       ?insert@?$vector@PAVNebulaClass@@V?$allocator@PAVNebulaClass@@@std@@@std@@QAEXPAPAVNebulaClass@@IABQAV3@@Z 0049ebb0 f i NebulaClass.obj
 0001:0009ddf0       ??0ScrapClass@@QAE@XZ      0049edf0 f   ScrapClass.obj
 0001:0009de60       ??0ScrapClass@@QAE@PAV0@ABVParameterDB@@@Z 0049ee60 f   ScrapClass.obj
 0001:0009ded0       ??1ScrapClass@@UAE@XZ      0049eed0 f   ScrapClass.obj
 0001:0009dee0       ?Build@ScrapClass@@UBEPAVGameObject@@XZ 0049eee0 f   ScrapClass.obj
 0001:0009df40       ?BuildClass@ScrapClass@@UAEPAVGameObjectClass@@ABVParameterDB@@@Z 0049ef40 f   ScrapClass.obj
 0001:0009dfe0       ??_GScrapClass@@UAEPAXI@Z  0049efe0 f i ScrapClass.obj
 0001:0009dfe0       ??_EScrapClass@@UAEPAXI@Z  0049efe0 f i ScrapClass.obj
 0001:0009e040       ??0TerrainObjectClass@@QAE@XZ 0049f040 f   TerrainObjectClass.obj
 0001:0009e0a0       ??0TerrainObjectClass@@QAE@PAV0@ABVParameterDB@@@Z 0049f0a0 f   TerrainObjectClass.obj
 0001:0009e0d0       ??1TerrainObjectClass@@UAE@XZ 0049f0d0 f   TerrainObjectClass.obj
 0001:0009e0e0       ?Build@TerrainObjectClass@@UBEPAVGameObject@@XZ 0049f0e0 f   TerrainObjectClass.obj
 0001:0009e140       ?BuildClass@TerrainObjectClass@@UAEPAVGameObjectClass@@ABVParameterDB@@@Z 0049f140 f   TerrainObjectClass.obj
 0001:0009e1c0       ??_GTerrainObjectClass@@UAEPAXI@Z 0049f1c0 f i TerrainObjectClass.obj
 0001:0009e1c0       ??_ETerrainObjectClass@@UAEPAXI@Z 0049f1c0 f i TerrainObjectClass.obj
 0001:0009e220       ??0UtritiumBallClass@@QAE@XZ 0049f220 f   UtritiumBallClass.obj
 0001:0009e280       ??0UtritiumBallClass@@QAE@PAV0@ABVParameterDB@@@Z 0049f280 f   UtritiumBallClass.obj
 0001:0009e360       ??1UtritiumBallClass@@UAE@XZ 0049f360 f   UtritiumBallClass.obj
 0001:0009e370       ?BuildClass@UtritiumBallClass@@UAEPAVGameObjectClass@@ABVParameterDB@@@Z 0049f370 f   UtritiumBallClass.obj
 0001:0009e3e0       ?Build@UtritiumBallClass@@UBEPAVGameObject@@XZ 0049f3e0 f   UtritiumBallClass.obj
 0001:0009e460       ??_GUtritiumBallClass@@UAEPAXI@Z 0049f460 f i UtritiumBallClass.obj
 0001:0009e460       ??_EUtritiumBallClass@@UAEPAXI@Z 0049f460 f i UtritiumBallClass.obj
 0001:0009e4c0       ??0WormholeClass@@QAE@XZ   0049f4c0 f   WormHoleClass.obj
 0001:0009e540       ??0WormholeClass@@QAE@PAV0@ABVParameterDB@@@Z 0049f540 f   WormHoleClass.obj
 0001:0009e870       ??1WormholeClass@@UAE@XZ   0049f870 f   WormHoleClass.obj
 0001:0009e880       ?BuildClass@WormholeClass@@UAEPAVGameObjectClass@@ABVParameterDB@@@Z 0049f880 f   WormHoleClass.obj
 0001:0009e8f0       ?Build@WormholeClass@@UBEPAVGameObject@@XZ 0049f8f0 f   WormHoleClass.obj
 0001:0009e970       ??_EWormholeClass@@UAEPAXI@Z 0049f970 f i WormHoleClass.obj
 0001:0009e970       ??_GWormholeClass@@UAEPAXI@Z 0049f970 f i WormHoleClass.obj
 0001:0009e9a0       ??0AreaEffectObject@@QAE@PBVAreaEffectObjectClass@@@Z 0049f9a0 f   AreaEffectObject.obj
 0001:0009e9c0       ?InitializeGeometry@AreaEffectObject@@UAEXABVMatrix34@@@Z 0049f9c0 f   AreaEffectObject.obj
 0001:0009e9d0       ??1AreaEffectObject@@UAE@XZ 0049f9d0 f   AreaEffectObject.obj
 0001:0009e9e0       ?PreSimulate@AreaEffectObject@@UAEXM@Z 0049f9e0 f   AreaEffectObject.obj
 0001:0009eac0       ?SearchArea@AreaEffectObject@@QAE?AV?$list@PAVCraft@@V?$allocator@PAVCraft@@@std@@@std@@M@Z 0049fac0 f   AreaEffectObject.obj
 0001:0009ed20       ?IgnoreTooltipInterface@GameObject@@UBE_NXZ 0049fd20 f i AreaEffectObject.obj
 0001:0009ed30       ?Object_Moved_In_Edit_Mode@GameObject@@UAEXXZ 0049fd30 f i AreaEffectObject.obj
 0001:0009ed40       ?UpdateDirection@GameObject@@UAEXXZ 0049fd40 f i AreaEffectObject.obj
 0001:0009ed50       ?GetIsActive@GameObject@@UAE_NW4AiCommand@@H@Z 0049fd50 f i AreaEffectObject.obj
 0001:0009ed60       ?GetIsEnabled@GameObject@@UAE_NW4AiCommand@@@Z 0049fd60 f i AreaEffectObject.obj
 0001:0009ed70       ?OnFinalBuild@GameObject@@UAEXPBVBuildCookie@@@Z 0049fd70 f i AreaEffectObject.obj
 0001:0009ed80       ?DamageAlloc@GameObject@@UAE_NPAVSTDamage@@PBVST3D_Node@@PBVVector3@@_N@Z 0049fd80 f i AreaEffectObject.obj
 0001:0009ed90       ?IsNonCombat@GameObject@@UBE_NXZ 0049fd90 f i AreaEffectObject.obj
	0001:0009eda0       ?GetResourceTransferInterface@GameObject@@UBEPAVResourceTransferInterface@@XZ 0049fda0 f i AreaEffectObject.obj
 0001:0009edb0       ?UpdateSpecialWeaponButtons@GameObject@@MAEXXZ 0049fdb0 f i AreaEffectObject.obj
 0001:0009edc0       ?UpdateBuildButtons@GameObject@@MAEXXZ 0049fdc0 f i AreaEffectObject.obj
 0001:0009edd0       ?EffectAction@AreaEffectObject@@UAEXPAVCraft@@M@Z 0049fdd0 f i AreaEffectObject.obj
 0001:0009ede0       ?IgnoreInterface@AreaEffectObject@@UBE_NXZ 0049fde0 f i AreaEffectObject.obj
 0001:0009edf0       ??_GAreaEffectObject@@UAEPAXI@Z 0049fdf0 f i AreaEffectObject.obj
 0001:0009edf0       ??_EAreaEffectObject@@UAEPAXI@Z 0049fdf0 f i AreaEffectObject.obj
 0001:0009ee20       ??1?$list@PAVCraft@@V?$allocator@PAVCraft@@@std@@@std@@QAE@XZ 0049fe20 f i AreaEffectObject.obj
 0001:0009ee70       ?begin@?$list@PAVCraft@@V?$allocator@PAVCraft@@@std@@@std@@QAE?AViterator@12@XZ 0049fe70 f i AreaEffectObject.obj
 0001:0009ee90       ?insert@?$list@PAVCraft@@V?$allocator@PAVCraft@@@std@@@std@@QAE?AViterator@12@V312@ABQAVCraft@@@Z 0049fe90 f i AreaEffectObject.obj
 0001:0009eef0       ?insert@?$list@PAVCraft@@V?$allocator@PAVCraft@@@std@@@std@@QAEXViterator@12@Vconst_iterator@12@1@Z 0049fef0 f i AreaEffectObject.obj
 0001:0009ef60       ?erase@?$list@PAVCraft@@V?$allocator@PAVCraft@@@std@@@std@@QAE?AViterator@12@V312@0@Z 0049ff60 f i AreaEffectObject.obj
 0001:0009efb0       ?_Buynode@?$list@PAVCraft@@V?$allocator@PAVCraft@@@std@@@std@@IAEPAU_Node@12@PAU312@0@Z 0049ffb0 f i AreaEffectObject.obj
 0001:0009efe0       ?InitializeGeometry@AsteroidField@@UAEXABVMatrix34@@@Z 0049ffe0 f   AsteroidField.obj
 0001:0009f6b0       ?CalculateBoundingBox@AsteroidField@@UAEXXZ 004a06b0 f   AsteroidField.obj
 0001:0009f720       ?GetBoundingBox@AsteroidField@@UBE?AVBBOX@@XZ 004a0720 f   AsteroidField.obj
 0001:0009f740       ??0AsteroidField@@QAE@PBVAsteroidFieldClass@@NNNN@Z 004a0740 f   AsteroidField.obj
 0001:0009f9b0       ??1AsteroidField@@UAE@XZ   004a09b0 f   AsteroidField.obj
 0001:0009fa70       ?Are_We_On_A_Belt@AsteroidField@@QAE_NXZ 004a0a70 f   AsteroidField.obj
 0001:0009faa0       ?Setup_Asteroid_Footprints@AsteroidField@@QAEXXZ 004a0aa0 f   AsteroidField.obj
 0001:0009fcb0       ?Force@AsteroidField@@QAE?AVVector3@@ABV2@ABVAsteroidInfo@@01@Z 004a0cb0 f   AsteroidField.obj
 0001:0009fd70       ?ExternalForce@AsteroidField@@QAE?AVVector3@@ABV2@ABVAsteroidInfo@@@Z 004a0d70 f   AsteroidField.obj
 0001:0009fde0       ?Potential@AsteroidField@@QAEMABVVector3@@ABVAsteroidInfo@@01@Z 004a0de0 f   AsteroidField.obj
 0001:0009fe50       ?ExternalPotential@AsteroidField@@QAEMABVVector3@@ABVAsteroidInfo@@@Z 004a0e50 f   AsteroidField.obj
 0001:0009fe90       ?GetStatistics@AsteroidField@@QAEXPAM0PAVVector3@@10@Z 004a0e90 f   AsteroidField.obj
 0001:000a0120       ?ShiftCenter@AsteroidField@@QAEMABVVector3@@0@Z 004a1120 f   AsteroidField.obj
 0001:000a01c0       ?ComputeCenterOfMass@AsteroidField@@QBE?AVVector3@@XZ 004a11c0 f   AsteroidField.obj
 0001:000a0280       ?FixPositions@AsteroidField@@QAEXXZ 004a1280 f   AsteroidField.obj
 0001:000a03e0       ?EnforceConservation@AsteroidField@@QAEXXZ 004a13e0 f   AsteroidField.obj
 0001:000a0620       ?Render@AsteroidField@@UAEXPAVST3D_Camera@@@Z 004a1620 f   AsteroidField.obj
 0001:000a0630       ?InternalSimulate@AsteroidField@@AAEXM@Z 004a1630 f   AsteroidField.obj
 0001:000a0980       ?Simulate@AsteroidField@@UAEXM@Z 004a1980 f   AsteroidField.obj
 0001:000a0b70       ?Object_Moved_In_Edit_Mode@AsteroidField@@UAEXXZ 004a1b70 f   AsteroidField.obj
 0001:000a0b80       ?Load@AsteroidField@@UAE_NAAVFileReader@@@Z 004a1b80 f   AsteroidField.obj
 0001:000a0c50       ?PostLoad@AsteroidField@@UAE_NXZ 004a1c50 f   AsteroidField.obj
 0001:000a0ca0       ?Save@AsteroidField@@UAE_NAAVFileWriter@@@Z 004a1ca0 f   AsteroidField.obj
 0001:000a0da0       ?Choose_Location_On_Asteroid_Belt@AsteroidField@@AAEXXZ 004a1da0 f   AsteroidField.obj
 0001:000a0ed0       ?Move_Field_Along_Belt@AsteroidField@@AAEXM@Z 004a1ed0 f   AsteroidField.obj
 0001:000a0ee0       ?InitializeSpirit@AsteroidField@@UBEXPAVSpirit@@@Z 004a1ee0 f   AsteroidField.obj
 0001:000a0f70       ?CalculateBoundingSphere@AsteroidField@@UAEXXZ 004a1f70 f   AsteroidField.obj
 0001:000a0fe0       ?IgnoreInterface@AsteroidField@@UBE_NXZ 004a1fe0 f i AsteroidField.obj
 0001:000a0ff0       ??_EAsteroidField@@UAEPAXI@Z 004a1ff0 f i AsteroidField.obj
 0001:000a0ff0       ??_GAsteroidField@@UAEPAXI@Z 004a1ff0 f i AsteroidField.obj
 0001:000a1020       ?GetLength@@YAMABVVector3@@@Z 004a2020 f i AsteroidField.obj
 0001:000a1050       ?GetLengthSquared@@YAMABVVector3@@@Z 004a2050 f i AsteroidField.obj
 0001:000a1080       ?size@?$vector@PAVAsteroidField@@V?$allocator@PAVAsteroidField@@@std@@@std@@QBEIXZ 004a2080 f i AsteroidField.obj
 0001:000a10a0       ?_Destroy@?$vector@PAVAsteroidField@@V?$allocator@PAVAsteroidField@@@std@@@std@@IAEXPAPAVAsteroidField@@0@Z 004a20a0 f i AsteroidField.obj
 0001:000a10b0       ?_Ucopy@?$vector@PAVAsteroidField@@V?$allocator@PAVAsteroidField@@@std@@@std@@IAEPAPAVAsteroidField@@PBQAV3@0PAPAV3@@Z 004a20b0 f i AsteroidField.obj
 0001:000a10e0       ?_Ufill@?$vector@PAVAsteroidField@@V?$allocator@PAVAsteroidField@@@std@@@std@@IAEXPAPAVAsteroidField@@IABQAV3@@Z 004a20e0 f i AsteroidField.obj
 0001:000a1110       ?CreateAsteroids@AsteroidFieldInstance@@QAEXH@Z 004a2110 f   AsteroidFieldInstance.obj
 0001:000a11b0       ?GetAsteroid@AsteroidFieldInstance@@QAEAAVST3D_Instance@@H@Z 004a21b0 f   AsteroidFieldInstance.obj
 0001:000a11d0       ?RenderInternal@AsteroidFieldInstance@@UAEXPAVST3D_Camera@@@Z 004a21d0 f   AsteroidFieldInstance.obj
 0001:000a1240       ??1AsteroidFieldInstance@@UAE@XZ 004a2240 f   AsteroidFieldInstance.obj
 0001:000a12c0       ??_EAsteroidInstance@@UAEPAXI@Z 004a22c0 f i AsteroidFieldInstance.obj
 0001:000a1320       ??0AsteroidInstance@@QAE@XZ 004a2320 f i AsteroidFieldInstance.obj
 0001:000a1340       ?ComputeFadeOut@AsteroidInstance@@UBE_NAAM@Z 004a2340 f i AsteroidFieldInstance.obj
 0001:000a1370       ??1AsteroidInstance@@UAE@XZ 004a2370 f i AsteroidFieldInstance.obj
 0001:000a1380       ?PostLoad@AsteroidFieldSpirit@@UAEXXZ 004a2380 f   AsteroidFieldSpirit.obj
 0001:000a13d0       ??0BackgroundObject@@QAE@PBVBackgroundObjectClass@@@Z 004a23d0 f   BackgroundObject.obj
 0001:000a1420       ??1BackgroundObject@@UAE@XZ 004a2420 f   BackgroundObject.obj
 0001:000a1430       ?Simulate@BackgroundObject@@UAEXM@Z 004a2430 f   BackgroundObject.obj
 0001:000a1440       ?Load@BackgroundObject@@UAE_NAAVFileReader@@@Z 004a2440 f   BackgroundObject.obj
 0001:000a14b0       ?Save@BackgroundObject@@UAE_NAAVFileWriter@@@Z 004a24b0 f   BackgroundObject.obj
 0001:000a1550       ?IgnoreInterface@BackgroundObject@@UBE_NXZ 004a2550 f i BackgroundObject.obj
 0001:000a1560       ??_GBackgroundObject@@UAEPAXI@Z 004a2560 f i BackgroundObject.obj
 0001:000a1560       ??_EBackgroundObject@@UAEPAXI@Z 004a2560 f i BackgroundObject.obj
 0001:000a1590       ??0BackgroundPlanet@@QAE@PBVBackgroundPlanetClass@@@Z 004a2590 f   BackgroundPlanet.obj
 0001:000a1790       ??1BackgroundPlanet@@UAE@XZ 004a2790 f   BackgroundPlanet.obj
 0001:000a1840       ?GetNearestBkPlanet@BackgroundPlanet@@SAPAV1@ABVVector3@@M@Z 004a2840 f   BackgroundPlanet.obj
 0001:000a18f0       ?Simulate@BackgroundPlanet@@UAEXM@Z 004a28f0 f   BackgroundPlanet.obj
 0001:000a1950       ?Render@BackgroundPlanet@@UAEXPAVST3D_Camera@@@Z 004a2950 f   BackgroundPlanet.obj
 0001:000a19e0       ??_GBackgroundPlanet@@UAEPAXI@Z 004a29e0 f i BackgroundPlanet.obj
 0001:000a19e0       ??_EBackgroundPlanet@@UAEPAXI@Z 004a29e0 f i BackgroundPlanet.obj
 0001:000a1a10       ?size@?$vector@PAVBackgroundPlanet@@V?$allocator@PAVBackgroundPlanet@@@std@@@std@@QBEIXZ 004a2a10 f i BackgroundPlanet.obj
 0001:000a1a30       ?_Destroy@?$vector@PAVBackgroundPlanet@@V?$allocator@PAVBackgroundPlanet@@@std@@@std@@IAEXPAPAVBackgroundPlanet@@0@Z 004a2a30 f i BackgroundPlanet.obj
 0001:000a1a40       ?_Ucopy@?$vector@PAVBackgroundPlanet@@V?$allocator@PAVBackgroundPlanet@@@std@@@std@@IAEPAPAVBackgroundPlanet@@PBQAV3@0PAPAV3@@Z 004a2a40 f i BackgroundPlanet.obj
 0001:000a1a70       ?_Ufill@?$vector@PAVBackgroundPlanet@@V?$allocator@PAVBackgroundPlanet@@@std@@@std@@IAEXPAPAVBackgroundPlanet@@IABQAV3@@Z 004a2a70 f i BackgroundPlanet.obj
 0001:000a1aa0       ?_Construct@std@@YAXPAPAVBackgroundPlanet@@ABQAV2@@Z 004a2aa0 f i BackgroundPlanet.obj
 0001:000a1ac0       ??0BlackHole@@QAE@PBVBlackHoleClass@@@Z 004a2ac0 f   BlackHole.obj
 0001:000a1cd0       ?GetNearestBlackHole@BlackHole@@SAPAV1@ABVVector3@@M@Z 004a2cd0 f   BlackHole.obj
 0001:000a1d40       ?InitializeGeometry@BlackHole@@UAEXABVMatrix34@@@Z 004a2d40 f   BlackHole.obj
 0001:000a1e20       ??1BlackHole@@UAE@XZ       004a2e20 f   BlackHole.obj
 0001:000a1ed0       ?Simulate@BlackHole@@UAEXM@Z 004a2ed0 f   BlackHole.obj
 0001:000a1f50       ?UpdateRotation@BlackHole@@QAEXM@Z 004a2f50 f   BlackHole.obj
 0001:000a1fc0       ?EffectAction@BlackHole@@UAEXPAVCraft@@M@Z 004a2fc0 f   BlackHole.obj
 0001:000a2000       ?CheckGravityArea@BlackHole@@QAEXM@Z 004a3000 f   BlackHole.obj
 0001:000a2360       ??_EBlackHole@@UAEPAXI@Z   004a3360 f i BlackHole.obj
 0001:000a2360       ??_GBlackHole@@UAEPAXI@Z   004a3360 f i BlackHole.obj
 0001:000a2390       ?size@?$vector@PAVBlackHole@@V?$allocator@PAVBlackHole@@@std@@@std@@QBEIXZ 004a3390 f i BlackHole.obj
 0001:000a23b0       ?_Destroy@?$vector@PAVBlackHole@@V?$allocator@PAVBlackHole@@@std@@@std@@IAEXPAPAVBlackHole@@0@Z 004a33b0 f i BlackHole.obj
 0001:000a23c0       ?_Ucopy@?$vector@PAVBlackHole@@V?$allocator@PAVBlackHole@@@std@@@std@@IAEPAPAVBlackHole@@PBQAV3@0PAPAV3@@Z 004a33c0 f i BlackHole.obj
 0001:000a23f0       ?_Ufill@?$vector@PAVBlackHole@@V?$allocator@PAVBlackHole@@@std@@@std@@IAEXPAPAVBlackHole@@IABQAV3@@Z 004a33f0 f i BlackHole.obj
 0001:000a2420       ?_Construct@std@@YAXPAPAVBlackHole@@ABQAV2@@Z 004a3420 f i BlackHole.obj
 0001:000a2440       ??0ConstructionObject@@QAE@PBVConstructionObjectClass@@@Z 004a3440 f   ConstructionObject.obj
0001:000a2480       ?SetBuildClass@ConstructionObject@@QAEXPBVCraftClass@@@Z 004a3480 f   ConstructionObject.obj
 0001:000a2500       ??1ConstructionObject@@UAE@XZ 004a3500 f   ConstructionObject.obj
 0001:000a2590       ?GetClassDisplayName@ConstructionObject@@UBEPBDXZ 004a3590 f   ConstructionObject.obj
 0001:000a25b0       ?Save@ConstructionObject@@UAE_NAAVFileWriter@@@Z 004a35b0 f   ConstructionObject.obj
 0001:000a2620       ?Load@ConstructionObject@@UAE_NAAVFileReader@@@Z 004a3620 f   ConstructionObject.obj
 0001:000a26c0       ?PostLoad@ConstructionObject@@UAE_NXZ 004a36c0 f   ConstructionObject.obj
 0001:000a2760       ?IgnoreInterface@GameObject@@UBE_NXZ 004a3760 f i ConstructionObject.obj
 0001:000a2770       ?Simulate@ConstructionObject@@UAEXM@Z 004a3770 f i ConstructionObject.obj
 0001:000a2780       ?PostSimulate@ConstructionObject@@UAEXM@Z 004a3780 f i ConstructionObject.obj
 0001:000a2790       ?Render@ConstructionObject@@UAEXPAVST3D_Camera@@@Z 004a3790 f i ConstructionObject.obj
 0001:000a27a0       ??_GConstructionObject@@UAEPAXI@Z 004a37a0 f i ConstructionObject.obj
 0001:000a27a0       ??_EConstructionObject@@UAEPAXI@Z 004a37a0 f i ConstructionObject.obj
 0001:000a27d0       ??0IonStorm@@QAE@PBVIonStormClass@@@Z 004a37d0 f   IonStorm.obj
 0001:000a2a00       ?InitializeGeometry@IonStorm@@UAEXABVMatrix34@@@Z 004a3a00 f   IonStorm.obj
 0001:000a2ae0       ??1IonStorm@@UAE@XZ        004a3ae0 f   IonStorm.obj
 0001:000a2b90       ?Simulate@IonStorm@@UAEXM@Z 004a3b90 f   IonStorm.obj
 0001:000a2cd0       ?EffectAction@IonStorm@@UAEXPAVCraft@@M@Z 004a3cd0 f   IonStorm.obj
 0001:000a2d90       ?UpdateAnimation@IonStorm@@IAEXXZ 004a3d90 f   IonStorm.obj
 0001:000a2e90       ?UpdateEffects@IonStorm@@IAEXXZ 004a3e90 f   IonStorm.obj
 0001:000a2ee0       ?HideEffects@IonStorm@@IAEXXZ 004a3ee0 f   IonStorm.obj
 0001:000a2f10       ?UpdateRotation@IonStorm@@IAEXXZ 004a3f10 f   IonStorm.obj
 0001:000a2f30       ?InitEffects@IonStorm@@IAEXXZ 004a3f30 f   IonStorm.obj
 0001:000a2f60       ?Save@IonStorm@@UAE_NAAVFileWriter@@@Z 004a3f60 f   IonStorm.obj
 0001:000a2ff0       ?Load@IonStorm@@UAE_NAAVFileReader@@@Z 004a3ff0 f   IonStorm.obj
 0001:000a3090       ??_EIonStorm@@UAEPAXI@Z    004a4090 f i IonStorm.obj
 0001:000a3090       ??_GIonStorm@@UAEPAXI@Z    004a4090 f i IonStorm.obj
 0001:000a30c0       ?size@?$vector@PAVIonStorm@@V?$allocator@PAVIonStorm@@@std@@@std@@QBEIXZ 004a40c0 f i IonStorm.obj
 0001:000a30e0       ?_Destroy@?$vector@PAVIonStorm@@V?$allocator@PAVIonStorm@@@std@@@std@@IAEXPAPAVIonStorm@@0@Z 004a40e0 f i IonStorm.obj
 0001:000a30f0       ?_Ucopy@?$vector@PAVIonStorm@@V?$allocator@PAVIonStorm@@@std@@@std@@IAEPAPAVIonStorm@@PBQAV3@0PAPAV3@@Z 004a40f0 f i IonStorm.obj
 0001:000a3120       ?_Ufill@?$vector@PAVIonStorm@@V?$allocator@PAVIonStorm@@@std@@@std@@IAEXPAPAVIonStorm@@IABQAV3@@Z 004a4120 f i IonStorm.obj
 0001:000a3150       ?_Construct@std@@YAXPAPAVIonStorm@@ABQAV2@@Z 004a4150 f i IonStorm.obj
 0001:000a3170       ??0LatinumNebula@@QAE@PBVLatinumNebulaClass@@@Z 004a4170 f   LatinumNebula.obj
 0001:000a31b0       ?InitializeGeometry@LatinumNebula@@UAEXABVMatrix34@@@Z 004a41b0 f   LatinumNebula.obj
 0001:000a31c0       ?Simulate@LatinumNebula@@UAEXM@Z 004a41c0 f   LatinumNebula.obj
 0001:000a3250       ??1LatinumNebula@@UAE@XZ   004a4250 f   LatinumNebula.obj
 0001:000a3260       ?Save@LatinumNebula@@UAE_NAAVFileWriter@@@Z 004a4260 f   LatinumNebula.obj
 0001:000a3280       ?Load@LatinumNebula@@UAE_NAAVFileReader@@@Z 004a4280 f   LatinumNebula.obj
 0001:000a32c0       ??_GLatinumNebula@@UAEPAXI@Z 004a42c0 f i LatinumNebula.obj
 0001:000a32c0       ??_ELatinumNebula@@UAEPAXI@Z 004a42c0 f i LatinumNebula.obj
 0001:000a32f0       ??0Nebula@@QAE@PBVNebulaClass@@@Z 004a42f0 f   Nebula.obj
 0001:000a3430       ?InitializeGeometry@Nebula@@MAEXABVMatrix34@@@Z 004a4430 f   Nebula.obj
 0001:000a36c0       ??1Nebula@@UAE@XZ          004a46c0 f   Nebula.obj
 0001:000a3870       ?findClosestNebula@Nebula@@SAPBV1@ABVVector3@@AAMPBVNebulaClass@@@Z 004a4870 f   Nebula.obj
 0001:000a3940       ?findClosestMetaphasicNebula@Nebula@@SAPBV1@ABVVector3@@AAM@Z 004a4940 f   Nebula.obj
 0001:000a3a00       ?Render@Nebula@@UAEXPAVST3D_Camera@@@Z 004a4a00 f   Nebula.obj
 0001:000a3a50       ?PreSimulate@Nebula@@UAEXM@Z 004a4a50 f   Nebula.obj
 0001:000a3a60       ?Simulate@Nebula@@UAEXM@Z  004a4a60 f   Nebula.obj
 0001:000a3ad0       ?Load@Nebula@@UAE_NAAVFileReader@@@Z 004a4ad0 f   Nebula.obj
 0001:000a3b30       ?Save@Nebula@@UAE_NAAVFileWriter@@@Z 004a4b30 f   Nebula.obj
 0001:000a3c80       ?PostLoad@Nebula@@UAE_NXZ  004a4c80 f   Nebula.obj
 0001:000a3d00       ?sFillInNebulaField@Nebula@@SAXPAVAiPath@@H@Z 004a4d00 f   Nebula.obj
 0001:000a3f10       ?Compute_Stretching_Coefficients@Nebula@@IAEXXZ 004a4f10 f   Nebula.obj
 0001:000a3f60       ?Stretch_Nebula@Nebula@@IAEXM@Z 004a4f60 f   Nebula.obj
 0001:000a4160       ?Simulate_Nebula_Lights@Nebula@@IAEXM@Z 004a5160 f   Nebula.obj
 0001:000a4270       ?UpdatePosition@Nebula@@UAEXXZ 004a5270 f   Nebula.obj
 0001:000a4290       ?s_NebulaDistCompare@Nebula@@KAHPBX0@Z 004a5290 f   Nebula.obj
 0001:000a42c0       ?sCullOccludedNebula@Nebula@@SAXPAVST3D_Camera@@@Z 004a52c0 f   Nebula.obj
 0001:000a4670       ?IgnoreTooltipInterface@Nebula@@UBE_NXZ 004a5670 f i Nebula.obj
 0001:000a4680       ?ComputeFadeOut@NebulaInstance@@UBE_NAAM@Z 004a5680 f i Nebula.obj
 0001:000a46c0       ??_GNebulaInstance@@UAEPAXI@Z 004a56c0 f i Nebula.obj
 0001:000a46c0       ??_ENebulaInstance@@UAEPAXI@Z 004a56c0 f i Nebula.obj
 0001:000a46f0       ??1NebulaInstance@@UAE@XZ  004a56f0 f i Nebula.obj
 0001:000a4700       ??_GNebula@@UAEPAXI@Z      004a5700 f i Nebula.obj
 0001:000a4700       ??_ENebula@@UAEPAXI@Z      004a5700 f i Nebula.obj
 0001:000a4730       ?_Destroy@?$vector@PAVNebula@@V?$allocator@PAVNebula@@@std@@@std@@IAEXPAPAVNebula@@0@Z 004a5730 f i Nebula.obj
 0001:000a4740       ??0Scrap@@QAE@PBVScrapClass@@@Z 004a5740 f   Scrap.obj
 0001:000a4820       ?InitializeGeometry@Scrap@@UAEXABVMatrix34@@@Z 004a5820 f   Scrap.obj
 0001:000a48e0       ?Render@Scrap@@UAEXPAVST3D_Camera@@@Z 004a58e0 f   Scrap.obj
 0001:000a49d0       ?SetGlowLight@Scrap@@QAEXXZ 004a59d0 f   Scrap.obj
 0001:000a4ac0       ?Simulate@Scrap@@UAEXM@Z   004a5ac0 f   Scrap.obj
 0001:000a4b70       ??1Scrap@@UAE@XZ           004a5b70 f   Scrap.obj
 0001:000a4b80       ?Save@Scrap@@UAE_NAAVFileWriter@@@Z 004a5b80 f   Scrap.obj
 0001:000a4ba0       ?Load@Scrap@@UAE_NAAVFileReader@@@Z 004a5ba0 f   Scrap.obj
 0001:000a4be0       ??_GScrap@@UAEPAXI@Z       004a5be0 f i Scrap.obj
 0001:000a4be0       ??_EScrap@@UAEPAXI@Z       004a5be0 f i Scrap.obj
 0001:000a4c10       ??0TerrainObject@@QAE@PBVTerrainObjectClass@@@Z 004a5c10 f   TerrainObject.obj
 0001:000a4c40       ??1TerrainObject@@UAE@XZ   004a5c40 f   TerrainObject.obj
 0001:000a4c50       ?Load@TerrainObject@@UAE_NAAVFileReader@@@Z 004a5c50 f   TerrainObject.obj
 0001:000a4c80       ?Explode@TerrainObject@@UAEXXZ 004a5c80 f   TerrainObject.obj
 0001:000a4ca0       ?Simulate@TerrainObject@@UAEXM@Z 004a5ca0 f   TerrainObject.obj
 0001:000a4cd0       ?PostSimulate@TerrainObject@@UAEXM@Z 004a5cd0 f   TerrainObject.obj
 0001:000a4ce0       ?UpdatePosition@TerrainObject@@UAEXXZ 004a5ce0 f   TerrainObject.obj
 0001:000a4d80       ?CalculateBoundingBox@TerrainObject@@UAEXXZ 004a5d80 f   TerrainObject.obj
 0001:000a4d90       ?SetOrigin@TerrainObject@@UAEXABVVector3@@@Z 004a5d90 f   TerrainObject.obj
 0001:000a4dd0       ??_ETerrainObject@@UAEPAXI@Z 004a5dd0 f i TerrainObject.obj
 0001:000a4dd0       ??_GTerrainObject@@UAEPAXI@Z 004a5dd0 f i TerrainObject.obj
 0001:000a4e00       ??0UtritiumBall@@QAE@PBVUtritiumBallClass@@@Z 004a5e00 f   UtritiumBall.obj
 0001:000a4e50       ?InitializeGeometry@UtritiumBall@@UAEXABVMatrix34@@@Z 004a5e50 f   UtritiumBall.obj
 0001:000a4e80       ??1UtritiumBall@@UAE@XZ    004a5e80 f   UtritiumBall.obj
 0001:000a4e90       ?Simulate@UtritiumBall@@UAEXM@Z 004a5e90 f   UtritiumBall.obj
 0001:000a4f40       ?SetUniformScaleFactor@UtritiumBall@@QAEXM@Z 004a5f40 f   UtritiumBall.obj
 0001:000a4f80       ?AttackTargets@UtritiumBall@@IAEXXZ 004a5f80 f   UtritiumBall.obj
 0001:000a5000       ?Save@UtritiumBall@@UAE_NAAVFileWriter@@@Z 004a6000 f   UtritiumBall.obj
 0001:000a5070       ?Load@UtritiumBall@@UAE_NAAVFileReader@@@Z 004a6070 f   UtritiumBall.obj
 0001:000a50d0       ?GetOwnerHandle@UtritiumBall@@QBEHXZ 004a60d0 f   UtritiumBall.obj
 0001:000a5100       ??_EUtritiumBall@@UAEPAXI@Z 004a6100 f i UtritiumBall.obj
 0001:000a5100       ??_GUtritiumBall@@UAEPAXI@Z 004a6100 f i UtritiumBall.obj
 0001:000a51e0       ??0Wormhole@@QAE@PBVWormholeClass@@@Z 004a61e0 f   WormHole.obj
 0001:000a5330       ?InitializeGeometry@Wormhole@@UAEXABVMatrix34@@@Z 004a6330 f   WormHole.obj
	0001:000a5560       ?mSetLighting@Wormhole@@AAEXXZ 004a6560 f   WormHole.obj
 0001:000a5570       ?Load@Wormhole@@UAE_NAAVFileReader@@@Z 004a6570 f   WormHole.obj
 0001:000a57a0       ?PostLoad@Wormhole@@UAE_NXZ 004a67a0 f   WormHole.obj
 0001:000a5830       ?Save@Wormhole@@UAE_NAAVFileWriter@@@Z 004a6830 f   WormHole.obj
 0001:000a5a20       ?GetEntryLocation@Wormhole@@QAE?AVVector3@@PAVCraft@@@Z 004a6a20 f   WormHole.obj
 0001:000a5a40       ?EnterQueue@Wormhole@@QAEXPAVCraft@@@Z 004a6a40 f   WormHole.obj
 0001:000a5a60       ?SetWormholePartner@Wormhole@@QAEXPAV1@@Z 004a6a60 f   WormHole.obj
 0001:000a5ae0       ??1Wormhole@@UAE@XZ        004a6ae0 f   WormHole.obj
 0001:000a5d10       ?GetClosestWormhole@Wormhole@@SAPAV1@ABVVector3@@AAMM@Z 004a6d10 f   WormHole.obj
	0001:000a5d90       ?StuffCraft@Wormhole@@QAEXPAVCraft@@@Z 004a6d90 f   WormHole.obj
 0001:000a5f20       ?Simulate@Wormhole@@UAEXM@Z 004a6f20 f   WormHole.obj
 0001:000a6160       ?TransportCraft@Wormhole@@QAEXPAVCraft@@@Z 004a7160 f   WormHole.obj
 0001:000a6210       ?EffectAction@Wormhole@@UAEXPAVCraft@@M@Z 004a7210 f   WormHole.obj
 0001:000a6220       ?mOpen@Wormhole@@IAEXXZ    004a7220 f   WormHole.obj
 0001:000a62a0       ?mSimulateClosedWormhole@Wormhole@@IAEXM@Z 004a72a0 f   WormHole.obj
 0001:000a63c0       ?mClose@Wormhole@@IAEXXZ   004a73c0 f   WormHole.obj
 0001:000a6440       ?mSimulateOpenWormhole@Wormhole@@IAEXM@Z 004a7440 f   WormHole.obj
 0001:000a65f0       ?mUpdateAnimation@Wormhole@@IAEXM@Z 004a75f0 f   WormHole.obj
 0001:000a6750       ?CanCraftGoThrough@Wormhole@@QBE_NPAVCraft@@_N@Z 004a7750 f   WormHole.obj
	0001:000a67f0       ?SetShipyard@Wormhole@@QAEXPBVShipyard@@@Z 004a77f0 f   WormHole.obj
 0001:000a6830       ?GetShipyard@Wormhole@@QBEPAVShipyard@@XZ 004a7830 f   WormHole.obj
	0001:000a6860       ?SetDisplayName@Wormhole@@QAEXPBD@Z 004a7860 f   WormHole.obj
 0001:000a68c0       ?IgnoreInterface@Wormhole@@UBE_NXZ 004a78c0 f i WormHole.obj
 0001:000a68d0       ??_GWormhole@@UAEPAXI@Z    004a78d0 f i WormHole.obj
 0001:000a68d0       ??_EWormhole@@UAEPAXI@Z    004a78d0 f i WormHole.obj
 0001:000a6900       ??0SplineQueueManager@@QAE@PAVGameObject@@ABVVector3@@@Z 004a7900 f i WormHole.obj
 0001:000a6960       ?GetName@QueueManager@@UAEPBDXZ 004a7960 f i WormHole.obj
 0001:000a6970       ?mNotifyDockingManager@SplineQueueManager@@MBEXPAVCraft@@@Z 004a7970 f i WormHole.obj
 0001:000a6980       ??_GSplineQueueManager@@UAEPAXI@Z 004a7980 f i WormHole.obj
 0001:000a6980       ??_ESplineQueueManager@@UAEPAXI@Z 004a7980 f i WormHole.obj
 0001:000a69b0       ?GetName@WormholeQueueManager@@UAEPBDXZ 004a79b0 f i WormHole.obj
 0001:000a69c0       ??0WormholeQueueManager@@QAE@PAVGameObject@@ABVVector3@@@Z 004a79c0 f i WormHole.obj
 0001:000a6a20       ??_GWormholeQueueManager@@UAEPAXI@Z 004a7a20 f i WormHole.obj
 0001:000a6a20       ??_EWormholeQueueManager@@UAEPAXI@Z 004a7a20 f i WormHole.obj
 0001:000a6a50       ?GetName@WormholeExitQueueManager@@UAEPBDXZ 004a7a50 f i WormHole.obj
 0001:000a6a60       ??_GWormholeExitQueueManager@@UAEPAXI@Z 004a7a60 f i WormHole.obj
 0001:000a6a60       ??_EWormholeExitQueueManager@@UAEPAXI@Z 004a7a60 f i WormHole.obj
 0001:000a6a90       ??1?$DynArray@H@@QAE@XZ    004a7a90 f i WormHole.obj
 0001:000a6ae0       ?SetCapacity@?$DynArrayGrowthRate@H$20AEC@@@QAEXH@Z 004a7ae0 f i WormHole.obj
 0001:000a6bb0       ??0CargoShipClass@@QAE@XZ  004a7bb0 f   CargoShipClass.obj
 0001:000a6c20       ??0CargoShipClass@@QAE@PAV0@ABVParameterDB@@@Z 004a7c20 f   CargoShipClass.obj
 0001:000a6c90       ?BuildClass@CargoShipClass@@UAEPAVGameObjectClass@@ABVParameterDB@@@Z 004a7c90 f   CargoShipClass.obj
 0001:000a6d10       ?Build@CargoShipClass@@UBEPAVGameObject@@XZ 004a7d10 f   CargoShipClass.obj
 0001:000a6d90       ??1CargoShipClass@@UAE@XZ  004a7d90 f i CargoShipClass.obj
 0001:000a6da0       ?GetResourceTransferData@CraftClass@@UBEPBVResourceTransferData@@XZ 004a7da0 f i CargoShipClass.obj
 0001:000a6db0       ?IsCraftClass@CraftClass@@UBE_NXZ 004a7db0 f i CargoShipClass.obj
 0001:000a6dc0       ??_GCargoShipClass@@UAEPAXI@Z 004a7dc0 f i CargoShipClass.obj
 0001:000a6dc0       ??_ECargoShipClass@@UAEPAXI@Z 004a7dc0 f i CargoShipClass.obj
 0001:000a6e20       ??0ColonyClass@@QAE@XZ     004a7e20 f   ColonyClass.obj
 0001:000a6e90       ??0ColonyClass@@QAE@PAV0@ABVParameterDB@@@Z 004a7e90 f   ColonyClass.obj
 0001:000a6f00       ??1ColonyClass@@UAE@XZ     004a7f00 f   ColonyClass.obj
 0001:000a6f10       ?BuildClass@ColonyClass@@UAEPAVGameObjectClass@@ABVParameterDB@@@Z 004a7f10 f   ColonyClass.obj
 0001:000a6f90       ?Build@ColonyClass@@UBEPAVGameObject@@XZ 004a7f90 f   ColonyClass.obj
 0001:000a7010       ??_GColonyClass@@UAEPAXI@Z 004a8010 f i ColonyClass.obj
 0001:000a7010       ??_EColonyClass@@UAEPAXI@Z 004a8010 f i ColonyClass.obj
 0001:000a7070       ??0ConstructionRigClass@@QAE@XZ 004a8070 f   ConstructionRigClass.obj
 0001:000a7130       ??0ConstructionRigClass@@QAE@PAV0@ABVParameterDB@@@Z 004a8130 f   ConstructionRigClass.obj
 0001:000a72c0       ??1ConstructionRigClass@@UAE@XZ 004a82c0 f   ConstructionRigClass.obj
 0001:000a73c0       ?BuildClass@ConstructionRigClass@@UAEPAVGameObjectClass@@ABVParameterDB@@@Z 004a83c0 f   ConstructionRigClass.obj
 0001:000a7430       ?Build@ConstructionRigClass@@UBEPAVGameObject@@XZ 004a8430 f   ConstructionRigClass.obj
 0001:000a74b0       ??_GConstructionRigClass@@UAEPAXI@Z 004a84b0 f i ConstructionRigClass.obj
 0001:000a74b0       ??_EConstructionRigClass@@UAEPAXI@Z 004a84b0 f i ConstructionRigClass.obj
 0001:000a74e0       ??1?$vector@PADV?$allocator@PAD@std@@@std@@QAE@XZ 004a84e0 f i ConstructionRigClass.obj
 0001:000a7540       ??0EvolverClass@@QAE@XZ    004a8540 f   EvolverClass.obj
 0001:000a75a0       ??0EvolverClass@@QAE@PAV0@ABVParameterDB@@@Z 004a85a0 f   EvolverClass.obj
 0001:000a75d0       ??1EvolverClass@@UAE@XZ    004a85d0 f   EvolverClass.obj
 0001:000a75e0       ?BuildClass@EvolverClass@@UAEPAVGameObjectClass@@ABVParameterDB@@@Z 004a85e0 f   EvolverClass.obj
 0001:000a7640       ?Build@EvolverClass@@UBEPAVGameObject@@XZ 004a8640 f   EvolverClass.obj
 0001:000a76c0       ??_EEvolverClass@@UAEPAXI@Z 004a86c0 f i EvolverClass.obj
 0001:000a76c0       ??_GEvolverClass@@UAEPAXI@Z 004a86c0 f i EvolverClass.obj
 0001:000a7720       ??0FreighterClass@@QAE@XZ  004a8720 f   FreighterClass.obj
 0001:000a77c0       ??0FreighterClass@@QAE@PAV0@ABVParameterDB@@@Z 004a87c0 f   FreighterClass.obj
 0001:000a7a70       ??1FreighterClass@@UAE@XZ  004a8a70 f   FreighterClass.obj
 0001:000a7aa0       ?BuildClass@FreighterClass@@UAEPAVGameObjectClass@@ABVParameterDB@@@Z 004a8aa0 f   FreighterClass.obj
 0001:000a7b10       ?Build@FreighterClass@@UBEPAVGameObject@@XZ 004a8b10 f   FreighterClass.obj
 0001:000a7b90       ??_EFreighterClass@@UAEPAXI@Z 004a8b90 f i FreighterClass.obj
 0001:000a7b90       ??_GFreighterClass@@UAEPAXI@Z 004a8b90 f i FreighterClass.obj
 0001:000a7bf0       ??0MiningStationClass@@QAE@XZ 004a8bf0 f   MiningStationClass.obj
 0001:000a7ca0       ??0MiningStationClass@@QAE@PAV0@ABVParameterDB@@@Z 004a8ca0 f   MiningStationClass.obj
 0001:000a7d90       ??1MiningStationClass@@UAE@XZ 004a8d90 f   MiningStationClass.obj
 0001:000a7dc0       ?DisableSpecialNodes@MiningStationClass@@UBEXXZ 004a8dc0 f   MiningStationClass.obj
 0001:000a7df0       ?BuildClass@MiningStationClass@@UAEPAVGameObjectClass@@ABVParameterDB@@@Z 004a8df0 f   MiningStationClass.obj
 0001:000a7e60       ?Build@MiningStationClass@@UBEPAVGameObject@@XZ 004a8e60 f   MiningStationClass.obj
 0001:000a7ee0       ?GetResourceTransferData@MiningStationClass@@UBEPBVResourceTransferData@@XZ 004a8ee0 f i MiningStationClass.obj
 0001:000a7ef0       ??_GMiningStationClass@@UAEPAXI@Z 004a8ef0 f i MiningStationClass.obj
 0001:000a7ef0       ??_EMiningStationClass@@UAEPAXI@Z 004a8ef0 f i MiningStationClass.obj
 0001:000a7f20       ?mInit@HoverBaseParameterSet@@IAEXXZ 004a8f20 f   PhysicsParameterSet.obj
 0001:000a7f30       ?Init@HoverParameterSet@@QAEXXZ 004a8f30 f   PhysicsParameterSet.obj
 0001:000a7fa0       ?Init@BorgParameterSet@@QAEXXZ 004a8fa0 f   PhysicsParameterSet.obj
 0001:000a7fd0       ?mLoad@HoverBaseParameterSet@@IAEXPAVParameterDB@@0M@Z 004a8fd0 f   PhysicsParameterSet.obj
 0001:000a8040       ?Load@HoverParameterSet@@UAEXPAVParameterDB@@0M@Z 004a9040 f   PhysicsParameterSet.obj
 0001:000a82a0       ?Load@BorgParameterSet@@UAEXPAVParameterDB@@0M@Z 004a92a0 f   PhysicsParameterSet.obj
 0001:000a8370       ?Init@SmoothParameterSet@@QAEXXZ 004a9370 f   PhysicsParameterSet.obj
 0001:000a8380       ?Load@SmoothParameterSet@@UAEXPAVParameterDB@@0M@Z 004a9380 f   PhysicsParameterSet.obj
 0001:000a8550       ??0PlanetClass@@QAE@XZ     004a9550 f   PlanetClass.obj
 0001:000a8640       ??0PlanetClass@@QAE@PAV0@ABVParameterDB@@@Z 004a9640 f   PlanetClass.obj
 0001:000a87f0       ??1PlanetClass@@UAE@XZ     004a97f0 f   PlanetClass.obj
 0001:000a8800       ?BuildClass@PlanetClass@@UAEPAVGameObjectClass@@ABVParameterDB@@@Z 004a9800 f   PlanetClass.obj
 0001:000a8870       ?Build@PlanetClass@@UBEPAVGameObject@@XZ 004a9870 f   PlanetClass.obj
 0001:000a88d0       ?MapSize@PlanetClass@@UBEHXZ 004a98d0 f   PlanetClass.obj
 0001:000a8920       ?GetWarpSuppressionRadius@PlanetClass@@UBE_NPAM@Z 004a9920 f   PlanetClass.obj
 0001:000a8940       ?CreateSpirit@PlanetClass@@UBEPAVSpirit@@XZ 004a9940 f   PlanetClass.obj
 0001:000a8a10       ??_EPlanetClass@@UAEPAXI@Z 004a9a10 f i PlanetClass.obj
 0001:000a8a10       ??_GPlanetClass@@UAEPAXI@Z 004a9a10 f i PlanetClass.obj
 0001:000a8a40       ??_EGameObjectSpirit@@UAEPAXI@Z 004a9a40 f i PlanetClass.obj
 0001:000a8a40       ??_GGameObjectSpirit@@UAEPAXI@Z 004a9a40 f i PlanetClass.obj
 0001:000a8aa0       ??0PlanetMiningBaseClass@@QAE@XZ 004a9aa0 f   PlanetMiningBaseClass.obj
 0001:000a8b10       ??0PlanetMiningBaseClass@@QAE@PAV0@ABVParameterDB@@@Z 004a9b10 f   PlanetMiningBaseClass.obj
 0001:000a8ba0       ?BuildClass@PlanetMiningBaseClass@@UAEPAVGameObjectClass@@ABVParameterDB@@@Z 004a9ba0 f   PlanetMiningBaseClass.obj
 0001:000a8c40       ?Build@PlanetMiningBaseClass@@UBEPAVGameObject@@XZ 004a9c40 f   PlanetMiningBaseClass.obj
 0001:000a8ca0       ?mGetBuildLocation@PlanetMiningBaseClass@@IBE?AVVector3@@PBVPlanet@@ABV2@@Z 004a9ca0 f   PlanetMiningBaseClass.obj
 0001:000a8cf0       ?CanPlaceHere@PlanetMiningBaseClass@@UBE_NABVVector3@@PBVGameObject@@_N@Z 004a9cf0 f   PlanetMiningBaseClass.obj
 0001:000a8e10       ?GetRealBuildPosition@PlanetMiningBaseClass@@UBEXABVVector3@@PAV2@PAVGameObject@@@Z 004a9e10 f   PlanetMiningBaseClass.obj
 0001:000a8f50       ?GetBuildCookie@PlanetMiningBaseClass@@UBEPAVBuildCookie@@ABVVector3@@@Z 004a9f50 f   PlanetMiningBaseClass.obj
 0001:000a90a0       ?CanStillPlaceHere@PlanetMiningBaseClass@@UBE_NPBVBuildCookie@@@Z 004aa0a0 f   PlanetMiningBaseClass.obj
 0001:000a90e0       ?mClickedOnAPlanet@PlanetMiningBaseClass@@IBEPAVPlanet@@MM@Z 004aa0e0 f   PlanetMiningBaseClass.obj
 0001:000a9280       ??1PlanetMiningBaseClass@@UAE@XZ 004aa280 f i PlanetMiningBaseClass.obj
 0001:000a9290       ??_GPlanetMiningBaseClass@@UAEPAXI@Z 004aa290 f i PlanetMiningBaseClass.obj
 0001:000a9290       ??_EPlanetMiningBaseClass@@UAEPAXI@Z 004aa290 f i PlanetMiningBaseClass.obj
 0001:000a92c0       ?Dist2DSq@@YAMABVVector3@@0@Z 004aa2c0 f i PlanetMiningBaseClass.obj
 0001:000a9320       ??0ProducerClass@@QAE@XZ   004aa320 f   ProducerClass.obj
 0001:000a93a0       ??0ProducerClass@@QAE@PAV0@ABVParameterDB@@@Z 004aa3a0 f   ProducerClass.obj
 0001:000a9490       ??1ProducerClass@@UAE@XZ   004aa490 f   ProducerClass.obj
 0001:000a94c0       ?BuildClass@ProducerClass@@UAEPAVGameObjectClass@@ABVParameterDB@@@Z 004aa4c0 f   ProducerClass.obj
 0001:000a9530       ?Build@ProducerClass@@UBEPAVGameObject@@XZ 004aa530 f   ProducerClass.obj
 0001:000a9590       ?Can_Build_Item_Of_Class@ProducerClass@@UBE_NPBVGameObjectClass@@@Z 004aa590 f   ProducerClass.obj
 0001:000a95c0       ?CanBuildItemOfPrjId@ProducerClass@@UBE_NABVcPrjID@@@Z 004aa5c0 f   ProducerClass.obj
 0001:000a9620       ??_GProducerClass@@UAEPAXI@Z 004aa620 f i ProducerClass.obj
 0001:000a9620       ??_EProducerClass@@UAEPAXI@Z 004aa620 f i ProducerClass.obj
 0001:000a9680       ??0RepairShipClass@@QAE@XZ 004aa680 f   RepairShipClass.obj
 0001:000a96f0       ??0RepairShipClass@@QAE@PAV0@ABVParameterDB@@@Z 004aa6f0 f   RepairShipClass.obj
 0001:000a9760       ??1RepairShipClass@@UAE@XZ 004aa760 f   RepairShipClass.obj
 0001:000a9770       ?BuildClass@RepairShipClass@@UAEPAVGameObjectClass@@ABVParameterDB@@@Z 004aa770 f   RepairShipClass.obj
 0001:000a97f0       ?Build@RepairShipClass@@UBEPAVGameObject@@XZ 004aa7f0 f   RepairShipClass.obj
 0001:000a9870       ??_ERepairShipClass@@UAEPAXI@Z 004aa870 f i RepairShipClass.obj
 0001:000a9870       ??_GRepairShipClass@@UAEPAXI@Z 004aa870 f i RepairShipClass.obj
 0001:000a98d0       ??0ResearchPodClass@@QAE@XZ 004aa8d0 f   ResearchPodClass.obj
 0001:000a9940       ??0ResearchPodClass@@QAE@PAV0@ABVParameterDB@@@Z 004aa940 f   ResearchPodClass.obj
 0001:000a9a40       ??1ResearchPodClass@@UAE@XZ 004aaa40 f   ResearchPodClass.obj
 0001:000a9a50       ?BuildClass@ResearchPodClass@@UAEPAVGameObjectClass@@ABVParameterDB@@@Z 004aaa50 f   ResearchPodClass.obj
 0001:000a9ac0       ?Build@ResearchPodClass@@UBEPAVGameObject@@XZ 004aaac0 f   ResearchPodClass.obj
 0001:000a9b40       ??_EResearchPodClass@@UAEPAXI@Z 004aab40 f i ResearchPodClass.obj
 0001:000a9b40       ??_GResearchPodClass@@UAEPAXI@Z 004aab40 f i ResearchPodClass.obj
 0001:000a9ba0       ??0ResearchStationClass@@QAE@XZ 004aaba0 f   ResearchStationClass.obj
 0001:000a9c20       ??0ResearchStationClass@@QAE@PAV0@ABVParameterDB@@@Z 004aac20 f   ResearchStationClass.obj
 0001:000a9d30       ??1ResearchStationClass@@UAE@XZ 004aad30 f   ResearchStationClass.obj
 0001:000a9de0       ?BuildClass@ResearchStationClass@@UAEPAVGameObjectClass@@ABVParameterDB@@@Z 004aade0 f   ResearchStationClass.obj
 0001:000a9e50       ?Build@ResearchStationClass@@UBEPAVGameObject@@XZ 004aae50 f   ResearchStationClass.obj
 0001:000a9eb0       ?Can_Build_Item_Of_Class@ResearchStationClass@@UBE_NPBVGameObjectClass@@@Z 004aaeb0 f   ResearchStationClass.obj
 0001:000a9ee0       ?CanBuildItemOfPrjId@ResearchStationClass@@UBE_NABVcPrjID@@@Z 004aaee0 f   ResearchStationClass.obj
 0001:000a9f50       ??_GResearchStationClass@@UAEPAXI@Z 004aaf50 f i ResearchStationClass.obj
 0001:000a9f50       ??_EResearchStationClass@@UAEPAXI@Z 004aaf50 f i ResearchStationClass.obj
 0001:000a9fb0       ??0ScavengerClass@@QAE@XZ  004aafb0 f   ScavengerClass.obj
 0001:000aa010       ??0ScavengerClass@@QAE@PAV0@ABVParameterDB@@@Z 004ab010 f   ScavengerClass.obj
 0001:000aa040       ??1ScavengerClass@@UAE@XZ  004ab040 f   ScavengerClass.obj
 0001:000aa050       ?BuildClass@ScavengerClass@@UAEPAVGameObjectClass@@ABVParameterDB@@@Z 004ab050 f   ScavengerClass.obj
 0001:000aa0b0       ?Build@ScavengerClass@@UBEPAVGameObject@@XZ 004ab0b0 f   ScavengerClass.obj
 0001:000aa130       ??_EScavengerClass@@UAEPAXI@Z 004ab130 f i ScavengerClass.obj
 0001:000aa130       ??_GScavengerClass@@UAEPAXI@Z 004ab130 f i ScavengerClass.obj
 0001:000aa190       ??0ShipyardClass@@QAE@XZ   004ab190 f   ShipyardClass.obj
 0001:000aa270       ??0ShipyardClass@@QAE@PAV0@ABVParameterDB@@@Z 004ab270 f   ShipyardClass.obj
 0001:000aa410       ?DisableSpecialNodes@ShipyardClass@@UBEXXZ 004ab410 f   ShipyardClass.obj
 0001:000aa440       ??1ShipyardClass@@UAE@XZ   004ab440 f   ShipyardClass.obj
 0001:000aa450       ?BuildClass@ShipyardClass@@UAEPAVGameObjectClass@@ABVParameterDB@@@Z 004ab450 f   ShipyardClass.obj
 0001:000aa4c0       ?Build@ShipyardClass@@UBEPAVGameObject@@XZ 004ab4c0 f   ShipyardClass.obj
 0001:000aa540       ??_GShipyardClass@@UAEPAXI@Z 004ab540 f i ShipyardClass.obj
 0001:000aa540       ??_EShipyardClass@@UAEPAXI@Z 004ab540 f i ShipyardClass.obj
 0001:000aa5a0       ??0StarbaseClass@@QAE@XZ   004ab5a0 f   StarbaseClass.obj
 0001:000aa620       ??0StarbaseClass@@QAE@PAV0@ABVParameterDB@@@Z 004ab620 f   StarbaseClass.obj
 0001:000aa6d0       ??1StarbaseClass@@UAE@XZ   004ab6d0 f   StarbaseClass.obj
 0001:000aa710       ?BuildClass@StarbaseClass@@UAEPAVGameObjectClass@@ABVParameterDB@@@Z 004ab710 f   StarbaseClass.obj
 0001:000aa7d0       ?Build@StarbaseClass@@UBEPAVGameObject@@XZ 004ab7d0 f   StarbaseClass.obj
 0001:000aa850       ?GetResourceTransferData@StarbaseClass@@UBEPBVResourceTransferData@@XZ 004ab850 f i StarbaseClass.obj
 0001:000aa860       ??_GStarbaseClass@@UAEPAXI@Z 004ab860 f i StarbaseClass.obj
 0001:000aa860       ??_EStarbaseClass@@UAEPAXI@Z 004ab860 f i StarbaseClass.obj
 0001:000aa8c0       ??0TradingStationClass@@QAE@XZ 004ab8c0 f   TradingStationClass.obj
 0001:000aa950       ??0TradingStationClass@@QAE@PAV0@ABVParameterDB@@@Z 004ab950 f   TradingStationClass.obj
 0001:000aac70       ?GetRandomCargoDesc@TradingStationClass@@QBE?AVCargoDesc@@XZ 004abc70 f   TradingStationClass.obj
 0001:000aacd0       ?BuildClass@TradingStationClass@@UAEPAVGameObjectClass@@ABVParameterDB@@@Z 004abcd0 f   TradingStationClass.obj
 0001:000aad40       ?Build@TradingStationClass@@UBEPAVGameObject@@XZ 004abd40 f   TradingStationClass.obj
 0001:000aadc0       ??1TradingStationClass@@UAE@XZ 004abdc0 f i TradingStationClass.obj
 0001:000aae00       ??_ETradingStationClass@@UAEPAXI@Z 004abe00 f i TradingStationClass.obj
 0001:000aae00       ??_GTradingStationClass@@UAEPAXI@Z 004abe00 f i TradingStationClass.obj
 0001:000aae30       ??1?$vector@VCargoDesc@@V?$allocator@VCargoDesc@@@std@@@std@@QAE@XZ 004abe30 f i TradingStationClass.obj
 0001:000aae60       ?size@?$vector@VCargoDesc@@V?$allocator@VCargoDesc@@@std@@@std@@QBEIXZ 004abe60 f i TradingStationClass.obj
 0001:000aae90       ?_Destroy@?$vector@VCargoDesc@@V?$allocator@VCargoDesc@@@std@@@std@@IAEXPAVCargoDesc@@0@Z 004abe90 f i TradingStationClass.obj
 0001:000aaea0       ?_Ucopy@?$vector@VCargoDesc@@V?$allocator@VCargoDesc@@@std@@@std@@IAEPAVCargoDesc@@PBV3@0PAV3@@Z 004abea0 f i TradingStationClass.obj
 0001:000aaee0       ?_Ufill@?$vector@VCargoDesc@@V?$allocator@VCargoDesc@@@std@@@std@@IAEXPAVCargoDesc@@IABV3@@Z 004abee0 f i TradingStationClass.obj
 0001:000aaf20       ?_Construct@std@@YAXPAVCargoDesc@@ABV2@@Z 004abf20 f i TradingStationClass.obj
 0001:000aaf40       ??0cBorgControl@@QAE@PAVCraft@@@Z 004abf40 f   BorgControl.obj
 0001:000ab040       ?Reset@cBorgControl@@UAEXXZ 004ac040 f   BorgControl.obj
 0001:000ab080       ?ServoSpeed@cBorgControl@@UAEXM@Z 004ac080 f   BorgControl.obj
 0001:000ab0b0       ?ServoDirectionAndSpeed@cBorgControl@@UAEXABVVector3@@M@Z 004ac0b0 f   BorgControl.obj
 0001:000ab170       ?ServoClosePursue@cBorgControl@@UAE_NABVVector3@@00@Z 004ac170 f   BorgControl.obj
 0001:000ab270       ?ServoFarPursue@cBorgControl@@UAEXABVVector3@@00@Z 004ac270 f   BorgControl.obj
 0001:000ab450       ?MovingTowardsRepairQueue@cBorgControl@@UAEXABVVector3@@@Z 004ac450 f   BorgControl.obj
 0001:000ab480       ?BorgServoDirectionWithPitchOffset@cBorgControl@@QAEXABVVector3@@M@Z 004ac480 f   BorgControl.obj
 0001:000ab4c0       ?NewDestination@cBorgControl@@UAEXXZ 004ac4c0 f   BorgControl.obj
 0001:000ab4d0       ?GetFacingVector@cBorgControl@@UBE?AVVector3@@XZ 004ac4d0 f   BorgControl.obj
 0001:000ab580       ?UpdateDirection@cBorgControl@@UAEXXZ 004ac580 f   BorgControl.obj
 0001:000ab590       ?mSimulate@cBorgControl@@MAEXM@Z 004ac590 f   BorgControl.obj
 0001:000ac200       ?Load@cBorgControl@@UAE_NAAVFileReader@@@Z 004ad200 f   BorgControl.obj
 0001:000ac270       ?Save@cBorgControl@@UAE_NAAVFileWriter@@@Z 004ad270 f   BorgControl.obj
 0001:000ac2f0       ?SetCombatSpeed@cBorgControl@@UAEXM@Z 004ad2f0 f   BorgControl.obj
 0001:000ac310       ?mCopyFromPhysics@cBorgControl@@MAEXPAVPhysicsParameterSet@@@Z 004ad310 f   BorgControl.obj
 0001:000ac390       ?SetQueueTransform@cBorgControl@@UAEXABVVector3@@0@Z 004ad390 f   BorgControl.obj
 0001:000ac4a0       ?mWarpCheck@cBorgControl@@MAE_NMPAM0PA_N@Z 004ad4a0 f   BorgControl.obj
 0001:000ac920       ?SetImpulseSpeed@cCraftControl@@UAEXM@Z 004ad920 f i BorgControl.obj
 0001:000ac960       ?SetWarpSpeed@cCraftControl@@UAEXM@Z 004ad960 f i BorgControl.obj
 0001:000ac970       ?IsWarping@cHoverCraftControlBase@@UBE_NXZ 004ad970 f i BorgControl.obj
 0001:000ac980       ?ServoYaw@cBorgControl@@UAEXM@Z 004ad980 f i BorgControl.obj
 0001:000ac990       ?ServoPitch@cBorgControl@@UAEXM@Z 004ad990 f i BorgControl.obj
 0001:000ac9a0       ?ServoDirection@cBorgControl@@UAEXABVVector3@@@Z 004ad9a0 f i BorgControl.obj
 0001:000ac9b0       ?IsBorgControl@cBorgControl@@UBE_NXZ 004ad9b0 f i BorgControl.obj
 0001:000ac9c0       ??_EcBorgControl@@UAEPAXI@Z 004ad9c0 f i BorgControl.obj
 0001:000ac9c0       ??_GcBorgControl@@UAEPAXI@Z 004ad9c0 f i BorgControl.obj
 0001:000ac9f0       ??1cBorgControl@@UAE@XZ    004ad9f0 f i BorgControl.obj
	0001:000aca00       ?MultiplyOrientation@@YAXAAVMatrix34@@ABV1@1@Z 004ada00 f i BorgControl.obj
 0001:000acaf0       ?RenormalizeMatrix@@YAXAAVMatrix34@@ABV1@@Z 004adaf0 f i BorgControl.obj
 0001:000acc10       ?Clamp@@YAMMMM@Z           004adc10 f i BorgControl.obj
 0001:000acc40       ??0BuildPositionInterface@@QAE@PAVProducer@@@Z 004adc40 f   BuildPositionInterface.obj
 0001:000acc70       ??1BuildPositionInterface@@QAE@XZ 004adc70 f   BuildPositionInterface.obj
 0001:000acc90       ?SetRealBuildPositionAndCookie@BuildPositionInterface@@QAEXABVVector3@@PBVGameObjectClass@@@Z 004adc90 f   BuildPositionInterface.obj
 0001:000acce0       ?Load@BuildPositionInterface@@QAE_NAAVFileReader@@@Z 004adce0 f   BuildPositionInterface.obj
 0001:000acdc0       ?Save@BuildPositionInterface@@QAE_NAAVFileWriter@@@Z 004addc0 f   BuildPositionInterface.obj
 0001:000ace90       ??0CargoShip@@QAE@PBVCargoShipClass@@@Z 004ade90 f   CargoShip.obj
 0001:000acf00       ??1CargoShip@@UAE@XZ       004adf00 f   CargoShip.obj
 0001:000acf50       ?Clear@CargoShip@@QAEXXZ   004adf50 f   CargoShip.obj
 0001:000acf80       ?GetAction@CargoShip@@UAE?AVAiAction@@ABVModeInfo@@ABVVector3@@@Z 004adf80 f   CargoShip.obj
 0001:000acfd0       ?GetAction@CargoShip@@UAE?AVAiAction@@ABVModeInfo@@PBVGameObject@@@Z 004adfd0 f   CargoShip.obj
 0001:000ad1c0       ?LoadCargo@CargoShip@@UAEXPAVTradingStation@@M@Z 004ae1c0 f   CargoShip.obj
 0001:000ad440       ?UnloadCargo@CargoShip@@UAEXPAVTradingStation@@M@Z 004ae440 f   CargoShip.obj
 0001:000ad6a0       ?MakeCargo@CargoShip@@QAEXPBVTradingStationClass@@ABVVector3@@@Z 004ae6a0 f   CargoShip.obj
 0001:000ad7a0       ?HasCargo@CargoShip@@QBE_NXZ 004ae7a0 f   CargoShip.obj
 0001:000ad7b0       ?mGetCargoProfit@CargoShip@@IBEMPAVTradingStation@@@Z 004ae7b0 f   CargoShip.obj
 0001:000ad8e0       ?IsCargoResource@CargoShip@@QBE_NXZ 004ae8e0 f   CargoShip.obj
 0001:000ad900       ?GetResourceType@CargoShip@@QBE?AW4eResource@@XZ 004ae900 f   CargoShip.obj
 0001:000ad920       ?SetStartStation@CargoShip@@QAEXPBVTradingStation@@@Z 004ae920 f   CargoShip.obj
 0001:000ad960       ?SetGoalStation@CargoShip@@QAEXPAVTradingStation@@@Z 004ae960 f   CargoShip.obj
 0001:000ad9a0       ?GetStartStation@CargoShip@@QAEPAVTradingStation@@XZ 004ae9a0 f   CargoShip.obj
 0001:000ad9d0       ?GetGoalStation@CargoShip@@QAEPAVTradingStation@@XZ 004ae9d0 f   CargoShip.obj
 0001:000ada00       ?GetNonResourceNameKey@CargoShip@@QBEPBDXZ 004aea00 f   CargoShip.obj
 0001:000ada20       ?FillErUp@CargoShip@@QAEXW4eResource@@@Z 004aea20 f   CargoShip.obj
 0001:000adac0       ??0cGoods@CargoShip@@QAE@XZ 004aeac0 f   CargoShip.obj
 0001:000adaf0       ??0cGoods@CargoShip@@QAE@W4eResource@@H@Z 004aeaf0 f   CargoShip.obj
 0001:000adb90       ??0cGoods@CargoShip@@QAE@ABVCargoDesc@@ABVVector3@@@Z 004aeb90 f   CargoShip.obj
 0001:000adbf0       ??1cGoods@CargoShip@@QAE@XZ 004aebf0 f   CargoShip.obj
 0001:000adc00       ?EndRecycle@CargoShip@@UAEXPAVShipyard@@@Z 004aec00 f   CargoShip.obj
 0001:000adc40       ?Save@cGoods@CargoShip@@QBE_NAAVFileWriter@@@Z 004aec40 f   CargoShip.obj
 0001:000add10       ?Load@cGoods@CargoShip@@QAE_NAAVFileReader@@@Z 004aed10 f   CargoShip.obj
 0001:000addb0       ?Save@CargoShip@@UAE_NAAVFileWriter@@@Z 004aedb0 f   CargoShip.obj
 0001:000adf40       ?Load@CargoShip@@UAE_NAAVFileReader@@@Z 004aef40 f   CargoShip.obj
 0001:000ae100       ?GetCrewDamageThreshold@Craft@@UBEMXZ 004af100 f i CargoShip.obj
 0001:000ae110       ?IsNonCombat@CargoShip@@UBE_NXZ 004af110 f i CargoShip.obj
 0001:000ae120       ??_GCargoShip@@UAEPAXI@Z   004af120 f i CargoShip.obj
 0001:000ae120       ??_ECargoShip@@UAEPAXI@Z   004af120 f i CargoShip.obj
 0001:000ae150       ??_GcGoods@CargoShip@@QAEPAXI@Z 004af150 f i CargoShip.obj
 0001:000ae180       ??0Colony@@QAE@PBVColonyClass@@@Z 004af180 f   Colony.obj
 0001:000ae1c0       ?InitializeGeometry@Colony@@UAEXABVMatrix34@@@Z 004af1c0 f   Colony.obj
 0001:000ae1d0       ?Cleanup@Colony@@UAEXXZ    004af1d0 f   Colony.obj
 0001:000ae210       ??1Colony@@UAE@XZ          004af210 f   Colony.obj
 0001:000ae220       ?Fire_At_Regular@Colony@@UAEXPBVGameObject@@_N@Z 004af220 f   Colony.obj
 0001:000ae230       ?Increment_Shot_Timer_Regular@Colony@@UAEXM@Z 004af230 f   Colony.obj
 0001:000ae240       ?GetAction@Colony@@UAE?AVAiAction@@ABVModeInfo@@ABVVector3@@@Z 004af240 f   Colony.obj
 0001:000ae280       ?GetAction@Colony@@UAE?AVAiAction@@ABVModeInfo@@PBVGameObject@@@Z 004af280 f   Colony.obj
 0001:000ae310       ?GetPlanet@Colony@@QBEPAVPlanet@@XZ 004af310 f   Colony.obj
 0001:000ae340       ?SetPlanet@Colony@@QAEXPAVPlanet@@@Z 004af340 f   Colony.obj
 0001:000ae370       ?GetColonizeRange@Colony@@QBEMXZ 004af370 f   Colony.obj
 0001:000ae3b0       ?FireColonizerPod@Colony@@QAEXPBVGameObject@@@Z 004af3b0 f   Colony.obj
 0001:000ae3e0       ?FireCleansingWeapon@Colony@@QAEXPBVGameObject@@@Z 004af3e0 f   Colony.obj
 0001:000ae420       ?CanStartColonizing@Colony@@QBE_NPBVPlanet@@@Z 004af420 f   Colony.obj
 0001:000ae500       ?CancelColonization@Colony@@QAEXXZ 004af500 f   Colony.obj
 0001:000ae5a0       ?Load@Colony@@UAE_NAAVFileReader@@@Z 004af5a0 f   Colony.obj
 0001:000ae6b0       ?Save@Colony@@UAE_NAAVFileWriter@@@Z 004af6b0 f   Colony.obj
 0001:000ae770       ?IsNonCombat@Colony@@UBE_NXZ 004af770 f i Colony.obj
 0001:000ae780       ??_GColony@@UAEPAXI@Z      004af780 f i Colony.obj
 0001:000ae780       ??_EColony@@UAEPAXI@Z      004af780 f i Colony.obj
 0001:000ae850       ??0ConstructionRig@@QAE@PBVConstructionRigClass@@@Z 004af850 f   ConstructionRig.obj
 0001:000ae940       ?InitializeGeometry@ConstructionRig@@UAEXABVMatrix34@@@Z 004af940 f   ConstructionRig.obj
 0001:000ae950       ??1ConstructionRig@@UAE@XZ 004af950 f   ConstructionRig.obj
 0001:000ae9b0       ?Render@ConstructionRig@@UAEXPAVST3D_Camera@@@Z 004af9b0 f   ConstructionRig.obj
 0001:000aea30       ?GetAction@ConstructionRig@@UAE?AVAiAction@@ABVModeInfo@@ABVVector3@@@Z 004afa30 f   ConstructionRig.obj
 0001:000aeab0       ?Load@ConstructionRig@@UAE_NAAVFileReader@@@Z 004afab0 f   ConstructionRig.obj
 0001:000aeb40       ?Save@ConstructionRig@@UAE_NAAVFileWriter@@@Z 004afb40 f   ConstructionRig.obj
 0001:000aeba0       ?GetConstructionMatrix@ConstructionRig@@UAE?AVMatrix34@@XZ 004afba0 f   ConstructionRig.obj
 0001:000aebc0       ?StartBuild@ConstructionRig@@UAE_NXZ 004afbc0 f   ConstructionRig.obj
 0001:000aed00       ?ClearTeam@ConstructionRig@@UAEXXZ 004afd00 f   ConstructionRig.obj
 0001:000aed70       ?Simulate@ConstructionRig@@UAEXM@Z 004afd70 f   ConstructionRig.obj
 0001:000aee80       ?GetConstructionObject@ConstructionRig@@QBEPAVConstructionObject@@XZ 004afe80 f   ConstructionRig.obj
 0001:000aeea0       ?RemoveConstructionObject@ConstructionRig@@IAEXXZ 004afea0 f   ConstructionRig.obj
 0001:000aef00       ?CancelBuild@ConstructionRig@@UAE_NXZ 004aff00 f   ConstructionRig.obj
 0001:000aef90       ?FinishBuild@ConstructionRig@@UAEPAVGameObject@@XZ 004aff90 f   ConstructionRig.obj
 0001:000af0b0       ?WorkerBeeLocation@ConstructionRig@@QAEPAVST3D_Node@@H@Z 004b00b0 f   ConstructionRig.obj
 0001:000af140       ?WorkerBeeHasReturned@ConstructionRig@@QAEXXZ 004b0140 f   ConstructionRig.obj
 0001:000af1b0       ?Get_What_Im_Supposed_To_Build@ConstructionRig@@QAEPBVGameObjectClass@@XZ 004b01b0 f   ConstructionRig.obj
 0001:000af1c0       ?UpdateBuild@ConstructionRig@@MAEXM@Z 004b01c0 f   ConstructionRig.obj
 0001:000af200       ?CanBuild@Producer@@UAE_NXZ 004b0200 f i ConstructionRig.obj
 0001:000af210       ?IsBusy@Producer@@UAE_NXZ  004b0210 f i ConstructionRig.obj
 0001:000af230       ?IsNonCombat@ConstructionRig@@UBE_NXZ 004b0230 f i ConstructionRig.obj
 0001:000af240       ??_EConstructionRig@@UAEPAXI@Z 004b0240 f i ConstructionRig.obj
 0001:000af240       ??_GConstructionRig@@UAEPAXI@Z 004b0240 f i ConstructionRig.obj
 0001:000af270       ??0Evolver@@QAE@PBVEvolverClass@@@Z 004b0270 f   Evolver.obj
 0001:000af360       ??1Evolver@@UAE@XZ         004b0360 f   Evolver.obj
 0001:000af370       ?Load@Evolver@@UAE_NAAVFileReader@@@Z 004b0370 f   Evolver.obj
 0001:000af3b0       ?Save@Evolver@@UAE_NAAVFileWriter@@@Z 004b03b0 f   Evolver.obj
 0001:000af3f0       ?PostLoad@Evolver@@UAE_NXZ 004b03f0 f   Evolver.obj
 0001:000af460       ?GetAction@Evolver@@UAE?AVAiAction@@ABVModeInfo@@ABVVector3@@@Z 004b0460 f   Evolver.obj
 0001:000af4e0       ?GetClassDisplayName@Evolver@@UBEPBDXZ 004b04e0 f   Evolver.obj
 0001:000af4f0       ?mStartConstructionEffect@Evolver@@MAE_NXZ 004b04f0 f   Evolver.obj
 0001:000af770       ?mDoRemoveConstructionEffect@Evolver@@IAEXXZ 004b0770 f   Evolver.obj
 0001:000af810       ?mRemoveConstructionEffect@Evolver@@MAEXXZ 004b0810 f   Evolver.obj
 0001:000af8d0       ?mCancelConstructionEffect@Evolver@@MAEXXZ 004b08d0 f   Evolver.obj
 0001:000af970       ?mStopConstructionEffect@Evolver@@MAEXXZ 004b0970 f   Evolver.obj
 0001:000afa10       ?mUpdateConstructionEffect@Evolver@@MAEXM@Z 004b0a10 f   Evolver.obj
 0001:000afdf0       ?ShotDirectorRadius@Evolver@@UBEMXZ 004b0df0 f   Evolver.obj
 0001:000afe10       ?mSwapObjects@Evolver@@AAEXPAVGameObject@@@Z 004b0e10 f   Evolver.obj
 0001:000afeb0       ?StartBuild@Evolver@@UAE_NXZ 004b0eb0 f   Evolver.obj
 0001:000aff30       ?CancelBuild@Evolver@@UAE_NXZ 004b0f30 f   Evolver.obj
 0001:000affd0       ?FinishBuild@Evolver@@UAEPAVGameObject@@XZ 004b0fd0 f   Evolver.obj
 0001:000b0150       ?GetConstructionMatrix@Evolver@@MAE?AVMatrix34@@XZ 004b1150 f   Evolver.obj
 0001:000b0170       ?RenderInternal@Evolver@@UAEXPAVST3D_Camera@@@Z 004b1170 f   Evolver.obj
 0001:000b0210       ?mAddFootprint@Evolver@@AAEXXZ 004b1210 f   Evolver.obj
 0001:000b0270       ?mRemoveFootprint@Evolver@@AAEXXZ 004b1270 f   Evolver.obj
 0001:000b02d0       ?IsNonCombat@Evolver@@UBE_NXZ 004b12d0 f i Evolver.obj
 0001:000b02e0       ?IsEvolver@Evolver@@UBE_NXZ 004b12e0 f i Evolver.obj
 0001:000b02f0       ??_EEvolver@@UAEPAXI@Z     004b12f0 f i Evolver.obj
 0001:000b02f0       ??_GEvolver@@UAEPAXI@Z     004b12f0 f i Evolver.obj
 0001:000b0320       ?ComputeFadeOut@CocoonInstance@@UBE_NAAM@Z 004b1320 f i Evolver.obj
 0001:000b03e0       ??_ECocoonInstance@@UAEPAXI@Z 004b13e0 f i Evolver.obj
 0001:000b03e0       ??_GCocoonInstance@@UAEPAXI@Z 004b13e0 f i Evolver.obj
 0001:000b0410       ??1CocoonInstance@@UAE@XZ  004b1410 f i Evolver.obj
 0001:000b0420       ??ZVector3@@QAEABV0@ABV0@@Z 004b1420 f i Evolver.obj
	0001:000b0450       ?TransformDirection@@YA?AVVector3@@ABVMatrix34@@ABV1@@Z 004b1450 f i Evolver.obj
 0001:000b04c0       ?SetSize@?$DynArrayGrowthRate@H$20AEC@@@QAEXH@Z 004b14c0 f i Evolver.obj
 0001:000b0590       ??0Freighter@@QAE@PBVFreighterClass@@@Z 004b1590 f   Freighter.obj
 0001:000b0660       ?InitializeGeometry@Freighter@@UAEXABVMatrix34@@@Z 004b1660 f   Freighter.obj
 0001:000b0690       ??1Freighter@@UAE@XZ       004b1690 f   Freighter.obj
 0001:000b06a0       ?GetPreferredResource@Freighter@@QBE?AW4eResource@@PAVResourceInterface@@@Z 004b16a0 f   Freighter.obj
 0001:000b06f0       ?LoadResource@Freighter@@QAEXMW4eResource@@@Z 004b16f0 f   Freighter.obj
 0001:000b0770       ?UnloadResource@Freighter@@QAEXMW4eResource@@@Z 004b1770 f   Freighter.obj
 0001:000b07d0       ?GetResourceAmount@Freighter@@QBEMW4eResource@@@Z 004b17d0 f   Freighter.obj
 0001:000b0800       ?GetResourceSpaceRemaining@Freighter@@QBEMW4eResource@@@Z 004b1800 f   Freighter.obj
 0001:000b0830       ?IsFull@Freighter@@QBE_NXZ 004b1830 f   Freighter.obj
 0001:000b0860       ?IsEmpty@Freighter@@QBE_NXZ 004b1860 f   Freighter.obj
 0001:000b0880       ?GetResourceAmount@Freighter@@QBEMXZ 004b1880 f   Freighter.obj
 0001:000b0890       ?GetMaxResourceSpace@Freighter@@QBEMXZ 004b1890 f   Freighter.obj
 0001:000b08a0       ?GetResourceCarried@Freighter@@QBE?AW4eResource@@XZ 004b18a0 f   Freighter.obj
 0001:000b08b0       ?Simulate@Freighter@@UAEXM@Z 004b18b0 f   Freighter.obj
 0001:000b0940       ?Save@Freighter@@UAE_NAAVFileWriter@@@Z 004b1940 f   Freighter.obj
 0001:000b0a30       ?Load@Freighter@@UAE_NAAVFileReader@@@Z 004b1a30 f   Freighter.obj
 0001:000b0b60       ?Fire_At_Regular@Freighter@@UAEXPBVGameObject@@_N@Z 004b1b60 f   Freighter.obj
 0001:000b0b70       ?Increment_Shot_Timer_Regular@Freighter@@UAEXM@Z 004b1b70 f   Freighter.obj
 0001:000b0b80       ?GetWeaponForMining@Freighter@@QBEPAVWeapon@@PAVResourceInterface@@PAW4eResource@@@Z 004b1b80 f   Freighter.obj
 0001:000b0c10       ?GetWeaponIndexForAttack@Freighter@@QBEHXZ 004b1c10 f   Freighter.obj
 0001:000b0c20       ?GetWeaponForAttack@Freighter@@QBEPAVWeapon@@XZ 004b1c20 f   Freighter.obj
 0001:000b0c50       ?mCouldMine@Freighter@@IAE_NPBVGameObject@@@Z 004b1c50 f   Freighter.obj
 0001:000b0d30       ?GetAction@Freighter@@UAE?AVAiAction@@ABVModeInfo@@PBVGameObject@@@Z 004b1d30 f   Freighter.obj
 0001:000b0f40       ?GetAction@Freighter@@UAE?AVAiAction@@ABVModeInfo@@ABVVector3@@@Z 004b1f40 f   Freighter.obj
 0001:000b0fa0       ?UpdateDilithiumMarkings@Freighter@@QAEXXZ 004b1fa0 f   Freighter.obj
 0001:000b10c0       ?GetMiningResource@Freighter@@QBEPAVResourceInterface@@XZ 004b20c0 f   Freighter.obj
 0001:000b10f0       ?SetMiningResource@Freighter@@QAEXPAVResourceInterface@@@Z 004b20f0 f   Freighter.obj
 0001:000b1190       ?GetCraftResource@Freighter@@QAEPAVCraft@@XZ 004b2190 f   Freighter.obj
 0001:000b1260       ?SetCraftResource@Freighter@@QAEXPAVCraft@@@Z 004b2260 f   Freighter.obj
 0001:000b12c0       ?RenderInternal@Freighter@@UAEXPAVST3D_Camera@@@Z 004b22c0 f   Freighter.obj
 0001:000b1330       ?InitialExplode@Freighter@@UAEXXZ 004b2330 f   Freighter.obj
 0001:000b1370       ?EndRecycle@Freighter@@UAEXPAVShipyard@@@Z 004b2370 f   Freighter.obj
 0001:000b13b0       ?IsNonCombat@Freighter@@UBE_NXZ 004b23b0 f i Freighter.obj
 0001:000b13c0       ??_EFreighter@@UAEPAXI@Z   004b23c0 f i Freighter.obj
 0001:000b13c0       ??_GFreighter@@UAEPAXI@Z   004b23c0 f i Freighter.obj
 0001:000b13f0       ??0cHoverCraftControl@@QAE@PAVCraft@@@Z 004b23f0 f   HoverCraftControl.obj
 0001:000b1480       ??1cHoverCraftControl@@UAE@XZ 004b2480 f   HoverCraftControl.obj
 0001:000b14a0       ?Reset@cHoverCraftControl@@UAEXXZ 004b24a0 f   HoverCraftControl.obj
 0001:000b14c0       ?ServoYaw@cHoverCraftControl@@UAEXM@Z 004b24c0 f   HoverCraftControl.obj
 0001:000b15c0       ?ServoPitch@cHoverCraftControl@@UAEXM@Z 004b25c0 f   HoverCraftControl.obj
 0001:000b1690       ?ServoDirection@cHoverCraftControl@@UAEXABVVector3@@@Z 004b2690 f   HoverCraftControl.obj
 0001:000b16e0       ?mServoFwdBack@cHoverCraftControl@@IAEXABVVector3@@0@Z 004b26e0 f   HoverCraftControl.obj
 0001:000b17e0       ?ServoSpeed@cHoverCraftControl@@UAEXM@Z 004b27e0 f   HoverCraftControl.obj
 0001:000b1800       ?ServoDirectionAndSpeed@cHoverCraftControl@@UAEXABVVector3@@M@Z 004b2800 f   HoverCraftControl.obj
 0001:000b1880       ?ServoClosePursue@cHoverCraftControl@@UAE_NABVVector3@@00@Z 004b2880 f   HoverCraftControl.obj
 0001:000b19b0       ?ServoFarPursue@cHoverCraftControl@@UAEXABVVector3@@00@Z 004b29b0 f   HoverCraftControl.obj
 0001:000b1ac0       ?MovingTowardsRepairQueue@cHoverCraftControl@@UAEXABVVector3@@@Z 004b2ac0 f   HoverCraftControl.obj
 0001:000b1ad0       ?NewDestination@cHoverCraftControl@@UAEXXZ 004b2ad0 f   HoverCraftControl.obj
 0001:000b1ae0       ?mSimulate@cHoverCraftControl@@MAEXM@Z 004b2ae0 f   HoverCraftControl.obj
 0001:000b2520       ?mCopyFromPhysics@cHoverCraftControl@@MAEXPAVPhysicsParameterSet@@@Z 004b3520 f   HoverCraftControl.obj
 0001:000b2610       ?SetCombatSpeed@cHoverCraftControl@@UAEXM@Z 004b3610 f   HoverCraftControl.obj
 0001:000b2650       ?IsBorgControl@cCraftControl@@UBE_NXZ 004b3650 f i HoverCraftControl.obj
 0001:000b2660       ??_GcHoverCraftControl@@UAEPAXI@Z 004b3660 f i HoverCraftControl.obj
 0001:000b2660       ??_EcHoverCraftControl@@UAEPAXI@Z 004b3660 f i HoverCraftControl.obj
 0001:000b2690       ??0cHoverCraftControlBase@@QAE@PAVCraft@@@Z 004b3690 f   HoverCraftControlBase.obj
 0001:000b2710       ??1cHoverCraftControlBase@@UAE@XZ 004b3710 f   HoverCraftControlBase.obj
 0001:000b2720       ?SetQueueTransform@cHoverCraftControlBase@@UAEXABVVector3@@0@Z 004b3720 f   HoverCraftControlBase.obj
 0001:000b2840       ?SetCraftControlMode@cHoverCraftControlBase@@UAEXW4eCraftControlMode@@@Z 004b3840 f   HoverCraftControlBase.obj
 0001:000b2870       ?GetCraftControlMode@cHoverCraftControlBase@@UBE?AW4eCraftControlMode@@XZ 004b3870 f   HoverCraftControlBase.obj
 0001:000b2890       ?mSetPhysicsClass@cHoverCraftControlBase@@IAEXPAVPhysicsParameterSet@@@Z 004b3890 f   HoverCraftControlBase.obj
 0001:000b28b0       ?UpdateDirection@cHoverCraftControlBase@@UAEXXZ 004b38b0 f   HoverCraftControlBase.obj
 0001:000b28d0       ?GetFacingVector@cHoverCraftControlBase@@UBE?AVVector3@@XZ 004b38d0 f   HoverCraftControlBase.obj
 0001:000b2900       ?mSanityCheckPostSimulate@cHoverCraftControlBase@@IAEXXZ 004b3900 f   HoverCraftControlBase.obj
 0001:000b2910       ?Simulate@cHoverCraftControlBase@@UAEXM@Z 004b3910 f   HoverCraftControlBase.obj
 0001:000b29a0       ?mDriftInTheColdnessOfSpace@cHoverCraftControlBase@@IAEXM@Z 004b39a0 f   HoverCraftControlBase.obj
 0001:000b2b30       ?mPreWarpCheck@cHoverCraftControlBase@@IBE_NXZ 004b3b30 f   HoverCraftControlBase.obj
 0001:000b2ce0       ?mWarpCheck@cHoverCraftControlBase@@MAE_NMPAM0PA_N@Z 004b3ce0 f   HoverCraftControlBase.obj
 0001:000b3180       ?StopWarpIfTooCloseToDestination@cHoverCraftControlBase@@UAEXABVVector3@@@Z 004b4180 f   HoverCraftControlBase.obj
 0001:000b31d0       ?Load@cHoverCraftControlBase@@UAE_NAAVFileReader@@@Z 004b41d0 f   HoverCraftControlBase.obj
 0001:000b3250       ?Save@cHoverCraftControlBase@@UAE_NAAVFileWriter@@@Z 004b4250 f   HoverCraftControlBase.obj
 0001:000b32e0       ?SetCombatSpeed@cCraftControl@@UAEXM@Z 004b42e0 f i HoverCraftControlBase.obj
 0001:000b32f0       ??_GcHoverCraftControlBase@@UAEPAXI@Z 004b42f0 f i HoverCraftControlBase.obj
 0001:000b32f0       ??_EcHoverCraftControlBase@@UAEPAXI@Z 004b42f0 f i HoverCraftControlBase.obj
 0001:000b3320       ?StopWarpIfTooCloseToDestination@cCraftControl@@UAEXABVVector3@@@Z 004b4320 f i HoverCraftControlBase.obj
 0001:000b3330       ??_GcCraftControl@@UAEPAXI@Z 004b4330 f i HoverCraftControlBase.obj
 0001:000b3330       ??_EcCraftControl@@UAEPAXI@Z 004b4330 f i HoverCraftControlBase.obj
 0001:000b3360       ??0MiningStation@@QAE@PBVMiningStationClass@@@Z 004b4360 f   MiningStation.obj
 0001:000b3400       ?InitializeGeometry@MiningStation@@UAEXABVMatrix34@@@Z 004b4400 f   MiningStation.obj
 0001:000b3430       ??1MiningStation@@UAE@XZ   004b4430 f   MiningStation.obj
 0001:000b34a0       ?Render@MiningStation@@UAEXPAVST3D_Camera@@@Z 004b44a0 f   MiningStation.obj
	0001:000b3500       ?BuildFreighter@MiningStation@@QAEPAVFreighter@@XZ 004b4500 f   MiningStation.obj
 0001:000b35d0       ?OnFinalBuild@MiningStation@@UAEXPBVBuildCookie@@@Z 004b45d0 f   MiningStation.obj
 0001:000b35e0       ?Simulate@MiningStation@@UAEXM@Z 004b45e0 f   MiningStation.obj
 0001:000b3640       ?Load@MiningStation@@UAE_NAAVFileReader@@@Z 004b4640 f   MiningStation.obj
 0001:000b36a0       ?Save@MiningStation@@UAE_NAAVFileWriter@@@Z 004b46a0 f   MiningStation.obj
 0001:000b3710       ?GetResourceTransferInterface@MiningStation@@UBEPAVResourceTransferInterface@@XZ 004b4710 f   MiningStation.obj
 0001:000b3740       ??_GMiningStation@@UAEPAXI@Z 004b4740 f i MiningStation.obj
 0001:000b3740       ??_EMiningStation@@UAEPAXI@Z 004b4740 f i MiningStation.obj
 0001:000b3790       ??0Planet@@QAE@PBVPlanetClass@@@Z 004b4790 f   Planet.obj
 0001:000b3ac0       ??1Planet@@UAE@XZ          004b4ac0 f   Planet.obj
 0001:000b3cf0       ?mSetRotationRate@Planet@@IAEXXZ 004b4cf0 f   Planet.obj
 0001:000b3d60       ?ClearTeam@Planet@@UAEXXZ  004b4d60 f   Planet.obj
 0001:000b3da0       ?SetTeam@Planet@@UAEXH@Z   004b4da0 f   Planet.obj
 0001:000b3df0       ?GetNumPlanets@Planet@@SAHH@Z 004b4df0 f   Planet.obj
 0001:000b3e20       ?InitializeGeometry@Planet@@UAEXABVMatrix34@@@Z 004b4e20 f   Planet.obj
 0001:000b4150       ?NeutralizePlanet@Planet@@QAEXXZ 004b5150 f   Planet.obj
 0001:000b4210       ?DestroyShip@Planet@@UAEXH@Z 004b5210 f   Planet.obj
 0001:000b4220       ?Simulate@Planet@@UAEXM@Z  004b5220 f   Planet.obj
 0001:000b44f0       ?PostSimulate@Planet@@UAEXM@Z 004b54f0 f   Planet.obj
 0001:000b4550       ?GetMaxPopulation@Planet@@QBEMXZ 004b5550 f   Planet.obj
 0001:000b45a0       ?UpdateBuildButtons@Planet@@MAEXXZ 004b55a0 f   Planet.obj
 0001:000b4660       ?StartWithColony@Planet@@QAEXH@Z 004b5660 f   Planet.obj
 0001:000b46c0       ?DamageHull@Planet@@MAE_NMH@Z 004b56c0 f   Planet.obj
 0001:000b4710       ?SetColonizer@Planet@@QAEXPAVColony@@@Z 004b5710 f   Planet.obj
 0001:000b4740       ?GetColonizer@Planet@@QBEPAVColony@@XZ 004b5740 f   Planet.obj
 0001:000b4770       ?GetPopFromLevel@Planet@@SAMW4eCivPopulationLevel@1@@Z 004b5770 f   Planet.obj
 0001:000b47c0       ?LandColonists@Planet@@QAEXHH@Z 004b57c0 f   Planet.obj
 0001:000b4890       ?mGetPopGrowthRate@Planet@@IAEMXZ 004b5890 f   Planet.obj
 0001:000b4960       ?GetPopulation@Planet@@QBEMXZ 004b5960 f   Planet.obj
 0001:000b4970       ?SetPopulation@Planet@@QAEXM@Z 004b5970 f   Planet.obj
 0001:000b4a70       ?mAddAndClampPopulation@Planet@@IAEXM@Z 004b5a70 f   Planet.obj
 0001:000b4b20       ?GetPopulationKey@Planet@@QAEPBDXZ 004b5b20 f   Planet.obj
 0001:000b4b30       ?IsColonizable@Planet@@QBE_NH_N@Z 004b5b30 f   Planet.obj
 0001:000b4b70       ?FinishBuild@Planet@@MAEPAVGameObject@@XZ 004b5b70 f   Planet.obj
 0001:000b4c10       ?mGetCrewGrowthRate@Planet@@IAEMXZ 004b5c10 f   Planet.obj
 0001:000b4c40       ?GetClosestPlanet@Planet@@SAPAV1@PAVGameObject@@AAMHM@Z 004b5c40 f   Planet.obj
 0001:000b4d10       ?mStartConstructionEffect@Planet@@MAE_NXZ 004b5d10 f   Planet.obj
 0001:000b4d20       ?Load@Planet@@MAE_NAAVFileReader@@@Z 004b5d20 f   Planet.obj
 0001:000b4ee0       ?Save@Planet@@MAE_NAAVFileWriter@@@Z 004b5ee0 f   Planet.obj
 0001:000b4f90       ?Point_To_Line_Distance_Squared@@YAMABVVector3@@00@Z 004b5f90 f   Planet.obj
 0001:000b5060       ?Planet_PathIsBlocked@@YA_NABVVector3@@0PBVGameObject@@@Z 004b6060 f   Planet.obj
 0001:000b5360       ?PointIsInsidePlanet@@YA_NABVVector3@@PBVGameObject@@@Z 004b6360 f   Planet.obj
 0001:000b54b0       ?IsPlanet@Planet@@UBE_NXZ  004b64b0 f i Planet.obj
 0001:000b54c0       ?HandleLifeSupport@Planet@@MAEXM@Z 004b64c0 f i Planet.obj
 0001:000b54d0       ??_GPlanet@@UAEPAXI@Z      004b64d0 f i Planet.obj
 0001:000b54d0       ??_EPlanet@@UAEPAXI@Z      004b64d0 f i Planet.obj
 0001:000b5500       ??_GModeInfo@@UAEPAXI@Z    004b6500 f i Planet.obj
 0001:000b5530       ?DotProduct@@YAMABVVector3@@0@Z 004b6530 f i Planet.obj
 0001:000b5550       ?size@?$vector@PAVPlanet@@V?$allocator@PAVPlanet@@@std@@@std@@QBEIXZ 004b6550 f i Planet.obj
 0001:000b5570       ?_Destroy@?$vector@PAVPlanet@@V?$allocator@PAVPlanet@@@std@@@std@@IAEXPAPAVPlanet@@0@Z 004b6570 f i Planet.obj
 0001:000b5580       ?_Ucopy@?$vector@PAVPlanet@@V?$allocator@PAVPlanet@@@std@@@std@@IAEPAPAVPlanet@@PBQAV3@0PAPAV3@@Z 004b6580 f i Planet.obj
 0001:000b55b0       ?_Ufill@?$vector@PAVPlanet@@V?$allocator@PAVPlanet@@@std@@@std@@IAEXPAPAVPlanet@@IABQAV3@@Z 004b65b0 f i Planet.obj
 0001:000b55e0       ??0PlanetInstance@@QAE@XZ  004b65e0 f   PlanetInstance.obj
 0001:000b5620       ?ComputeFadeOut@PlanetInstance@@UBE_NAAM@Z 004b6620 f   PlanetInstance.obj
 0001:000b5650       ?mSetupHemisphere@PlanetInstance@@IBEXPAVPlanet@@H@Z 004b6650 f   PlanetInstance.obj
 0001:000b5b40       ?mSetupAtmosphere@PlanetInstance@@IBEXPAVPlanet@@@Z 004b6b40 f   PlanetInstance.obj
 0001:000b5c70       ?RenderInternal@PlanetInstance@@UAEXPAVST3D_Camera@@@Z 004b6c70 f   PlanetInstance.obj
 0001:000b5cd0       ?Update@PlanetInstance@@UAEXPBVGameObject@@@Z 004b6cd0 f   PlanetInstance.obj
 0001:000b5d10       ?Initialize@PlanetInstance@@UAEXPBVGameObject@@@Z 004b6d10 f   PlanetInstance.obj
 0001:000b5d50       ?Simulate@PlanetInstance@@QAEXMM@Z 004b6d50 f   PlanetInstance.obj
 0001:000b5d80       ?Load@PlanetInstance@@UAE_NAAVFileReader@@@Z 004b6d80 f   PlanetInstance.obj
 0001:000b5e00       ?Save@PlanetInstance@@UAE_NAAVFileWriter@@@Z 004b6e00 f   PlanetInstance.obj
 0001:000b5e80       ?PostLoad@PlanetInstance@@UAEXXZ 004b6e80 f   PlanetInstance.obj
 0001:000b5ee0       ??_EPlanetInstance@@UAEPAXI@Z 004b6ee0 f i PlanetInstance.obj
 0001:000b5ee0       ??_GPlanetInstance@@UAEPAXI@Z 004b6ee0 f i PlanetInstance.obj
 0001:000b5f10       ??1PlanetInstance@@UAE@XZ  004b6f10 f i PlanetInstance.obj
 0001:000b5f20       ?GetType@ST3D_TextureMaterial@@UAE?AW4ST3D_Type@@XZ 004b6f20 f i PlanetInstance.obj
 0001:000b5f30       ??_GST3D_PlanetaryMaterial@@UAEPAXI@Z 004b6f30 f i PlanetInstance.obj
 0001:000b5f30       ??_EST3D_PlanetaryMaterial@@UAEPAXI@Z 004b6f30 f i PlanetInstance.obj
 0001:000b5f60       ??1ST3D_PlanetaryMaterial@@UAE@XZ 004b6f60 f i PlanetInstance.obj
 0001:000b5f70       ?GetOrbitalOmega@@YAMABVVector3@@PBVPlanet@@@Z 004b6f70 f   PlanetMiningBase.obj
 0001:000b5f90       ?GetOrbitalPosition@@YA?AVVector3@@MPBVPlanet@@@Z 004b6f90 f   PlanetMiningBase.obj
 0001:000b6000       ??0PlanetMiningBase@@QAE@PBVPlanetMiningBaseClass@@@Z 004b7000 f   PlanetMiningBase.obj
 0001:000b6040       ?Cleanup@PlanetMiningBase@@UAEXXZ 004b7040 f   PlanetMiningBase.obj
 0001:000b6090       ?Simulate@PlanetMiningBase@@UAEXM@Z 004b7090 f   PlanetMiningBase.obj
	0001:000b6250       ?SetPlanet@PlanetMiningBase@@QAEXPAVPlanet@@@Z 004b7250 f   PlanetMiningBase.obj
 0001:000b62a0       ?GetMiningRate@PlanetMiningBase@@QAEMXZ 004b72a0 f   PlanetMiningBase.obj
 0001:000b62b0       ?GetPlanet@PlanetMiningBase@@QAEPAVPlanet@@XZ 004b72b0 f   PlanetMiningBase.obj
 0001:000b62e0       ?OnFinalBuild@PlanetMiningBase@@UAEXPBVBuildCookie@@@Z 004b72e0 f   PlanetMiningBase.obj
 0001:000b6370       ?Load@PlanetMiningBase@@UAE_NAAVFileReader@@@Z 004b7370 f   PlanetMiningBase.obj
 0001:000b63d0       ?PostLoad@PlanetMiningBase@@UAE_NXZ 004b73d0 f   PlanetMiningBase.obj
 0001:000b6460       ?Save@PlanetMiningBase@@UAE_NAAVFileWriter@@@Z 004b7460 f   PlanetMiningBase.obj
 0001:000b6500       ??_EPlanetMiningBase@@UAEPAXI@Z 004b7500 f i PlanetMiningBase.obj
 0001:000b6500       ??_GPlanetMiningBase@@UAEPAXI@Z 004b7500 f i PlanetMiningBase.obj
 0001:000b6530       ??1PlanetMiningBase@@UAE@XZ 004b7530 f i PlanetMiningBase.obj
 0001:000b6540       ??0BuildQueueItem@@QAE@PBVGameObjectClass@@H@Z 004b7540 f   Producer.obj
 0001:000b6560       ??1BuildQueueItem@@QAE@XZ  004b7560 f   Producer.obj
 0001:000b6570       ?RemoveMe@BuildQueueItem@@QAEXXZ 004b7570 f   Producer.obj
 0001:000b65b0       ??0Producer@@QAE@PBVProducerClass@@@Z 004b75b0 f   Producer.obj
 0001:000b6630       ?InitializeGeometry@Producer@@UAEXABVMatrix34@@@Z 004b7630 f   Producer.obj
 0001:000b6700       ?mRemoveConstructionEffect@Producer@@MAEXXZ 004b7700 f   Producer.obj
 0001:000b6750       ?ClearAllConstruction@Producer@@QAEXXZ 004b7750 f   Producer.obj
 0001:000b6790       ?ClearTeam@Producer@@UAEXXZ 004b7790 f   Producer.obj
 0001:000b67d0       ??1Producer@@UAE@XZ        004b77d0 f   Producer.obj
 0001:000b6840       ?Simulate@Producer@@UAEXM@Z 004b7840 f   Producer.obj
	0001:000b6890       ?GetLastBuilt@Producer@@QAEPAVGameObject@@XZ 004b7890 f   Producer.obj
 0001:000b68c0       ?ClearBuildQueue@Producer@@UAEXXZ 004b78c0 f   Producer.obj
	0001:000b6930       ?PushBuildQueueItem@Producer@@QAEXPBVGameObjectClass@@@Z 004b7930 f   Producer.obj
 0001:000b69b0       ?PopBuildQueueItem@Producer@@QAEXXZ 004b79b0 f   Producer.obj
	0001:000b6a10       ?RequestDeleteBuildQueueItem@Producer@@UAEXH@Z 004b7a10 f   Producer.obj
 0001:000b6a60       ?ActDeleteBuildQueueItem@Producer@@UAEXH@Z 004b7a60 f   Producer.obj
 0001:000b6b40       ?GetNextBuildItem@Producer@@QAEPBVGameObjectClass@@XZ 004b7b40 f   Producer.obj
 0001:000b6b60       ?IsBuildListEmpty@Producer@@UAE_NXZ 004b7b60 f   Producer.obj
 0001:000b6b70       ?BuildQueueSize@Producer@@QAEHXZ 004b7b70 f   Producer.obj
 0001:000b6b90       ?GetTotalQueueDilithiumCost@Producer@@UAEJXZ 004b7b90 f   Producer.obj
 0001:000b6bc0       ?GetTotalQueueMetalCost@Producer@@UAEJXZ 004b7bc0 f   Producer.obj
 0001:000b6bf0       ?GetTotalQueueLatinumCost@Producer@@UAEJXZ 004b7bf0 f   Producer.obj
 0001:000b6c20       ?GetTotalQueueBiomatterCost@Producer@@UAEJXZ 004b7c20 f   Producer.obj
 0001:000b6c50       ?GetTotalQueueOfficerCost@Producer@@UAEJXZ 004b7c50 f   Producer.obj
 0001:000b6c80       ?GetTotalQueueCrewCost@Producer@@UAEMXZ 004b7c80 f   Producer.obj
 0001:000b6cd0       ?GetBuildObjectTime@Producer@@QAEMXZ 004b7cd0 f   Producer.obj
 0001:000b6cf0       ?CanAffordNextItem@Producer@@QAE_NXZ 004b7cf0 f   Producer.obj
 0001:000b6ec0       ?CanAffordBuildQueue@Producer@@QAE_NXZ 004b7ec0 f   Producer.obj
 0001:000b7070       ?GetBuildQueue@Producer@@QAEPAPBVGameObjectClass@@XZ 004b8070 f   Producer.obj
 0001:000b7090       ?GetAction@Producer@@UAE?AVAiAction@@ABVModeInfo@@PBVGameObject@@@Z 004b8090 f   Producer.obj
 0001:000b70f0       ?GetAction@Producer@@UAE?AVAiAction@@ABVModeInfo@@ABVVector3@@@Z 004b80f0 f   Producer.obj
 0001:000b7140       ?mStartConstructionEffect@Producer@@MAE_NXZ 004b8140 f   Producer.obj
 0001:000b7180       ?StartBuild@Producer@@UAE_NXZ 004b8180 f   Producer.obj
 0001:000b7470       ?mCancelConstructionEffect@Producer@@MAEXXZ 004b8470 f   Producer.obj
 0001:000b74b0       ?CancelBuild@Producer@@UAE_NXZ 004b84b0 f   Producer.obj
 0001:000b76b0       ?Build@Producer@@UAEPAVGameObject@@PBVGameObjectClass@@@Z 004b86b0 f   Producer.obj
 0001:000b78d0       ?Load@Producer@@UAE_NAAVFileReader@@@Z 004b88d0 f   Producer.obj
 0001:000b7a50       ?PostLoad@Producer@@UAE_NXZ 004b8a50 f   Producer.obj
 0001:000b7aa0       ?Save@Producer@@UAE_NAAVFileWriter@@@Z 004b8aa0 f   Producer.obj
 0001:000b7c10       ?UpdateBuildButtons@Producer@@MAEXXZ 004b8c10 f   Producer.obj
 0001:000b7d90       ?UpdateBuildList@Producer@@MAEXXZ 004b8d90 f   Producer.obj
 0001:000b7dd0       ?mUpdateConstructionEffect@Producer@@MAEXM@Z 004b8dd0 f   Producer.obj
 0001:000b7df0       ?UpdateBuild@Producer@@MAEXM@Z 004b8df0 f   Producer.obj
 0001:000b7f30       ?mStopConstructionEffect@Producer@@MAEXXZ 004b8f30 f   Producer.obj
	0001:000b7f50       ?FinishBuild@Producer@@MAEPAVGameObject@@XZ 004b8f50 f   Producer.obj
 0001:000b8170       ?GetConstructionMatrix@Producer@@MAE?AVMatrix34@@XZ 004b9170 f   Producer.obj
 0001:000b8190       ?GetBuildItemIndex@Producer@@UAEHPAVGameObjectClass@@@Z 004b9190 f   Producer.obj
 0001:000b81c0       ?GetIsEnabled@Producer@@UAE_NW4AiCommand@@@Z 004b91c0 f   Producer.obj
 0001:000b8210       ??_GProducer@@UAEPAXI@Z    004b9210 f i Producer.obj
 0001:000b8210       ??_EProducer@@UAEPAXI@Z    004b9210 f i Producer.obj
 0001:000b8240       ??0RepairShip@@QAE@PBVRepairShipClass@@@Z 004b9240 f   RepairShip.obj
 0001:000b8270       ??1RepairShip@@UAE@XZ      004b9270 f   RepairShip.obj
 0001:000b8280       ?GetAction@RepairShip@@UAE?AVAiAction@@ABVModeInfo@@ABVVector3@@@Z 004b9280 f   RepairShip.obj
 0001:000b82c0       ?CanRepair@RepairShip@@QAEHPBVGameObject@@@Z 004b92c0 f   RepairShip.obj
 0001:000b8320       ?GetAction@RepairShip@@UAE?AVAiAction@@ABVModeInfo@@PBVGameObject@@@Z 004b9320 f   RepairShip.obj
 0001:000b8430       ?Simulate@RepairShip@@UAEXM@Z 004b9430 f   RepairShip.obj
 0001:000b84c0       ?IsNonCombat@RepairShip@@UBE_NXZ 004b94c0 f i RepairShip.obj
 0001:000b84d0       ??_GRepairShip@@UAEPAXI@Z  004b94d0 f i RepairShip.obj
 0001:000b84d0       ??_ERepairShip@@UAEPAXI@Z  004b94d0 f i RepairShip.obj
 0001:000b8500       ??0ResearchPod@@QAE@PBVResearchPodClass@@@Z 004b9500 f   ResearchPod.obj
 0001:000b8540       ??1ResearchPod@@UAE@XZ     004b9540 f   ResearchPod.obj
 0001:000b85a0       ?Cleanup@ResearchPod@@UAEXXZ 004b95a0 f   ResearchPod.obj
 0001:000b85f0       ?Init@ResearchPod@@UAEXH@Z 004b95f0 f   ResearchPod.obj
 0001:000b86d0       ?Simulate@ResearchPod@@UAEXM@Z 004b96d0 f   ResearchPod.obj
 0001:000b8700       ?AttachToResearchStation@ResearchPod@@QAEXPAVResearchStation@@@Z 004b9700 f   ResearchPod.obj
 0001:000b8710       ?Load@ResearchPod@@UAE_NAAVFileReader@@@Z 004b9710 f   ResearchPod.obj
 0001:000b87a0       ?PostLoad@ResearchPod@@UAE_NXZ 004b97a0 f   ResearchPod.obj
 0001:000b87b0       ?Save@ResearchPod@@UAE_NAAVFileWriter@@@Z 004b97b0 f   ResearchPod.obj
 0001:000b8840       ?IsUpgrade@ResearchPod@@QBE_NXZ 004b9840 f   ResearchPod.obj
 0001:000b8870       ?IsSamePodType@ResearchPod@@QAE_NPBVResearchPodClass@@@Z 004b9870 f   ResearchPod.obj
 0001:000b88d0       ?SetAssimilated@ResearchPod@@QAEXABVcPrjID@@@Z 004b98d0 f   ResearchPod.obj
 0001:000b8910       ?ClearAssimilated@ResearchPod@@QAEXXZ 004b9910 f   ResearchPod.obj
 0001:000b8950       ?IgnoreInterface@ResearchPod@@UBE_NXZ 004b9950 f i ResearchPod.obj
 0001:000b8980       ??_EResearchPod@@UAEPAXI@Z 004b9980 f i ResearchPod.obj
 0001:000b8980       ??_GResearchPod@@UAEPAXI@Z 004b9980 f i ResearchPod.obj
 0001:000b89b0       ??0ResearchStation@@QAE@PBVResearchStationClass@@@Z 004b99b0 f   ResearchStation.obj
 0001:000b8a10       ?InitializeGeometry@ResearchStation@@UAEXABVMatrix34@@@Z 004b9a10 f   ResearchStation.obj
 0001:000b8b50       ??1ResearchStation@@UAE@XZ 004b9b50 f   ResearchStation.obj
 0001:000b8c10       ?Cleanup@ResearchStation@@UAEXXZ 004b9c10 f   ResearchStation.obj
 0001:000b8cb0       ?SwapTeam@ResearchStation@@UAEXH@Z 004b9cb0 f   ResearchStation.obj
 0001:000b8d10       ?SwapRaceAndTeam@ResearchStation@@UAEXPBVRace@@H@Z 004b9d10 f   ResearchStation.obj
 0001:000b8d70       ?UpdateBuildButtons@ResearchStation@@UAEXXZ 004b9d70 f   ResearchStation.obj
 0001:000b9040       ?SetPrimaryBuildItem@ResearchStation@@IAEXPBVResearchPodClass@@@Z 004ba040 f   ResearchStation.obj
	0001:000b90e0       ?StartBuild@ResearchStation@@UAE_NXZ 004ba0e0 f   ResearchStation.obj
 0001:000b91b0       ?CancelBuild@ResearchStation@@UAE_NXZ 004ba1b0 f   ResearchStation.obj
 0001:000b9250       ?Build@ResearchStation@@UAEPAVGameObject@@PBVGameObjectClass@@@Z 004ba250 f   ResearchStation.obj
 0001:000b9280       ?CanBuild@ResearchStation@@UAE_NXZ 004ba280 f   ResearchStation.obj
 0001:000b92f0       ?FinishBuild@ResearchStation@@UAEPAVGameObject@@XZ 004ba2f0 f   ResearchStation.obj
 0001:000b94a0       ?IsItemBuildable@ResearchStation@@QAE_NPBVGameObjectClass@@@Z 004ba4a0 f   ResearchStation.obj
 0001:000b9520       ?SetCurrentPodAssimilated@ResearchStation@@QAEXABVcPrjID@@@Z 004ba520 f   ResearchStation.obj
 0001:000b9570       ?CreatePod@ResearchStation@@UAEPAVGameObject@@PBVGameObjectClass@@@Z 004ba570 f   ResearchStation.obj
 0001:000b9760       ?PodDestroyed@ResearchStation@@UAEXPAVGameObject@@@Z 004ba760 f   ResearchStation.obj
 0001:000b9810       ?UpdateWorldOnPodDestruction@ResearchStation@@QAEXPAVResearchPod@@@Z 004ba810 f   ResearchStation.obj
 0001:000b9880       ?Simulate@ResearchStation@@UAEXM@Z 004ba880 f   ResearchStation.obj
 0001:000b9920       ?Load@ResearchStation@@UAE_NAAVFileReader@@@Z 004ba920 f   ResearchStation.obj
 0001:000b9aa0       ?Save@ResearchStation@@UAE_NAAVFileWriter@@@Z 004baaa0 f   ResearchStation.obj
 0001:000b9bd0       ?GetConstructionMatrix@ResearchStation@@MAE?AVMatrix34@@XZ 004babd0 f   ResearchStation.obj
 0001:000b9d30       ?mIsSecondaryItem@ResearchStation@@IAE_NPBVGameObjectClass@@@Z 004bad30 f   ResearchStation.obj
 0001:000b9d60       ?mInitPodHardpoints@ResearchStation@@AAEXXZ 004bad60 f   ResearchStation.obj
 0001:000b9e70       ?mFindHardpoints@ResearchStation@@AAEXXZ 004bae70 f   ResearchStation.obj
 0001:000b9f00       ?mFindPodIndex@ResearchStation@@AAEHPAVGameObject@@PBVResearchPodClass@@@Z 004baf00 f   ResearchStation.obj
 0001:000b9f60       ?mFindPrimaryPodIndex@ResearchStation@@AAEHPBVResearchPodClass@@@Z 004baf60 f   ResearchStation.obj
 0001:000b9fd0       ?mPodTypeExists@ResearchStation@@AAE_NPBVGameObjectClass@@@Z 004bafd0 f   ResearchStation.obj
 0001:000ba020       ?DestroyShip@ResearchStation@@UAEXH@Z 004bb020 f   ResearchStation.obj
 0001:000ba080       ??_EResearchStation@@UAEPAXI@Z 004bb080 f i ResearchStation.obj
 0001:000ba080       ??_GResearchStation@@UAEPAXI@Z 004bb080 f i ResearchStation.obj
 0001:000ba0b0       ??0Scavenger@@QAE@PBVScavengerClass@@@Z 004bb0b0 f   Scavenger.obj
 0001:000ba0d0       ?SetTeam@Scavenger@@UAEXH@Z 004bb0d0 f   Scavenger.obj
 0001:000ba120       ??_EScavenger@@UAEPAXI@Z   004bb120 f i Scavenger.obj
 0001:000ba120       ??_GScavenger@@UAEPAXI@Z   004bb120 f i Scavenger.obj
 0001:000ba150       ??1Scavenger@@UAE@XZ       004bb150 f i Scavenger.obj
 0001:000ba200       ??0Shipyard@@QAE@PBVShipyardClass@@@Z 004bb200 f   Shipyard.obj
 0001:000ba2c0       ?InitializeGeometry@Shipyard@@UAEXABVMatrix34@@@Z 004bb2c0 f   Shipyard.obj
 0001:000ba540       ??1Shipyard@@UAE@XZ        004bb540 f   Shipyard.obj
 0001:000ba610       ?Simulate@Shipyard@@UAEXM@Z 004bb610 f   Shipyard.obj
 0001:000ba760       ?ClearTeam@Shipyard@@UAEXXZ 004bb760 f   Shipyard.obj
 0001:000ba790       ?mDoRepairSound@Shipyard@@IAEX_N@Z 004bb790 f   Shipyard.obj
 0001:000ba7f0       ?SetRepairDock@Shipyard@@QAEXPAVCraft@@@Z 004bb7f0 f   Shipyard.obj
 0001:000ba900       ?Render@Shipyard@@UAEXPAVST3D_Camera@@@Z 004bb900 f   Shipyard.obj
 0001:000ba960       ?GetClosestShipyard@Shipyard@@SAPAV1@PAVGameObject@@AAMH_N2M@Z 004bb960 f   Shipyard.obj
 0001:000baa50       ?GetFastestRepairFacility@Shipyard@@SAPAV1@PAVCraft@@@Z 004bba50 f   Shipyard.obj
 0001:000bab70       ?GetBestRecycleFacility@Shipyard@@SAPAV1@PAVGameObject@@@Z 004bbb70 f   Shipyard.obj
 0001:000bacf0       ?HasShipyard@Shipyard@@SA_NH_N@Z 004bbcf0 f   Shipyard.obj
 0001:000bad60       ?StartBuild@Shipyard@@UAE_NXZ 004bbd60 f   Shipyard.obj
 0001:000bad90       ?FinishBuild@Shipyard@@UAEPAVGameObject@@XZ 004bbd90 f   Shipyard.obj
 0001:000bae20       ?CancelBuild@Shipyard@@UAE_NXZ 004bbe20 f   Shipyard.obj
 0001:000bae30       ?GetDilithiumRecyclingFraction@Shipyard@@QAEMXZ 004bbe30 f   Shipyard.obj
 0001:000bae60       ?GetMetalRecyclingFraction@Shipyard@@QAEMXZ 004bbe60 f   Shipyard.obj
 0001:000bae90       ?mStartConstructionEffect@Shipyard@@MAE_NXZ 004bbe90 f   Shipyard.obj
 0001:000baeb0       ?GetRallyPoint@Shipyard@@QAEABVVector3@@XZ 004bbeb0 f   Shipyard.obj
 0001:000baed0       ?RecycleResource@Shipyard@@QAEXW4eResource@@0@Z 004bbed0 f   Shipyard.obj
 0001:000baf80       ?AIRecycleResources@Shipyard@@QAEXXZ 004bbf80 f   Shipyard.obj
 0001:000bb150       ?mRecomputeRallyPoint@Shipyard@@IAEXXZ 004bc150 f   Shipyard.obj
 0001:000bb350       ?Save@Shipyard@@UAE_NAAVFileWriter@@@Z 004bc350 f   Shipyard.obj
 0001:000bb400       ?Load@Shipyard@@UAE_NAAVFileReader@@@Z 004bc400 f   Shipyard.obj
 0001:000bb520       ??_GShipyard@@UAEPAXI@Z    004bc520 f i Shipyard.obj
 0001:000bb520       ??_EShipyard@@UAEPAXI@Z    004bc520 f i Shipyard.obj
 0001:000bb550       ?GetName@OutputQueueManager@@UAEPBDXZ 004bc550 f i Shipyard.obj
 0001:000bb560       ??_EOutputQueueManager@@UAEPAXI@Z 004bc560 f i Shipyard.obj
 0001:000bb560       ??_GOutputQueueManager@@UAEPAXI@Z 004bc560 f i Shipyard.obj
 0001:000bb590       ??1OutputQueueManager@@UAE@XZ 004bc590 f i Shipyard.obj
 0001:000bb5a0       ?GetName@RepairQueueManager@@UAEPBDXZ 004bc5a0 f i Shipyard.obj
 0001:000bb5b0       ??_ERepairQueueManager@@UAEPAXI@Z 004bc5b0 f i Shipyard.obj
 0001:000bb5b0       ??_GRepairQueueManager@@UAEPAXI@Z 004bc5b0 f i Shipyard.obj
 0001:000bb5e0       ??0cSmoothControl@@QAE@PAVCraft@@@Z 004bc5e0 f   SmoothControl.obj
 0001:000bb690       ??1cSmoothControl@@UAE@XZ  004bc690 f   SmoothControl.obj
 0001:000bb6b0       ?Reset@cSmoothControl@@UAEXXZ 004bc6b0 f   SmoothControl.obj
 0001:000bb6d0       ?ServoYaw@cSmoothControl@@UAEXM@Z 004bc6d0 f   SmoothControl.obj
 0001:000bb6f0       ?ServoPitch@cSmoothControl@@UAEXM@Z 004bc6f0 f   SmoothControl.obj
 0001:000bb710       ?ServoDirection@cSmoothControl@@UAEXABVVector3@@@Z 004bc710 f   SmoothControl.obj
 0001:000bb770       ?mServoFwdBack@cSmoothControl@@MAEXABVVector3@@0@Z 004bc770 f   SmoothControl.obj
 0001:000bb810       ?ServoSpeed@cSmoothControl@@UAEXM@Z 004bc810 f   SmoothControl.obj
 0001:000bb830       ?ServoClosePursue@cSmoothControl@@UAE_NABVVector3@@00@Z 004bc830 f   SmoothControl.obj
 0001:000bb990       ?ServoFarPursue@cSmoothControl@@UAEXABVVector3@@00@Z 004bc990 f   SmoothControl.obj
 0001:000bbaa0       ?ServoDirectionAndSpeed@cSmoothControl@@UAEXABVVector3@@M@Z 004bcaa0 f   SmoothControl.obj
 0001:000bbb20       ?sMaxAccelVelController@@YAXPAM00MMMM@Z 004bcb20 f   SmoothControl.obj
 0001:000bbc10       ?mSimulate@cSmoothControl@@MAEXM@Z 004bcc10 f   SmoothControl.obj
 0001:000bc6d0       ?mCopyFromPhysics@cSmoothControl@@MAEXPAVPhysicsParameterSet@@@Z 004bd6d0 f   SmoothControl.obj
 0001:000bc780       ?MovingTowardsRepairQueue@cSmoothControl@@UAEXABVVector3@@@Z 004bd780 f i SmoothControl.obj
 0001:000bc790       ?NewDestination@cSmoothControl@@UAEXXZ 004bd790 f i SmoothControl.obj
 0001:000bc7a0       ??_EcSmoothControl@@UAEPAXI@Z 004bd7a0 f i SmoothControl.obj
 0001:000bc7a0       ??_GcSmoothControl@@UAEPAXI@Z 004bd7a0 f i SmoothControl.obj
 0001:000bc870       ??0Starbase@@QAE@PBVStarbaseClass@@@Z 004bd870 f   Starbase.obj
 0001:000bc950       ??1Starbase@@UAE@XZ        004bd950 f   Starbase.obj
 0001:000bca00       ?InitializeGeometry@Starbase@@UAEXABVMatrix34@@@Z 004bda00 f   Starbase.obj
 0001:000bca30       ?ClearTeam@Starbase@@UAEXXZ 004bda30 f   Starbase.obj
 0001:000bca70       ?SetTeam@Starbase@@UAEXH@Z 004bda70 f   Starbase.obj
 0001:000bcaa0       ?Load@Starbase@@UAE_NAAVFileReader@@@Z 004bdaa0 f   Starbase.obj
 0001:000bcae0       ?Save@Starbase@@UAE_NAAVFileWriter@@@Z 004bdae0 f   Starbase.obj
 0001:000bcb10       ?Simulate@Starbase@@UAEXM@Z 004bdb10 f   Starbase.obj
 0001:000bcb60       ?GetClosestStarbase@Starbase@@SAPAV1@PAVGameObject@@AAMHM@Z 004bdb60 f   Starbase.obj
 0001:000bcc30       ?HasStarbase@Starbase@@SA_NH@Z 004bdc30 f   Starbase.obj
 0001:000bccb0       ?GetResourceTransferInterface@Starbase@@UBEPAVResourceTransferInterface@@XZ 004bdcb0 f i Starbase.obj
 0001:000bccc0       ?GetCrewDamageThreshold@Starbase@@UBEMXZ 004bdcc0 f i Starbase.obj
 0001:000bcce0       ??_EStarbase@@UAEPAXI@Z    004bdce0 f i Starbase.obj
 0001:000bcce0       ??_GStarbase@@UAEPAXI@Z    004bdce0 f i Starbase.obj
 0001:000bcd10       ??0TradingStation@@QAE@PBVTradingStationClass@@@Z 004bdd10 f   TradingStation.obj
 0001:000bcf10       ?InitializeGeometry@TradingStation@@UAEXABVMatrix34@@@Z 004bdf10 f   TradingStation.obj
 0001:000bcf30       ?ClearTeam@TradingStation@@UAEXXZ 004bdf30 f   TradingStation.obj
 0001:000bcf50       ?SimDock@TradingStation@@QAE_NPAVFreighter@@M@Z 004bdf50 f   TradingStation.obj
 0001:000bd170       ?mSetNextState@TradingStation@@IAEXPAVCargoShip@@@Z 004be170 f   TradingStation.obj
 0001:000bd1f0       ?GetNearestTradingStation@TradingStation@@SAPAV1@ABVVector3@@HPBV1@_NM@Z 004be1f0 f   TradingStation.obj
 0001:000bd2b0       ?GetRandomTradingStation@TradingStation@@SAPAV1@PBV1@@Z 004be2b0 f   TradingStation.obj
 0001:000bd320       ??1TradingStation@@UAE@XZ  004be320 f   TradingStation.obj
 0001:000bd3d0       ?BuyResource@TradingStation@@QAEXW4eResource@@@Z 004be3d0 f   TradingStation.obj
 0001:000bd530       ?SellResource@TradingStation@@QAEXW4eResource@@@Z 004be530 f   TradingStation.obj
 0001:000bd690       ?TimeFerengiVisited@TradingStation@@QAEMXZ 004be690 f   TradingStation.obj
 0001:000bd6d0       ?mRecomputeRallyPoint@TradingStation@@IAEXXZ 004be6d0 f   TradingStation.obj
 0001:000bd8f0       ?Simulate@TradingStation@@UAEXM@Z 004be8f0 f   TradingStation.obj
 0001:000bdb30       ?Load@TradingStation@@UAE_NAAVFileReader@@@Z 004beb30 f   TradingStation.obj
 0001:000bdbc0       ?Save@TradingStation@@UAE_NAAVFileWriter@@@Z 004bebc0 f   TradingStation.obj
 0001:000bdc80       ?IsTradingStation@TradingStation@@UBE_NXZ 004bec80 f i TradingStation.obj
 0001:000bdc90       ??_GTradingStation@@UAEPAXI@Z 004bec90 f i TradingStation.obj
 0001:000bdc90       ??_ETradingStation@@UAEPAXI@Z 004bec90 f i TradingStation.obj
 0001:000bdcc0       ?size@?$vector@PAVTradingStation@@V?$allocator@PAVTradingStation@@@std@@@std@@QBEIXZ 004becc0 f i TradingStation.obj
 0001:000bdce0       ?_Destroy@?$vector@PAVTradingStation@@V?$allocator@PAVTradingStation@@@std@@@std@@IAEXPAPAVTradingStation@@0@Z 004bece0 f i TradingStation.obj
 0001:000bdcf0       ?_Ucopy@?$vector@PAVTradingStation@@V?$allocator@PAVTradingStation@@@std@@@std@@IAEPAPAVTradingStation@@PBQAV3@0PAPAV3@@Z 004becf0 f i TradingStation.obj
 0001:000bdd20       ?_Ufill@?$vector@PAVTradingStation@@V?$allocator@PAVTradingStation@@@std@@@std@@IAEXPAPAVTradingStation@@IABQAV3@@Z 004bed20 f i TradingStation.obj
 0001:000bdd50       ?_Construct@std@@YAXPAPAVTradingStation@@ABQAV2@@Z 004bed50 f i TradingStation.obj
 0001:000bdda0       ??0CraftClass@@QAE@XZ      004beda0 f   CraftClass.obj
 0001:000be090       ??0CraftClass@@QAE@PAV0@ABVParameterDB@@@Z 004bf090 f   CraftClass.obj
 0001:000be980       ?SetShipClassText@CraftClass@@SAXW4eShipClasses@1@PAD@Z 004bf980 f   CraftClass.obj
 0001:000beb70       ?SetBorgMeshTextures@CraftClass@@QBEX_N@Z 004bfb70 f   CraftClass.obj
 0001:000bec70       ?InitializeDamageNodes@CraftClass@@AAEXXZ 004bfc70 f   CraftClass.obj
 0001:000bedf0       ?DisableSpecialNodes@CraftClass@@UBEXXZ 004bfdf0 f   CraftClass.obj
 0001:000bee20       ??1CraftClass@@UAE@XZ      004bfe20 f   CraftClass.obj
 0001:000bf0e0       ?Build@CraftClass@@UBEPAVGameObject@@XZ 004c00e0 f   CraftClass.obj
 0001:000bf140       ?BuildClass@CraftClass@@UAEPAVGameObjectClass@@ABVParameterDB@@@Z 004c0140 f   CraftClass.obj
	0001:000bf1b0       ?CanPlaceHere@CraftClass@@UBE_NABVVector3@@PBVGameObject@@_N@Z 004c01b0 f   CraftClass.obj
 0001:000bf240       ?GetFootprint@CraftClass@@UBEXMMAAM000@Z 004c0240 f   CraftClass.obj
 0001:000bf2b0       ?CraftSystemDefault@CraftClass@@QAEXPAVCraftSystem@@@Z 004c02b0 f   CraftClass.obj
 0001:000bf2f0       ?CraftSystemInit@CraftClass@@QAEXABVParameterDB@@PBDPAVCraftSystem@@2@Z 004c02f0 f   CraftClass.obj
 0001:000bf550       ?mLoadResourceInfo@CraftClass@@AAEXABVParameterDB@@@Z 004c0550 f   CraftClass.obj
 0001:000bf640       ?mLoadPhysics@CraftClass@@AAEXABVParameterDB@@PAV1@@Z 004c0640 f   CraftClass.obj
 0001:000bfa60       ?GetPreferredResource@CraftClass@@UBE?AW4eResource@@PAVResourceInterface@@@Z 004c0a60 f   CraftClass.obj
 0001:000bfad0       ?GetBestResource@CraftClass@@QAE?AW4eResource@@PAVAI_Team@@@Z 004c0ad0 f   CraftClass.obj
 0001:000bfba0       ?GetLifeSupportLoss@CraftClass@@QBEMH@Z 004c0ba0 f   CraftClass.obj
 0001:000bfbf0       ?GetScanRange@CraftClass@@QBEMH@Z 004c0bf0 f   CraftClass.obj
 0001:000bfc40       ?GetDamagedRange@CraftClass@@QBEMH@Z 004c0c40 f   CraftClass.obj
 0001:000bfc90       ?GetCombatSpeed@CraftClass@@QBEMH@Z 004c0c90 f   CraftClass.obj
 0001:000bfcc0       ?GetImpulseSpeed@CraftClass@@QBEMH@Z 004c0cc0 f   CraftClass.obj
 0001:000bfcf0       ?GetWarpSpeed@CraftClass@@QBEMH@Z 004c0cf0 f   CraftClass.obj
 0001:000bfd20       ?GetRawCombatSpeed@CraftClass@@QBEMXZ 004c0d20 f   CraftClass.obj
 0001:000bfd30       ?GetShieldAbsorption@CraftClass@@QBEMH@Z 004c0d30 f   CraftClass.obj
 0001:000bfd60       ?GetMaxShields@CraftClass@@QBEMH@Z 004c0d60 f   CraftClass.obj
 0001:000bfd90       ?CreateSpirit@CraftClass@@UBEPAVSpirit@@XZ 004c0d90 f   CraftClass.obj
 0001:000bfe40       ?AddToPathPlanners@CraftClass@@QBEXABVVector3@@ABVBBOX@@_N@Z 004c0e40 f   CraftClass.obj
 0001:000bff40       ?RemoveFromPathPlanners@CraftClass@@QBEXABVVector3@@ABVBBOX@@_N@Z 004c0f40 f   CraftClass.obj
 0001:000c0080       ??_ECraftClass@@UAEPAXI@Z  004c1080 f i CraftClass.obj
 0001:000c0080       ??_GCraftClass@@UAEPAXI@Z  004c1080 f i CraftClass.obj
 0001:000c00b0       ??_F?$vector@PBVST3D_Node@@V?$allocator@PBVST3D_Node@@@std@@@std@@QAEXXZ 004c10b0 f i CraftClass.obj
 0001:000c00d0       ??1?$vector@PBVST3D_Node@@V?$allocator@PBVST3D_Node@@@std@@@std@@QAE@XZ 004c10d0 f i CraftClass.obj
 0001:000c0100       ?_Destroy@?$vector@PADV?$allocator@PAD@std@@@std@@IAEXPAPAD0@Z 004c1100 f i CraftClass.obj
 0001:000c0110       ?insert@?$vector@PBVST3D_Node@@V?$allocator@PBVST3D_Node@@@std@@@std@@QAEXPAPBVST3D_Node@@IABQBV3@@Z 004c1110 f i CraftClass.obj
 0001:000c0320       ?copy@std@@YAPAPADPAPAD00@Z 004c1320 f i CraftClass.obj
 0001:000c0380       ??0MineArrayClass@@QAE@XZ  004c1380 f   MineArrayClass.obj
 0001:000c0420       ??0MineArrayClass@@QAE@PAV0@ABVParameterDB@@@Z 004c1420 f   MineArrayClass.obj
 0001:000c0530       ??1MineArrayClass@@UAE@XZ  004c1530 f   MineArrayClass.obj
 0001:000c0540       ?BuildClass@MineArrayClass@@UAEPAVGameObjectClass@@ABVParameterDB@@@Z 004c1540 f   MineArrayClass.obj
 0001:000c05b0       ?Build@MineArrayClass@@UBEPAVGameObject@@XZ 004c15b0 f   MineArrayClass.obj
 0001:000c0630       ??_EMineArrayClass@@UAEPAXI@Z 004c1630 f i MineArrayClass.obj
 0001:000c0630       ??_GMineArrayClass@@UAEPAXI@Z 004c1630 f i MineArrayClass.obj
 0001:000c0690       ??0SensorArrayClass@@QAE@XZ 004c1690 f   SensorArrayClass.obj
 0001:000c06f0       ??0SensorArrayClass@@QAE@PAV0@ABVParameterDB@@@Z 004c16f0 f   SensorArrayClass.obj
 0001:000c0760       ??1SensorArrayClass@@UAE@XZ 004c1760 f   SensorArrayClass.obj
 0001:000c0770       ?BuildClass@SensorArrayClass@@UAEPAVGameObjectClass@@ABVParameterDB@@@Z 004c1770 f   SensorArrayClass.obj
 0001:000c07f0       ?Build@SensorArrayClass@@UBEPAVGameObject@@XZ 004c17f0 f   SensorArrayClass.obj
 0001:000c0870       ??_ESensorArrayClass@@UAEPAXI@Z 004c1870 f i SensorArrayClass.obj
 0001:000c0870       ??_GSensorArrayClass@@UAEPAXI@Z 004c1870 f i SensorArrayClass.obj
 0001:000c08c0       ?WithinTransporterRange@@YA_NPBVGameObject@@0@Z 004c18c0 f   Craft.obj
 0001:000c0950       ??0Craft@@QAE@PBVCraftClass@@@Z 004c1950 f   Craft.obj
 0001:000c0d40       ?AssignCraftName@Craft@@QAEX_NH@Z 004c1d40 f   Craft.obj
 0001:000c0f00       ?SetCraftName@Craft@@QAEXPBD@Z 004c1f00 f   Craft.obj
 0001:000c0fd0       ?Cleanup@Craft@@UAEXXZ     004c1fd0 f   Craft.obj
 0001:000c1100       ??1Craft@@UAE@XZ           004c2100 f   Craft.obj
 0001:000c12a0       ?RestoreClass@Craft@@UAEXXZ 004c22a0 f   Craft.obj
 0001:000c1340       ?Load@Craft@@UAE_NAAVFileReader@@@Z 004c2340 f   Craft.obj
 0001:000c1870       ?PostLoad@Craft@@UAE_NXZ   004c2870 f   Craft.obj
 0001:000c1980       ?Save@Craft@@UAE_NAAVFileWriter@@@Z 004c2980 f   Craft.obj
 0001:000c1e80       ?CraftSystemLoad@Craft@@MAE_NAAVFileReader@@PAVCraftSystem@@@Z 004c2e80 f   Craft.obj
 0001:000c1f60       ?CraftSystemSave@Craft@@MAE_NAAVFileWriter@@PADPAVCraftSystem@@@Z 004c2f60 f   Craft.obj
 0001:000c20a0       ?GetNumCraft@Craft@@SAHH@Z 004c30a0 f   Craft.obj
 0001:000c20e0       ?Say@Craft@@QAE_NW4eCaptainsVoiceTopic@@@Z 004c30e0 f   Craft.obj
 0001:000c2100       ?UpdateBuildButtons@Craft@@UAEXXZ 004c3100 f   Craft.obj
 0001:000c2180       ?UpdateSpecialWeaponButtons@Craft@@UAEXXZ 004c3180 f   Craft.obj
 0001:000c2220       ?FireAtRegular@Craft@@UAEXPBVGameObject@@_N@Z 004c3220 f   Craft.obj
 0001:000c2580       ?FireArtillery@Craft@@QAEXABVVector3@@@Z 004c3580 f   Craft.obj
 0001:000c2660       ?IncrementShotTimerRegular@Craft@@UAEXM@Z 004c3660 f   Craft.obj
 0001:000c26e0       ?AIFireAtSpecial@Craft@@QAE_NPAVWeapon@@@Z 004c36e0 f   Craft.obj
 0001:000c2750       ?AIFireAtSpecial@Craft@@QAE_NPAVWeapon@@PBV1@@Z 004c3750 f   Craft.obj
 0001:000c27b0       ?AIFireAtSpecial@Craft@@QAE_NPAVWeapon@@ABVVector3@@@Z 004c37b0 f   Craft.obj
 0001:000c2820       ?FireAtSpecial@Craft@@QAE_NHPBVGameObject@@@Z 004c3820 f   Craft.obj
 0001:000c28e0       ?AbleToCloak@Craft@@UBE_NXZ 004c38e0 f   Craft.obj
 0001:000c2910       ?AbleToFire@Craft@@QBE_NPAVWeapon@@@Z 004c3910 f   Craft.obj
 0001:000c29a0       ?AbleToFireAtCraft@Craft@@QBE_NPAVWeapon@@PBV1@@Z 004c39a0 f   Craft.obj
 0001:000c2a50       ?FireAtSpecial@Craft@@QAE_NHABVVector3@@@Z 004c3a50 f   Craft.obj
 0001:000c2b20       ?FireAtSpecial@Craft@@QAE_NH@Z 004c3b20 f   Craft.obj
 0001:000c2bd0       ?Compute_Intersection_With_Shields@Craft@@QAE_NABVVector3@@0AAV2@@Z 004c3bd0 f   Craft.obj
 0001:000c2c70       ?Are_Our_Shield_Ellipses_Juxtaposed@Craft@@MAE_NPAVGameObject@@AAMAAVVector3@@PAVPlaneABCD@@3@Z 004c3c70 f   Craft.obj
 0001:000c3020       ?mCompute_Tangent_Vector_To_Shields@Craft@@IBEXABVVector3@@PAV2@@Z 004c4020 f   Craft.obj
 0001:000c3110       ?mCompute_Tangent_Vector_To_Shields@Craft@@IBE_NPAVPlaneABCD@@PAV1@AAVVector3@@@Z 004c4110 f   Craft.obj
 0001:000c3290       ?Prevent_Collisions_With_Misc_Objects@Craft@@IAEXPAVGameObject@@@Z 004c4290 f   Craft.obj
 0001:000c3640       ?Craft_Rotate_After_Collision@@YAXPAVCraft@@0MABVVector3@@ABM@Z 004c4640 f   Craft.obj
 0001:000c3940       ?Prevent_Collisions@Craft@@MAEXXZ 004c4940 f   Craft.obj
 0001:000c4250       ?GetProportionalProb@@YAMMM@Z 004c5250 f   Craft.obj
 0001:000c4270       ?mRedistributeDamage@Craft@@IAEXPAM@Z 004c5270 f   Craft.obj
 0001:000c43b0       ?mCalcHardpointDistance@Craft@@IAEXABV?$vector@PBVST3D_Node@@V?$allocator@PBVST3D_Node@@@std@@@std@@PAV?$list@PAVcProbNode@@V?$allocator@PAVcProbNode@@@std@@@3@PAPBVST3D_Node@@PAMPAVGameObject@@PBV5@H@Z 004c53b0 f   Craft.obj
 0001:000c44f0       ?DetermineSystemHitProbability@Craft@@IAEXPAMPAVGameObject@@PAVST3D_Node@@@Z 004c54f0 f   Craft.obj
 0001:000c4820       ?DetermineHitLocation@Craft@@QAEXPAVSTDamage@@PAVGameObject@@PAVST3D_Node@@@Z 004c5820 f   Craft.obj
 0001:000c4950       ?mSpecialDamage@Craft@@IAEXPAVSTDamage@@@Z 004c5950 f   Craft.obj
 0001:000c4bb0       ?DamageAlloc@Craft@@UAE_NPAVSTDamage@@PBVST3D_Node@@PBVVector3@@_N@Z 004c5bb0 f   Craft.obj
 0001:000c53a0       ?PreSimulate@Craft@@UAEXM@Z 004c63a0 f   Craft.obj
 0001:000c53c0       ?BeginRecycle@Craft@@QAEMXZ 004c63c0 f   Craft.obj
 0001:000c5430       ?EndRecycle@Craft@@UAEXPAVShipyard@@@Z 004c6430 f   Craft.obj
 0001:000c5530       ?Simulate@Craft@@UAEXM@Z   004c6530 f   Craft.obj
 0001:000c5730       ?PostSimulate@Craft@@UAEXM@Z 004c6730 f   Craft.obj
 0001:000c58e0       ?InitialExplode@Craft@@UAEXXZ 004c68e0 f   Craft.obj
 0001:000c59e0       ?DramaticDeathSequence@Craft@@UAEXM@Z 004c69e0 f   Craft.obj
 0001:000c5ab0       ?Explode@Craft@@UAEXXZ     004c6ab0 f   Craft.obj
 0001:000c5c10       ?GetAction@Craft@@UAE?AVAiAction@@ABVModeInfo@@PBVGameObject@@@Z 004c6c10 f   Craft.obj
 0001:000c5ec0       ?GetAction@Craft@@UAE?AVAiAction@@ABVModeInfo@@ABVVector3@@@Z 004c6ec0 f   Craft.obj
 0001:000c60b0       ?GetIsActive@Craft@@UAE_NW4AiCommand@@H@Z 004c70b0 f   Craft.obj
 0001:000c6400       ?GetIsEnabled@Craft@@UAE_NW4AiCommand@@@Z 004c7400 f   Craft.obj
 0001:000c64f0       ?ShieldsDown@Craft@@QAEXXZ 004c74f0 f   Craft.obj
 0001:000c65a0       ?RegenerateShields@Craft@@IAEXM@Z 004c75a0 f   Craft.obj
 0001:000c66e0       ?RegenerateSpecialEnergy@Craft@@MAEXM@Z 004c76e0 f   Craft.obj
 0001:000c6790       ?CheckDerelict@Craft@@IAEXXZ 004c7790 f   Craft.obj
 0001:000c6a90       ?StartTransport@Craft@@QAEXPAV1@@Z 004c7a90 f   Craft.obj
 0001:000c6b30       ?StopTransport@Craft@@QAEXXZ 004c7b30 f   Craft.obj
 0001:000c6bb0       ?CanStartTransportingTo@Craft@@QBE_NPBV1@@Z 004c7bb0 f   Craft.obj
 0001:000c6cf0       ?TransporterPreSimulate@Craft@@QAEXXZ 004c7cf0 f   Craft.obj
 0001:000c6d40       ?TransporterSimulate@Craft@@QAEXM@Z 004c7d40 f   Craft.obj
 0001:000c7140       ?KillCrew@Craft@@QAEXM_N@Z 004c8140 f   Craft.obj
 0001:000c7240       ?KillCrew@Craft@@IAEXMM_N@Z 004c8240 f   Craft.obj
 0001:000c7290       ?KillCrew@Craft@@IAEXMMM_N@Z 004c8290 f   Craft.obj
 0001:000c7340       ?RemoveCrew@Craft@@QAEMM@Z 004c8340 f   Craft.obj
 0001:000c7380       ?AddCrew@Craft@@QAEMM@Z    004c8380 f   Craft.obj
 0001:000c73e0       ?SetCrew@Craft@@QAEXM@Z    004c83e0 f   Craft.obj
 0001:000c7430       ?SetMaximumCrew@Craft@@QAEXM@Z 004c8430 f   Craft.obj
 0001:000c7490       ?DistributeSystemHitPercentage@Craft@@QAEXXZ 004c8490 f   Craft.obj
 0001:000c7630       ?RenderInternal@Craft@@UAEXPAVST3D_Camera@@@Z 004c8630 f   Craft.obj
 0001:000c77e0       ?mDisableSystem@Craft@@IAE_NPAVCraftSystem@@M@Z 004c87e0 f   Craft.obj
 0001:000c7860       ?mDisableSystem@Craft@@IAE_NPAVCraftSystem@@_N@Z 004c8860 f   Craft.obj
 0001:000c78f0       ?mDamageSystem@Craft@@IAE_NPAVCraftSystem@@MAAM@Z 004c88f0 f   Craft.obj
 0001:000c7a20       ?AddShields@Craft@@QAEXM@Z 004c8a20 f   Craft.obj
 0001:000c7a50       ?GetShields@Craft@@QBEMXZ  004c8a50 f   Craft.obj
 0001:000c7a80       ?DamageHull@Craft@@UAE_NMH@Z 004c8a80 f   Craft.obj
 0001:000c7ad0       ?mRenableSystem@Craft@@IAE_NPAVCraftSystem@@M@Z 004c8ad0 f   Craft.obj
 0001:000c7ba0       ?RepairSystemComplete@Craft@@QAE_NPAVCraftSystem@@@Z 004c8ba0 f   Craft.obj
 0001:000c7bd0       ?CheckAdjustedHitPercents@Craft@@IAEXXZ 004c8bd0 f   Craft.obj
 0001:000c7be0       ?RepairAllSystemsComplete@Craft@@QAEXXZ 004c8be0 f   Craft.obj
 0001:000c7ca0       ?mComputeRepairLeft@Craft@@IBEMPBVCraftSystem@@@Z 004c8ca0 f   Craft.obj
 0001:000c7cf0       ?mComputeModifiedRepairTime@Craft@@IBEMPBVCraftSystem@@@Z 004c8cf0 f   Craft.obj
 0001:000c7da0       ?RepairAllSystems@Craft@@QAEXM@Z 004c8da0 f   Craft.obj
 0001:000c7f50       ?RepairSystemHitpoints@Craft@@QAE_NPAVCraftSystem@@M@Z 004c8f50 f   Craft.obj
 0001:000c7fb0       ?VerifySystemStatus@Craft@@IAE_NPAVCraftSystem@@@Z 004c8fb0 f   Craft.obj
 0001:000c7fe0       ?RepairSystem@Craft@@IAE_NPAVCraftSystem@@M@Z 004c8fe0 f   Craft.obj
 0001:000c8120       ?RenableShip@Craft@@IAEXM@Z 004c9120 f   Craft.obj
 0001:000c81a0       ?NeedsRepair@Craft@@QBE_NPAM_NM@Z 004c91a0 f   Craft.obj
 0001:000c8330       ?DryDockRepairShip@Craft@@QAE_NM_N0MM@Z 004c9330 f   Craft.obj
 0001:000c84a0       ?mRepairShip@Craft@@IAEXM@Z 004c94a0 f   Craft.obj
 0001:000c8540       ?HandleLifeSupport@Craft@@MAEXM@Z 004c9540 f   Craft.obj
 0001:000c85d0       ?DisableWeapons@Craft@@IAEXXZ 004c95d0 f   Craft.obj
 0001:000c85f0       ?EnableWeapons@Craft@@IAEXXZ 004c95f0 f   Craft.obj
 0001:000c8610       ?DisableSensors@Craft@@IAEXXZ 004c9610 f   Craft.obj
 0001:000c8640       ?EnableSensors@Craft@@IAEXXZ 004c9640 f   Craft.obj
 0001:000c8670       ?ShieldCollapse@Craft@@IAEXXZ 004c9670 f   Craft.obj
 0001:000c86c0       ?ShieldCollapseEnd@Craft@@IAEXXZ 004c96c0 f   Craft.obj
 0001:000c86f0       ?DestroyShip@Craft@@UAEXH@Z 004c96f0 f   Craft.obj
 0001:000c8810       ?BestTargetHardpoint@Craft@@QAEPBVST3D_Node@@W4System@STDamage@@PAVGameObject@@PBV2@@Z 004c9810 f   Craft.obj
 0001:000c8960       ?RandomTargetHardpoint@Craft@@QAEPBVST3D_Node@@XZ 004c9960 f   Craft.obj
 0001:000c8a20       ?GetAlertStatus@Craft@@QBE?AW4eAlertStatus@@XZ 004c9a20 f   Craft.obj
 0001:000c8a50       ?SetAlertStatus@Craft@@QAEXW4eAlertStatus@@@Z 004c9a50 f   Craft.obj
 0001:000c8a80       ?GetDesiredAttackMode@Craft@@QBEHXZ 004c9a80 f   Craft.obj
 0001:000c8ab0       ?AreSuperRepairing@Craft@@QBE_NXZ 004c9ab0 f   Craft.obj
 0001:000c8ae0       ?GetSpecialWeaponAutonomy@Craft@@QBE?AW4eSpecialWeaponAutonomy@@XZ 004c9ae0 f   Craft.obj
 0001:000c8b10       ?SetSpecialWeaponAutonomy@Craft@@QAEXW4eSpecialWeaponAutonomy@@@Z 004c9b10 f   Craft.obj
 0001:000c8b40       ?GetMovementAutonomy@Craft@@QBE?AW4eMovementAutonomy@@XZ 004c9b40 f   Craft.obj
 0001:000c8b70       ?SetMovementAutonomy@Craft@@QAEXW4eMovementAutonomy@@@Z 004c9b70 f   Craft.obj
 0001:000c8ba0       ?GetTeamRelation@Craft@@QBE?AW4eTeamRelation@@PBV1@@Z 004c9ba0 f   Craft.obj
 0001:000c8bd0       ?Craft_InitRange@@YAXXZ    004c9bd0 f   Craft.obj
 0001:000c8d10       ?Craft_UpdateRange@@YAXXZ  004c9d10 f   Craft.obj
 0001:000c8ec0       ?Craft_CleanupRange@@YAXXZ 004c9ec0 f   Craft.obj
 0001:000c8ef0       ?DisableEngines@Craft@@QAE_NM@Z 004c9ef0 f   Craft.obj
 0001:000c8f80       ?DisableLifeSupport@Craft@@QAE_NM@Z 004c9f80 f   Craft.obj
 0001:000c9010       ?DisableShieldGenerator@Craft@@QAE_NM@Z 004ca010 f   Craft.obj
 0001:000c9090       ?DisableWeapons@Craft@@QAE_NM@Z 004ca090 f   Craft.obj
 0001:000c9110       ?DisableSensors@Craft@@QAE_NM@Z 004ca110 f   Craft.obj
 0001:000c91a0       ?PermanentDisableEngines@Craft@@QAE_N_N@Z 004ca1a0 f   Craft.obj
 0001:000c9230       ?PermanentDisableLifeSupport@Craft@@QAE_N_N@Z 004ca230 f   Craft.obj
 0001:000c92c0       ?PermanentDisableShieldGenerator@Craft@@QAE_N_N@Z 004ca2c0 f   Craft.obj
 0001:000c9350       ?PermanentDisableWeapons@Craft@@QAE_N_N@Z 004ca350 f   Craft.obj
 0001:000c93e0       ?PermanentDisableSensors@Craft@@QAE_N_N@Z 004ca3e0 f   Craft.obj
 0001:000c9470       ?SimulateShieldDisabled@Craft@@QAEXXZ 004ca470 f   Craft.obj
 0001:000c94e0       ?RecordShield@Craft@@QAEXXZ 004ca4e0 f   Craft.obj
 0001:000c9510       ?ClearTeam@Craft@@MAEXXZ   004ca510 f   Craft.obj
 0001:000c95b0       ?SetTeam@Craft@@MAEXH@Z    004ca5b0 f   Craft.obj
 0001:000c9660       ?mInitShipsSystems@Craft@@IAEXXZ 004ca660 f   Craft.obj
 0001:000c9770       ?Init@Craft@@UAEXH@Z       004ca770 f   Craft.obj
 0001:000c9930       ?SetAIFleet@Craft@@QAEXH@Z 004ca930 f   Craft.obj
 0001:000c99c0       ?ClearAIFleet@Craft@@QAEXXZ 004ca9c0 f   Craft.obj
 0001:000c99e0       ?Set_Strategic_AI_Goal_Type@Craft@@QAEXW4GOAL_TYPE@@@Z 004ca9e0 f   Craft.obj
 0001:000c99f0       ?UpdateDirection@Craft@@UAEXXZ 004ca9f0 f   Craft.obj
 0001:000c9a00       ?QueueCommandRename@Craft@@QAEXABV?$basic_string@DU?$char_traits@D@std@@V?$allocator@D@2@@std@@@Z 004caa00 f   Craft.obj
 0001:000c9a90       ?DeQueueCommandRename@Craft@@QAEXABV?$basic_string@DU?$char_traits@D@std@@V?$allocator@D@2@@std@@@Z 004caa90 f   Craft.obj
 0001:000c9ab0       ?QueueEnter@Craft@@QAEXH@Z 004caab0 f   Craft.obj
 0001:000c9ae0       ?DoExpire@Craft@@UAEXXZ    004caae0 f   Craft.obj
 0001:000c9b00       ?QueueExit@Craft@@QAEXXZ   004cab00 f   Craft.obj
 0001:000c9b20       ?NeedResourceExchange@Craft@@IAE_NMM@Z 004cab20 f   Craft.obj
 0001:000c9b70       ?Reset@cNoControl@@UAEXXZ  004cab70 f i Craft.obj
 0001:000c9b80       ?ServoYaw@cNoControl@@UAEXM@Z 004cab80 f i Craft.obj
 0001:000c9b90       ?ServoPitch@cNoControl@@UAEXM@Z 004cab90 f i Craft.obj
 0001:000c9ba0       ?ServoDirection@cNoControl@@UAEXABVVector3@@@Z 004caba0 f i Craft.obj
 0001:000c9bb0       ?ServoDirectionAndSpeed@cNoControl@@UAEXABVVector3@@M@Z 004cabb0 f i Craft.obj
 0001:000c9bc0       ?ServoSpeed@cNoControl@@UAEXM@Z 004cabc0 f i Craft.obj
 0001:000c9bd0       ?ServoClosePursue@cNoControl@@UAE_NABVVector3@@00@Z 004cabd0 f i Craft.obj
 0001:000c9be0       ?ServoFarPursue@cNoControl@@UAEXABVVector3@@00@Z 004cabe0 f i Craft.obj
 0001:000c9bf0       ?MovingTowardsRepairQueue@cNoControl@@UAEXABVVector3@@@Z 004cabf0 f i Craft.obj
 0001:000c9c00       ?NewDestination@cNoControl@@UAEXXZ 004cac00 f i Craft.obj
 0001:000c9c10       ?SetQueueTransform@cNoControl@@UAEXABVVector3@@0@Z 004cac10 f i Craft.obj
 0001:000c9c20       ?SetCraftControlMode@cNoControl@@UAEXW4eCraftControlMode@@@Z 004cac20 f i Craft.obj
 0001:000c9c30       ?GetCraftControlMode@cNoControl@@UBE?AW4eCraftControlMode@@XZ 004cac30 f i Craft.obj
 0001:000c9c40       ?GetFacingVector@cNoControl@@UBE?AVVector3@@XZ 004cac40 f i Craft.obj
 0001:000c9c60       ?IsWarping@cNoControl@@UBE_NXZ 004cac60 f i Craft.obj
 0001:000c9c70       ?Simulate@cNoControl@@UAEXM@Z 004cac70 f i Craft.obj
 0001:000c9c80       ?UpdateDirection@cNoControl@@UAEXXZ 004cac80 f i Craft.obj
 0001:000c9c90       ?Report@cNoControl@@UAEXAAV?$basic_ostream@DU?$char_traits@D@std@@@std@@@Z 004cac90 f i Craft.obj
 0001:000c9ca0       ?Load@cNoControl@@UAE_NAAVFileReader@@@Z 004caca0 f i Craft.obj
 0001:000c9cb0       ?Save@cNoControl@@UAE_NAAVFileWriter@@@Z 004cacb0 f i Craft.obj
 0001:000c9cc0       ??_GcNoControl@@UAEPAXI@Z  004cacc0 f i Craft.obj
 0001:000c9cc0       ??_EcNoControl@@UAEPAXI@Z  004cacc0 f i Craft.obj
 0001:000c9cf0       ??1cNoControl@@UAE@XZ      004cacf0 f i Craft.obj
 0001:000c9d00       ??_ECraft@@UAEPAXI@Z       004cad00 f i Craft.obj
 0001:000c9d00       ??_GCraft@@UAEPAXI@Z       004cad00 f i Craft.obj
 0001:000c9d30       ?ComputeIntersectionOfRayWithPlane@PlaneABCD@@QAE_NABVVector3@@0AAV2@@Z 004cad30 f i Craft.obj
 0001:000c9de0       ??1ApplyWaveLight@@QAE@XZ  004cade0 f i Craft.obj
 0001:000c9df0       ??1EntityRange@@QAE@XZ     004cadf0 f i Craft.obj
 0001:000c9e10       ??0cCraftControl@@QAE@XZ   004cae10 f   CraftControl.obj
 0001:000c9e40       ?Load@cCraftControl@@UAE_NAAVFileReader@@@Z 004cae40 f   CraftControl.obj
 0001:000c9ee0       ?Save@cCraftControl@@UAE_NAAVFileWriter@@@Z 004caee0 f   CraftControl.obj
 0001:000c9f80       ?TryWarp@cCraftControl@@QAEX_N@Z 004caf80 f   CraftControl.obj
 0001:000c9ff0       ?ComputeFadeOut@CraftInstance@@UBE_NAAM@Z 004caff0 f   CraftInstance.obj
 0001:000ca090       ??0CraftInstance@@QAE@XZ   004cb090 f   CraftInstance.obj
 0001:000ca0e0       ?RenderInternal@CraftInstance@@UAEXPAVST3D_Camera@@@Z 004cb0e0 f   CraftInstance.obj
 0001:000ca390       ?Update@CraftInstance@@UAEXPBVGameObject@@@Z 004cb390 f   CraftInstance.obj
 0001:000ca4e0       ?Save@CraftInstance@@UAE_NAAVFileWriter@@@Z 004cb4e0 f   CraftInstance.obj
 0001:000ca5c0       ?Initialize@CraftInstance@@UAEXPBVGameObject@@@Z 004cb5c0 f   CraftInstance.obj
 0001:000ca5e0       ?Load@CraftInstance@@UAE_NAAVFileReader@@@Z 004cb5e0 f   CraftInstance.obj
 0001:000ca6b0       ?FrustumTest@CraftInstance@@UAE_NPAVST3D_Camera@@@Z 004cb6b0 f   CraftInstance.obj
 0001:000ca700       ??_ECraftInstance@@UAEPAXI@Z 004cb700 f i CraftInstance.obj
 0001:000ca700       ??_GCraftInstance@@UAEPAXI@Z 004cb700 f i CraftInstance.obj
 0001:000ca730       ??0MineArray@@QAE@PBVMineArrayClass@@@Z 004cb730 f   MineArray.obj
 0001:000ca790       ??1MineArray@@UAE@XZ       004cb790 f   MineArray.obj
 0001:000ca7a0       ?MoveTowardsTarget@MineArray@@QAEXH@Z 004cb7a0 f   MineArray.obj
 0001:000ca7c0       ?MoveTowardsHome@MineArray@@QAEXABVVector3@@@Z 004cb7c0 f   MineArray.obj
 0001:000ca7f0       ?GetTarget@MineArray@@QBEPAVCraft@@XZ 004cb7f0 f   MineArray.obj
 0001:000ca820       ?mDoMotion@MineArray@@IAEXM@Z 004cb820 f   MineArray.obj
 0001:000cad00       ?Simulate@MineArray@@UAEXM@Z 004cbd00 f   MineArray.obj
 0001:000cad20       ?Detonate@MineArray@@QAEXPAVGameObject@@@Z 004cbd20 f   MineArray.obj
 0001:000cad70       ?Load@MineArray@@UAE_NAAVFileReader@@@Z 004cbd70 f   MineArray.obj
 0001:000cadf0       ?Save@MineArray@@UAE_NAAVFileWriter@@@Z 004cbdf0 f   MineArray.obj
 0001:000caea0       ?IsMineArray@MineArray@@UBE_NXZ 004cbea0 f i MineArray.obj
 0001:000caeb0       ??_GMineArray@@UAEPAXI@Z   004cbeb0 f i MineArray.obj
 0001:000caeb0       ??_EMineArray@@UAEPAXI@Z   004cbeb0 f i MineArray.obj
 0001:000caee0       ?Load@RecrewInterface@@QAE_NAAVFileReader@@@Z 004cbee0 f   RecrewInterface.obj
 0001:000caf30       ?Save@RecrewInterface@@QAE_NAAVFileWriter@@@Z 004cbf30 f   RecrewInterface.obj
 0001:000caf90       ?Simulate@RecrewInterface@@QAEXM@Z 004cbf90 f   RecrewInterface.obj
 0001:000cb070       ??0SensorArray@@QAE@PBVSensorArrayClass@@@Z 004cc070 f   SensorArray.obj
 0001:000cb0a0       ?GetTranswarpWormhole@SensorArray@@QBEPAVWormhole@@XZ 004cc0a0 f   SensorArray.obj
 0001:000cb150       ??1SensorArray@@UAE@XZ     004cc150 f   SensorArray.obj
 0001:000cb180       ??_ESensorArray@@UAEPAXI@Z 004cc180 f i SensorArray.obj
 0001:000cb180       ??_GSensorArray@@UAEPAXI@Z 004cc180 f i SensorArray.obj
 0001:000cb1b0       ?Load@ObjectLabelCounter@@QAE_NAAVFileReader@@@Z 004cc1b0 f   GameObjectClass.obj
 0001:000cb1e0       ?Save@ObjectLabelCounter@@QAE_NAAVFileWriter@@@Z 004cc1e0 f   GameObjectClass.obj
 0001:000cb200       ?Reset@ObjectLabelCounter@@QAEXXZ 004cc200 f   GameObjectClass.obj
 0001:000cb210       ?Get@ObjectLabelCounter@@QAEHXZ 004cc210 f   GameObjectClass.obj
 0001:000cb220       ??0GameObjectClass@@QAE@XZ 004cc220 f   GameObjectClass.obj
 0001:000cb480       ??0GameObjectClass@@QAE@PAV0@ABVParameterDB@@@Z 004cc480 f   GameObjectClass.obj
 0001:000cbf30       ?DisableSpecialNodes@GameObjectClass@@UBEXXZ 004ccf30 f   GameObjectClass.obj
 0001:000cbf40       ??1GameObjectClass@@UAE@XZ 004ccf40 f   GameObjectClass.obj
 0001:000cc150       ?FindByClassNum@GameObjectClass@@SAPAV1@H@Z 004cd150 f   GameObjectClass.obj
 0001:000cc180       ?ProtoExists@GameObjectClass@@SA_NABVParameterDB@@@Z 004cd180 f   GameObjectClass.obj
 0001:000cc1f0       ?Find@GameObjectClass@@SAPAV1@ABVcPrjID@@@Z 004cd1f0 f   GameObjectClass.obj
	0001:000cc370       ?Find@GameObjectClass@@SAPAV1@PBD@Z 004cd370 f   GameObjectClass.obj
	0001:000cc390       ?Construct@GameObjectClass@@QBEPAVGameObject@@ABVMatrix34@@HHPAD@Z 004cd390 f   GameObjectClass.obj
 0001:000cc4f0       ?GameObjectClass_Clean@@YAXXZ 004cd4f0 f   GameObjectClass.obj
 0001:000cc610       ?Clean@GameObjectClass@@SAXXZ 004cd610 f   GameObjectClass.obj
 0001:000cc730       ?RemoveFromClassList@GameObjectClass@@QAEPAV1@XZ 004cd730 f   GameObjectClass.obj
 0001:000cc940       ?GetHierarchyRoot@GameObjectClass@@QAEPAVST3D_Node@@XZ 004cd940 f   GameObjectClass.obj
 0001:000cc950       ?CanPlaceHere@GameObjectClass@@UBE_NABVVector3@@PBVGameObject@@_N@Z 004cd950 f   GameObjectClass.obj
 0001:000cc9f0       ?GetRealBuildPosition@GameObjectClass@@UBEXABVVector3@@PAV2@PAVGameObject@@@Z 004cd9f0 f   GameObjectClass.obj
 0001:000cca30       ?GetFootprint@GameObjectClass@@UBEXMMAAM000@Z 004cda30 f   GameObjectClass.obj
 0001:000cca70       ?InitShieldMatrices@GameObjectClass@@IAEXAAVBBOX@@@Z 004cda70 f   GameObjectClass.obj
 0001:000cccb0       ?mGetMaxShieldRadiusSquared@GameObjectClass@@AAEMABVMatrix34@@QAVST3D_Node@@@Z 004cdcb0 f   GameObjectClass.obj
 0001:000ccdc0       ?Get_Dilithium_Cost@GameObjectClass@@QBEJH@Z 004cddc0 f   GameObjectClass.obj
 0001:000cce90       ?Get_Latinum_Cost@GameObjectClass@@QBEJH@Z 004cde90 f   GameObjectClass.obj
 0001:000ccfa0       ?Get_Metal_Cost@GameObjectClass@@QBEJH@Z 004cdfa0 f   GameObjectClass.obj
 0001:000cd070       ?Get_Biomatter_Cost@GameObjectClass@@QBEJH@Z 004ce070 f   GameObjectClass.obj
 0001:000cd140       ?Get_Officer_Cost@GameObjectClass@@QBEJH@Z 004ce140 f   GameObjectClass.obj
 0001:000cd160       ?Get_Crew_Cost@GameObjectClass@@QBEJH@Z 004ce160 f   GameObjectClass.obj
 0001:000cd170       ?Get_Raw_Dilithium_Cost@GameObjectClass@@QBEJXZ 004ce170 f   GameObjectClass.obj
 0001:000cd180       ?Get_Raw_Officer_Cost@GameObjectClass@@QBEJXZ 004ce180 f   GameObjectClass.obj
 0001:000cd190       ?Get_Raw_Crew_Cost@GameObjectClass@@QBEJXZ 004ce190 f   GameObjectClass.obj
 0001:000cd1a0       ?Get_Raw_Metal_Cost@GameObjectClass@@QBEJXZ 004ce1a0 f   GameObjectClass.obj
 0001:000cd1b0       ?Get_Raw_Latinum_Cost@GameObjectClass@@QBEJXZ 004ce1b0 f   GameObjectClass.obj
 0001:000cd1c0       ?Get_Raw_Biomatter_Cost@GameObjectClass@@QBEJXZ 004ce1c0 f   GameObjectClass.obj
 0001:000cd1d0       ?Get_Resource_Multiplier@GameObjectClass@@QBEMH@Z 004ce1d0 f   GameObjectClass.obj
 0001:000cd290       ?Get_Build_Time@GameObjectClass@@QBEMH@Z 004ce290 f   GameObjectClass.obj
	0001:000cd370       ?GetOdfName@GameObjectClass@@QBEPBDXZ 004ce370 f   GameObjectClass.obj
 0001:000cd380       ?CreateSpirit@GameObjectClass@@UBEPAVSpirit@@XZ 004ce380 f   GameObjectClass.obj
 0001:000cd430       ?mAssessGameObjectSize@GameObjectClass@@IAEXH@Z 004ce430 f   GameObjectClass.obj
 0001:000cd450       ??_EGameObjectClass@@UAEPAXI@Z 004ce450 f i GameObjectClass.obj
 0001:000cd450       ??_GGameObjectClass@@UAEPAXI@Z 004ce450 f i GameObjectClass.obj
 0001:000cd480       ??1?$vector@PAVWeaponClass@@V?$allocator@PAVWeaponClass@@@std@@@std@@QAE@XZ 004ce480 f i GameObjectClass.obj
 0001:000cd4b0       ??1?$vector@PAV?$vector@PADV?$allocator@PAD@std@@@std@@V?$allocator@PAV?$vector@PADV?$allocator@PAD@std@@@std@@@2@@std@@QAE@XZ 004ce4b0 f i GameObjectClass.obj
 0001:000cd4e0       ?size@?$vector@PAV?$vector@PADV?$allocator@PAD@std@@@std@@V?$allocator@PAV?$vector@PADV?$allocator@PAD@std@@@std@@@2@@std@@QBEIXZ 004ce4e0 f i GameObjectClass.obj
 0001:000cd500       ?_Destroy@?$vector@PAV?$vector@PADV?$allocator@PAD@std@@@std@@V?$allocator@PAV?$vector@PADV?$allocator@PAD@std@@@std@@@2@@std@@IAEXPAPAV?$vector@PADV?$allocator@PAD@std@@@2@0@Z 004ce500 f i GameObjectClass.obj
 0001:000cd510       ?size@?$vector@PAVGameObjectClass@@V?$allocator@PAVGameObjectClass@@@std@@@std@@QBEIXZ 004ce510 f i GameObjectClass.obj
 0001:000cd530       ?insert@?$vector@PAVWeaponClass@@V?$allocator@PAVWeaponClass@@@std@@@std@@QAEXPAPAVWeaponClass@@IABQAV3@@Z 004ce530 f i GameObjectClass.obj
 0001:000cd740       ?_Ucopy@?$vector@PAV?$vector@PADV?$allocator@PAD@std@@@std@@V?$allocator@PAV?$vector@PADV?$allocator@PAD@std@@@std@@@2@@std@@IAEPAPAV?$vector@PADV?$allocator@PAD@std@@@2@PBQAV32@0PAPAV32@@Z 004ce740 f i GameObjectClass.obj
 0001:000cd770       ?_Ufill@?$vector@PAV?$vector@PADV?$allocator@PAD@std@@@std@@V?$allocator@PAV?$vector@PADV?$allocator@PAD@std@@@std@@@2@@std@@IAEXPAPAV?$vector@PADV?$allocator@PAD@std@@@2@IABQAV32@@Z 004ce770 f i GameObjectClass.obj
 0001:000cd7a0       ?_Ucopy@?$vector@PAVGameObjectClass@@V?$allocator@PAVGameObjectClass@@@std@@@std@@IAEPAPAVGameObjectClass@@PBQAV3@0PAPAV3@@Z 004ce7a0 f i GameObjectClass.obj
 0001:000cd7d0       ?_Ufill@?$vector@PAVGameObjectClass@@V?$allocator@PAVGameObjectClass@@@std@@@std@@IAEXPAPAVGameObjectClass@@IABQAV3@@Z 004ce7d0 f i GameObjectClass.obj
 0001:000cd830       ??0OfficerUpgradeClass@@QAE@XZ 004ce830 f   OfficerUpgradeClass.obj
 0001:000cd8a0       ??0OfficerUpgradeClass@@QAE@PAV0@ABVParameterDB@@@Z 004ce8a0 f   OfficerUpgradeClass.obj
 0001:000cd910       ?BuildClass@OfficerUpgradeClass@@UAEPAVGameObjectClass@@ABVParameterDB@@@Z 004ce910 f   OfficerUpgradeClass.obj
 0001:000cd990       ?Build@OfficerUpgradeClass@@EBEPAVGameObject@@XZ 004ce990 f   OfficerUpgradeClass.obj
 0001:000cd9a0       ??1OfficerUpgradeClass@@UAE@XZ 004ce9a0 f i OfficerUpgradeClass.obj
 0001:000cd9b0       ??_EOfficerUpgradeClass@@UAEPAXI@Z 004ce9b0 f i OfficerUpgradeClass.obj
 0001:000cd9b0       ??_GOfficerUpgradeClass@@UAEPAXI@Z 004ce9b0 f i OfficerUpgradeClass.obj
 0001:000cda10       ??0PlanetShieldClass@@QAE@XZ 004cea10 f   PlanetShieldClass.obj
 0001:000cda30       ??0PlanetShieldClass@@QAE@PAV0@ABVParameterDB@@@Z 004cea30 f   PlanetShieldClass.obj
 0001:000cdab0       ?BuildClass@PlanetShieldClass@@UAEPAVGameObjectClass@@ABVParameterDB@@@Z 004ceab0 f   PlanetShieldClass.obj
 0001:000cdb40       ?Build@PlanetShieldClass@@EBEPAVGameObject@@XZ 004ceb40 f   PlanetShieldClass.obj
 0001:000cdb50       ??1PlanetShieldClass@@UAE@XZ 004ceb50 f i PlanetShieldClass.obj
 0001:000cdb60       ??_EPlanetShieldClass@@UAEPAXI@Z 004ceb60 f i PlanetShieldClass.obj
 0001:000cdb60       ??_GPlanetShieldClass@@UAEPAXI@Z 004ceb60 f i PlanetShieldClass.obj
 0001:000cdc30       ?Clean@ResourceInterfaceClass@@SAXXZ 004cec30 f   ResourceInterfaceClass.obj
 0001:000cdcd0       ??0ResourceInterfaceClass@@QAE@XZ 004cecd0 f   ResourceInterfaceClass.obj
 0001:000cdd20       ??0ResourceInterfaceClass@@QAE@ABVParameterDB@@@Z 004ced20 f   ResourceInterfaceClass.obj
 0001:000ce050       ??1ResourceInterfaceClass@@UAE@XZ 004cf050 f   ResourceInterfaceClass.obj
 0001:000ce080       ?Find@ResourceInterfaceClass@@SAPAV1@ABVcPrjID@@@Z 004cf080 f   ResourceInterfaceClass.obj
 0001:000ce130       ?BuildClass@ResourceInterfaceClass@@UAEPAV1@ABVParameterDB@@@Z 004cf130 f   ResourceInterfaceClass.obj
 0001:000ce190       ?Build@ResourceInterfaceClass@@UAEPAVResourceInterface@@XZ 004cf190 f   ResourceInterfaceClass.obj
 0001:000ce1f0       ?GetTotalMaxValue@ResourceInterfaceClass@@QBEMXZ 004cf1f0 f   ResourceInterfaceClass.obj
 0001:000ce210       ?GetFirstResource@ResourceInterfaceClass@@QBE?AW4eResource@@XZ 004cf210 f   ResourceInterfaceClass.obj
 0001:000ce240       ??_EResourceInterfaceClass@@UAEPAXI@Z 004cf240 f i ResourceInterfaceClass.obj
 0001:000ce240       ??_GResourceInterfaceClass@@UAEPAXI@Z 004cf240 f i ResourceInterfaceClass.obj
 0001:000ce280       ?insert@?$vector@PAVResourceInterfaceClass@@V?$allocator@PAVResourceInterfaceClass@@@std@@@std@@QAEXPAPAVResourceInterfaceClass@@IABQAV3@@Z 004cf280 f i ResourceInterfaceClass.obj
 0001:000ce5d0       ??0EntityPointerManager@@QAE@XZ 004cf5d0 f   Entity.obj
 0001:000ce610       ??1EntityPointerManager@@QAE@XZ 004cf610 f   Entity.obj
 0001:000ce650       ?PreLoad@EntityPointerManager@@UAEXXZ 004cf650 f   Entity.obj
 0001:000ce6d0       ?GetHighestUsedSequenceNumber@EntityPointerManager@@QBEHXZ 004cf6d0 f   Entity.obj
 0001:000ce710       ?EntityPointerManager_GetHighestUsedSequenceNumber@@YAHXZ 004cf710 f   Entity.obj
 0001:000ce750       ?SetInitialSequenceNumber@EntityPointerManager@@QAEXH@Z 004cf750 f   Entity.obj
 0001:000ce790       ?EntityPointerManager_SetInitialSequenceNumber@@YAXH@Z 004cf790 f   Entity.obj
 0001:000ce7d0       ?PostRun@EntityPointerManager@@UAEXXZ 004cf7d0 f   Entity.obj
 0001:000ce7e0       ?Add@EntityPointerManager@@QAEHPBVEntity@@@Z 004cf7e0 f   Entity.obj
 0001:000ce8a0       ?Add@EntityPointerManager@@QAEHPBVEntity@@H@Z 004cf8a0 f   Entity.obj
	0001:000ce9a0       ?Remove@EntityPointerManager@@QAEXH@Z 004cf9a0 f   Entity.obj
 0001:000cea90       ?Get@EntityPointerManager@@QBEPAVEntity@@H@Z 004cfa90 f   Entity.obj
 0001:000ceac0       ?ResetVisibility@Entity@@SAXXZ 004cfac0 f   Entity.obj
 0001:000ceae0       ??0Entity@@QAE@XZ          004cfae0 f   Entity.obj
 0001:000cebd0       ??0Entity@@QAE@H@Z         004cfbd0 f   Entity.obj
 0001:000cecd0       ??1Entity@@UAE@XZ          004cfcd0 f   Entity.obj
 0001:000ced50       ?GetTransform@Entity@@QBEABVMatrix34@@XZ 004cfd50 f   Entity.obj
 0001:000ced60       ?GetTransformNonConst@Entity@@QAEAAVMatrix34@@XZ 004cfd60 f   Entity.obj
 0001:000ced70       ?GetBoundingSphere@Entity@@QBEABVSPHERE@@XZ 004cfd70 f   Entity.obj
 0001:000ced80       ?GetBoundingSphereNonConst@Entity@@QAEAAVSPHERE@@XZ 004cfd80 f   Entity.obj
 0001:000ced90       ?EGetPosition@Entity@@QBEABVVector3@@XZ 004cfd90 f   Entity.obj
 0001:000ceda0       ?Render@Entity@@UAEXPAVST3D_Camera@@@Z 004cfda0 f   Entity.obj
 0001:000cedd0       ?SetFrontVector@Entity@@UAEXABVVector3@@@Z 004cfdd0 f   Entity.obj
 0001:000cedf0       ?SetTransform@Entity@@UAEXABVMatrix34@@@Z 004cfdf0 f   Entity.obj
 0001:000cee10       ?SetOrigin@Entity@@UAEXABVVector3@@@Z 004cfe10 f   Entity.obj
 0001:000cee30       ?GetBoundingBox@Entity@@UBE?AVBBOX@@XZ 004cfe30 f   Entity.obj
 0001:000cee50       ?GetSynchronousBoundingBox@Entity@@QBE?AVBBOX@@XZ 004cfe50 f   Entity.obj
 0001:000cee70       ?SetAnimationFlags@Entity@@QAEXK@Z 004cfe70 f   Entity.obj
 0001:000cee90       ?GetAnimationFlags@Entity@@QBEKXZ 004cfe90 f   Entity.obj
 0001:000ceea0       ?EnableAnimation@Entity@@QAEX_N@Z 004cfea0 f   Entity.obj
 0001:000ceeb0       ?TriggerAnimation@Entity@@QAEXXZ 004cfeb0 f   Entity.obj
 0001:000ceec0       ?SetVisibleDatabase@Entity@@QAEXPAVST3D_Database@@@Z 004cfec0 f   Entity.obj
 0001:000ceee0       ?SetLogicalDatabase@Entity@@QAEXPAVST3D_Database@@@Z 004cfee0 f   Entity.obj
 0001:000cef00       ?GetVisibleDatabase@Entity@@QBEPAVST3D_Database@@XZ 004cff00 f   Entity.obj
 0001:000cef10       ?GetLogicalDatabase@Entity@@QBEPAVST3D_Database@@XZ 004cff10 f   Entity.obj
 0001:000cef20       ?SetScaleFactor@Entity@@QAEXABVVector3@@@Z 004cff20 f   Entity.obj
 0001:000cef40       ?GetScaleFactor@Entity@@QBEABVVector3@@XZ 004cff40 f   Entity.obj
 0001:000cef50       ?EnableScaling@Entity@@QAEX_N@Z 004cff50 f   Entity.obj
 0001:000cef60       ?IsScaled@Entity@@QBE_NXZ  004cff60 f   Entity.obj
 0001:000cef70       ?GetWorldPosition@Entity@@QBE?AVVector3@@PBVST3D_Node@@@Z 004cff70 f   Entity.obj
 0001:000cef90       ?GetWorldTransform@Entity@@QBE?AVMatrix34@@PBVST3D_Node@@@Z 004cff90 f   Entity.obj
 0001:000cefb0       ?EntityReassign@Entity@@QAE_NH@Z 004cffb0 f   Entity.obj
	0001:000ceff0       ?Get@Entity@@SAPAV1@H@Z    004cfff0 f   Entity.obj
 0001:000cf030       ?GetEvenIfExpired@Entity@@SAPAV1@H@Z 004d0030 f   Entity.obj
 0001:000cf060       ?GetUserTeam@Entity@@SAJXZ 004d0060 f   Entity.obj
 0001:000cf070       ?GetTeamsVisibleToUser@Entity@@SAKXZ 004d0070 f   Entity.obj
 0001:000cf090       ?CanUserSee@Entity@@UBE_NXZ 004d0090 f   Entity.obj
 0001:000cf100       ??_GEntity@@UAEPAXI@Z      004d0100 f i Entity.obj
 0001:000cf100       ??_EEntity@@UAEPAXI@Z      004d0100 f i Entity.obj
 0001:000cf1d0       ?PreLoad@GameObjectFeature@@UAEXXZ 004d01d0 f   GameObject.obj
 0001:000cf270       ?PostRun@GameObjectFeature@@UAEXXZ 004d0270 f   GameObject.obj
 0001:000cf2a0       ?RegisterGameObjectSize@GameObjectFeature@@QAEXH@Z 004d02a0 f   GameObject.obj
 0001:000cf2b0       ??2GameObject@@SAPAXI@Z    004d02b0 f   GameObject.obj
 0001:000cf370       ??3GameObject@@SAXPAX@Z    004d0370 f   GameObject.obj
 0001:000cf390       ?DoExpire@GameObject@@UAEXXZ 004d0390 f   GameObject.obj
 0001:000cf3c0       ?GetShieldToObjectTransform@GameObject@@QAEABVMatrix34@@XZ 004d03c0 f   GameObject.obj
 0001:000cf3d0       ?GetObjectToShieldTransform@GameObject@@QAEABVMatrix34@@XZ 004d03d0 f   GameObject.obj
 0001:000cf3e0       ?ImmediateCloak@GameObject@@QAEXXZ 004d03e0 f   GameObject.obj
 0001:000cf3f0       ?IsCloaked@GameObject@@QBE_NXZ 004d03f0 f   GameObject.obj
 0001:000cf420       ?IsFullyCloaked@GameObject@@QBE_NXZ 004d0420 f   GameObject.obj
 0001:000cf450       ?IsDecloaking@GameObject@@QBE_NXZ 004d0450 f   GameObject.obj
 0001:000cf480       ?InitializeGeometry@GameObject@@UAEXABVMatrix34@@@Z 004d0480 f   GameObject.obj
 0001:000cf5f0       ??0GameObject@@QAE@PBVGameObjectClass@@@Z 004d05f0 f   GameObject.obj
 0001:000cfa80       ?SetBillboardEffect@GameObject@@QAEXPBD@Z 004d0a80 f   GameObject.obj
 0001:000cfab0       ?Cleanup@GameObject@@UAEXXZ 004d0ab0 f   GameObject.obj
 0001:000cfba0       ??1GameObject@@UAE@XZ      004d0ba0 f   GameObject.obj
 0001:000cfd00       ?GetTeamsVisibleTo@GameObject@@QBEKXZ 004d0d00 f   GameObject.obj
 0001:000cfd20       ?DebugDraw@GameObject@@UAEXABUtagRECT@@H@Z 004d0d20 f   GameObject.obj
 0001:000cfd40       ?GetClassDisplayName@GameObject@@UBEPBDXZ 004d0d40 f   GameObject.obj
 0001:000cfd60       ?RestoreClass@GameObject@@UAEXXZ 004d0d60 f   GameObject.obj
 0001:000cfe50       ?RestoreClassAll@GameObject@@SAXXZ 004d0e50 f   GameObject.obj
 0001:000cfea0       ?SwapTeam@GameObject@@UAEXH@Z 004d0ea0 f   GameObject.obj
 0001:000cfed0       ?SwapRaceAndTeam@GameObject@@UAEXPBVRace@@H@Z 004d0ed0 f   GameObject.obj
 0001:000cff10       ?SetTeam@GameObject@@MAEXH@Z 004d0f10 f   GameObject.obj
 0001:000cffa0       ?isAlly@GameObject@@QBE_NH@Z 004d0fa0 f   GameObject.obj
 0001:000d0000       ?isNeutral@GameObject@@QBE_NH@Z 004d1000 f   GameObject.obj
 0001:000d0020       ?isEnemy@GameObject@@QBE_NH@Z 004d1020 f   GameObject.obj
 0001:000d0080       ?GetTeamRelation@GameObject@@QBE?AW4eTeamRelation@@H@Z 004d1080 f   GameObject.obj
 0001:000d00a0       ?isAlly@GameObject@@QBE_NPBV1@@Z 004d10a0 f   GameObject.obj
 0001:000d0160       ?isNeutral@GameObject@@QBE_NPBV1@@Z 004d1160 f   GameObject.obj
 0001:000d0180       ?isEnemy@GameObject@@QBE_NPBV1@@Z 004d1180 f   GameObject.obj
 0001:000d0250       ?registerTargetHit@GameObject@@QAEXPBVOrdnance@@@Z 004d1250 f   GameObject.obj
 0001:000d03b0       ?registerTargetHit@GameObject@@QAEXPBVExplosion@@@Z 004d13b0 f   GameObject.obj
 0001:000d04e0       ?registerOwnerHit@GameObject@@QAEXPBVOrdnance@@@Z 004d14e0 f   GameObject.obj
 0001:000d0530       ?UnderAttack@GameObject@@QBE_NM@Z 004d1530 f   GameObject.obj
 0001:000d0560       ?IsAttacking@GameObject@@QBE_NM@Z 004d1560 f   GameObject.obj
 0001:000d0590       ?Init@GameObject@@UAEXH@Z  004d1590 f   GameObject.obj
 0001:000d07b0       ?ClearTeam@GameObject@@MAEXXZ 004d17b0 f   GameObject.obj
 0001:000d0880       ?AddMyPositionToPath@GameObject@@QAEXAAVAiCmdInfo@@@Z 004d1880 f   GameObject.obj
 0001:000d0950       ?GetWhat@GameObject@@QAE?AW4AiCommand@@XZ 004d1950 f   GameObject.obj
 0001:000d09c0       ?GetCurrentCommand@GameObject@@QBEABVAiCmdInfo@@XZ 004d19c0 f   GameObject.obj
 0001:000d09d0       ?GetNextCommand@GameObject@@QBEABVAiCmdInfo@@XZ 004d19d0 f   GameObject.obj
 0001:000d09e0       ?GetBuildButtons@GameObject@@UAEPAVButtonList@@XZ 004d19e0 f   GameObject.obj
 0001:000d0a00       ?ClearCommand@GameObject@@QAEXXZ 004d1a00 f   GameObject.obj
 0001:000d0a10       ?CanCommand@GameObject@@UAE_NXZ 004d1a10 f   GameObject.obj
 0001:000d0a20       ?GetAction@GameObject@@UAE?AVAiAction@@ABVModeInfo@@PBV1@@Z 004d1a20 f   GameObject.obj
 0001:000d0a30       ?GetAction@GameObject@@UAE?AVAiAction@@ABVModeInfo@@ABVVector3@@@Z 004d1a30 f   GameObject.obj
	0001:000d0a40       ?SetCommand@GameObject@@QAEXW4AiCommand@@J_N1@Z 004d1a40 f   GameObject.obj
	0001:000d0af0       ?SetCommand@GameObject@@QAEXW4AiCommand@@PBV1@J_N@Z 004d1af0 f   GameObject.obj
 0001:000d0b20       ?SetCommand@GameObject@@QAEXW4AiCommand@@PBV1@ABVVector3@@J_N@Z 004d1b20 f   GameObject.obj
	0001:000d0b50       ?SetCommand@GameObject@@QAEXW4AiCommand@@ABVVector3@@J_N@Z 004d1b50 f   GameObject.obj
	0001:000d0b80       ?SetCommand@GameObject@@QAEXW4AiCommand@@PAVAiPath@@_N2@Z 004d1b80 f   GameObject.obj
0001:000d0c00       ?SetCommand@GameObject@@QAEXW4AiCommand@@PBVGameObjectClass@@_N@Z 004d1c00 f   GameObject.obj
	0001:000d0cb0       ?SetCommand@GameObject@@QAEXW4AiCommand@@PBVGameObjectClass@@ABVVector3@@_N@Z 004d1cb0 f   GameObject.obj
 0001:000d0d90       ?SetCommand@GameObject@@QAEXW4AiCommand@@PBV1@PBVVector3@@PAVWeaponClass@@_NPAV?$vector@HV?$allocator@H@std@@@std@@4@Z 004d1d90 f   GameObject.obj
 0001:000d0ef0       ?GetWhere@GameObject@@QAE?AVVector3@@XZ 004d1ef0 f   GameObject.obj
 0001:000d0f20       ?GetWho@GameObject@@QAEPAV1@XZ 004d1f20 f   GameObject.obj
 0001:000d0f50       ?Simulate@GameObject@@UAEXM@Z 004d1f50 f   GameObject.obj
 0001:000d0f80       ?PostSimulate@GameObject@@UAEXM@Z 004d1f80 f   GameObject.obj
 0001:000d0fe0       ?AddHealth@GameObject@@UAEXM@Z 004d1fe0 f   GameObject.obj
 0001:000d1020       ?SetMaxHealth@GameObject@@UAEXM@Z 004d2020 f   GameObject.obj
 0001:000d1080       ?SetCurHealth@GameObject@@UAEXM@Z 004d2080 f   GameObject.obj
 0001:000d1100       ?AddSpecialEnergy@GameObject@@UAEXM@Z 004d2100 f   GameObject.obj
 0001:000d11b0       ?SyncCRCAll@GameObject@@SA?AVCRC32@@XZ 004d21b0 f   GameObject.obj
 0001:000d1270       ?SyncDumpAll@GameObject@@SAXPAU_iobuf@@@Z 004d2270 f   GameObject.obj
 0001:000d12b0       ?SyncCRC@GameObject@@UAE?AVCRC32@@XZ 004d22b0 f   GameObject.obj
 0001:000d1350       ?SyncDump@GameObject@@UAEXPAU_iobuf@@@Z 004d2350 f   GameObject.obj
 0001:000d1710       ?LoadAll@GameObject@@SA_NAAVFileReader@@@Z 004d2710 f   GameObject.obj
 0001:000d1980       ?PostLoadAll@GameObject@@SA_N_N@Z 004d2980 f   GameObject.obj
 0001:000d19f0       ?PostLoad@GameObject@@UAE_NXZ 004d29f0 f   GameObject.obj
 0001:000d1ac0       ?SaveAll@GameObject@@SA_NAAVFileWriter@@@Z 004d2ac0 f   GameObject.obj
 0001:000d1ce0       ?Load@GameObject@@UAE_NAAVFileReader@@@Z 004d2ce0 f   GameObject.obj
 0001:000d2430       ?Save@GameObject@@UAE_NAAVFileWriter@@@Z 004d3430 f   GameObject.obj
 0001:000d2bd0       ?GetCollisionAvoidanceRadius@GameObject@@QBEMXZ 004d3bd0 f   GameObject.obj
 0001:000d2be0       ?IsLocal@GameObject@@QAE_NXZ 004d3be0 f   GameObject.obj
 0001:000d2c00       ?SetSelected@GameObject@@QAEX_N@Z 004d3c00 f   GameObject.obj
 0001:000d2ca0       ?GameObject_Clean@@YAXXZ   004d3ca0 f   GameObject.obj
 0001:000d2d50       ?GameObject_InitRange@@YAXXZ 004d3d50 f   GameObject.obj
 0001:000d2e90       ?GameObject_UpdateRange@@YAXXZ 004d3e90 f   GameObject.obj
 0001:000d3040       ?GameObject_CleanupRange@@YAXXZ 004d4040 f   GameObject.obj
 0001:000d3070       ?Select@GameObject@@UAEXXZ 004d4070 f   GameObject.obj
 0001:000d30a0       ?Deselect@GameObject@@UAEXXZ 004d40a0 f   GameObject.obj
 0001:000d30c0       ?QueueCommand@GameObject@@QAEXW4AiCommand@@@Z 004d40c0 f   GameObject.obj
 0001:000d3110       ?QueueCommand@GameObject@@QAEXW4AiCommand@@_N@Z 004d4110 f   GameObject.obj
 0001:000d3160       ?QueueCommand@GameObject@@QAEXW4AiCommand@@PAV1@@Z 004d4160 f   GameObject.obj
 0001:000d31b0       ?QueueCommand@GameObject@@QAEXW4AiCommand@@PAV1@ABVVector3@@@Z 004d41b0 f   GameObject.obj
 0001:000d3210       ?QueueCommand@GameObject@@QAEXW4AiCommand@@PAV1@ABVVector3@@H@Z 004d4210 f   GameObject.obj
 0001:000d3280       ?QueueCommand@GameObject@@QAEXW4AiCommand@@PBVGameObjectClass@@@Z 004d4280 f   GameObject.obj
 0001:000d32d0       ?QueueCommand@GameObject@@QAEXW4AiCommand@@PBVGameObjectClass@@ABVVector3@@@Z 004d42d0 f   GameObject.obj
 0001:000d3330       ?QueueCommand@GameObject@@QAEXW4AiCommand@@J@Z 004d4330 f   GameObject.obj
 0001:000d3380       ?QueueCommand@GameObject@@SAXW4AiCommand@@PAV?$vector@HV?$allocator@H@std@@@std@@PAVAiPath@@@Z 004d4380 f   GameObject.obj
 0001:000d3430       ?QueueCommand@GameObject@@QAEXW4AiCommand@@ABVVector3@@@Z 004d4430 f   GameObject.obj
 0001:000d3490       ?QueueCommand@GameObject@@QAEXW4AiCommand@@ABVVector3@@J@Z 004d4490 f   GameObject.obj
 0001:000d34f0       ?QueueCommand@GameObject@@QAEXW4AiCommand@@PAV1@J@Z 004d44f0 f   GameObject.obj
 0001:000d3540       ?DeQueueCommand@GameObject@@QAEXW4AiCommand@@_N@Z 004d4540 f   GameObject.obj
 0001:000d3560       ?DeQueueCommand@GameObject@@QAEXW4AiCommand@@PAV1@@Z 004d4560 f   GameObject.obj
 0001:000d3590       ?DeQueueCommand@GameObject@@QAEXW4AiCommand@@PAV1@ABVVector3@@@Z 004d4590 f   GameObject.obj
 0001:000d35c0       ?DeQueueCommand@GameObject@@QAEXW4AiCommand@@PAV1@ABVVector3@@H@Z 004d45c0 f   GameObject.obj
 0001:000d35f0       ?DeQueueCommand@GameObject@@QAEXW4AiCommand@@PBVGameObjectClass@@@Z 004d45f0 f   GameObject.obj
 0001:000d3610       ?DeQueueCommand@GameObject@@QAEXW4AiCommand@@PBVGameObjectClass@@ABVVector3@@@Z 004d4610 f   GameObject.obj
 0001:000d3630       ?DeQueueCommand@GameObject@@QAEXW4AiCommand@@J@Z 004d4630 f   GameObject.obj
 0001:000d3650       ?DeQueueCommand@GameObject@@SAXHW4AiCommand@@HQAHHQBVVector3@@@Z 004d4650 f   GameObject.obj
 0001:000d37b0       ?DeQueueCommand@GameObject@@QAEXW4AiCommand@@PAVAiPath@@@Z 004d47b0 f   GameObject.obj
 0001:000d3820       ?DeQueueCommand@GameObject@@QAEXW4AiCommand@@ABVVector3@@@Z 004d4820 f   GameObject.obj
 0001:000d3850       ?DeQueueCommand@GameObject@@QAEXW4AiCommand@@ABVVector3@@J@Z 004d4850 f   GameObject.obj
 0001:000d3880       ?DeQueueCommand@GameObject@@QAEXW4AiCommand@@PAV1@J@Z 004d4880 f   GameObject.obj
 0001:000d38b0       ?PreSimulateAll@GameObject@@SAXM@Z 004d48b0 f   GameObject.obj
 0001:000d38f0       ?SimulateAll@GameObject@@SAXM@Z 004d48f0 f   GameObject.obj
 0001:000d39a0       ?PostSimulateAll@GameObject@@SAXM@Z 004d49a0 f   GameObject.obj
 0001:000d3a50       ?PreSimulate@GameObject@@UAEXM@Z 004d4a50 f   GameObject.obj
 0001:000d3a60       ?Force_Vector_Onto_Map@GameObject@@QAE_NAAVVector3@@_NAA_N@Z 004d4a60 f   GameObject.obj
 0001:000d3b90       ?UpdatePosition@GameObject@@UAEXXZ 004d4b90 f   GameObject.obj
 0001:000d3c60       ?SetOrigin@GameObject@@UAEXABVVector3@@@Z 004d4c60 f   GameObject.obj
 0001:000d3cb0       ?SetFrontVector@GameObject@@UAEXABVVector3@@@Z 004d4cb0 f   GameObject.obj
 0001:000d3ce0       ?SetTransform@GameObject@@UAEXABVMatrix34@@@Z 004d4ce0 f   GameObject.obj
 0001:000d3d10       ?CalculateBoundingBox@GameObject@@UAEXXZ 004d4d10 f   GameObject.obj
 0001:000d3d20       ?SpecialTransport@GameObject@@UAEXPAV1@@Z 004d4d20 f   GameObject.obj
 0001:000d3d90       ?mRemoveEffectsFirst@GameObject@@IAE_NW4eEffectRemoveType@1@P6A_NPBVSpecialObjectEffect@@@Z@Z 004d4d90 f   GameObject.obj
 0001:000d3e30       ?RemoveEffects@GameObject@@QAEXW4eEffectRemoveType@1@P6A_NPBVSpecialObjectEffect@@@Z@Z 004d4e30 f   GameObject.obj
 0001:000d3e60       ?GetTimedDrain@GameObject@@QBEPAVTimedDrain@@XZ 004d4e60 f   GameObject.obj
 0001:000d3ea0       ?GetHyper@GameObject@@QBEPAVTimedHyper@@XZ 004d4ea0 f   GameObject.obj
 0001:000d3ee0       ?GetSlowEffect@GameObject@@QBEPAVSlowEffect@@XZ 004d4ee0 f   GameObject.obj
 0001:000d3f20       ?GetTimedPause@GameObject@@QAEPAVTimedPause@@XZ 004d4f20 f   GameObject.obj
 0001:000d3f60       ?GetLineOfSightEffect@GameObject@@QAEPAVLineOfSightEffect@@XZ 004d4f60 f   GameObject.obj
 0001:000d3fa0       ?GetTimedInvincible@GameObject@@QAEPAVTimedInvincible@@XZ 004d4fa0 f   GameObject.obj
 0001:000d3fe0       ?GetColor@GameObject@@QBEABVST3D_Colour@@XZ 004d4fe0 f   GameObject.obj
 0001:000d4000       ?GetTeamColor@GameObject@@QBEABVST3D_Colour@@XZ 004d5000 f   GameObject.obj
 0001:000d4040       ?GetMapColor@GameObject@@QBEABVST3D_Colour@@XZ 004d5040 f   GameObject.obj
 0001:000d4060       ?CanUserSee@GameObject@@UBE_NXZ 004d5060 f   GameObject.obj
 0001:000d40c0       ?GetHoloEffectState@GameObject@@QBEHXZ 004d50c0 f   GameObject.obj
 0001:000d40e0       ?FindCloak@GameObject@@IAE_NXZ 004d50e0 f   GameObject.obj
 0001:000d4160       ?Cloak@GameObject@@QAEXXZ  004d5160 f   GameObject.obj
 0001:000d41b0       ?Decloak@GameObject@@QAEXXZ 004d51b0 f   GameObject.obj
 0001:000d41e0       ?GetUnsafeCloakDistance@GameObject@@QBEMXZ 004d51e0 f   GameObject.obj
 0001:000d41f0       ?AbleToCloak@GameObject@@UBE_NXZ 004d51f0 f   GameObject.obj
 0001:000d4250       ?GetTrueTeam@GameObject@@QBEHXZ 004d5250 f   GameObject.obj
 0001:000d4270       ?GetAITeam@GameObject@@QBEPAVAI_Team@@XZ 004d5270 f   GameObject.obj
 0001:000d4290       ?IsAIControlled@GameObject@@QBE_NXZ 004d5290 f   GameObject.obj
 0001:000d42b0       ?RenderInternal@GameObject@@UAEXPAVST3D_Camera@@@Z 004d52b0 f   GameObject.obj
 0001:000d44e0       ?Render@GameObject@@UAEXPAVST3D_Camera@@@Z 004d54e0 f   GameObject.obj
 0001:000d4510       ?GetInstanceHandle@GameObject@@QBEHXZ 004d5510 f   GameObject.obj
 0001:000d4520       ?AmIOnTheMapXZ@GameObject@@QAE_NXZ 004d5520 f   GameObject.obj
 0001:000d4570       ?InitializeSpirit@GameObject@@UBEXPAVSpirit@@@Z 004d5570 f   GameObject.obj
 0001:000d45b0       ?GetCameraDistance@GameObject@@QBEMXZ 004d55b0 f   GameObject.obj
 0001:000d45c0       ?ComputeCameraInfo@GameObject@@QAEXABVVector3@@@Z 004d55c0 f   GameObject.obj
 0001:000d45f0       ?SetDontRenderInStrategicView@GameObject@@QAEX_N@Z 004d55f0 f   GameObject.obj
 0001:000d4610       ?GetDontRenderInStrategicView@GameObject@@QBE_NXZ 004d5610 f   GameObject.obj
 0001:000d4620       ?GetOdfName@GameObject@@QBEPBDXZ 004d5620 f   GameObject.obj
 0001:000d4630       ?GetHandleFromLabel@GameObject@@SAHPBD@Z 004d5630 f   GameObject.obj
 0001:000d46b0       ?IsReflectMissile@GameObject@@QAE_NAA_N@Z 004d56b0 f   GameObject.obj
 0001:000d4730       ?IsReflectBeam@GameObject@@QAE_NAA_N@Z 004d5730 f   GameObject.obj
 0001:000d47b0       ?CanAttackOthers@GameObject@@QBE_NXZ 004d57b0 f   GameObject.obj
 0001:000d47c0       ?ShotDirectorRadius@GameObject@@UBEMXZ 004d57c0 f   GameObject.obj
 0001:000d47e0       ??1GrowableStorage@@QAE@XZ 004d57e0 f i GameObject.obj
 0001:000d4850       ??_EGameObject@@UAEPAXI@Z  004d5850 f i GameObject.obj
 0001:000d4850       ??_GGameObject@@UAEPAXI@Z  004d5850 f i GameObject.obj
 0001:000d4880       ??1?$list@PAVSpecialObjectEffect@@V?$allocator@PAVSpecialObjectEffect@@@std@@@std@@QAE@XZ 004d5880 f i GameObject.obj
 0001:000d48d0       ??Eiterator@?$list@PAVSpecialObjectEffect@@V?$allocator@PAVSpecialObjectEffect@@@std@@@std@@QAE?AV012@H@Z 004d58d0 f i GameObject.obj
 0001:000d48f0       ?insert@?$list@PAVGameObject@@V?$allocator@PAVGameObject@@@std@@@std@@QAE?AViterator@12@V312@ABQAVGameObject@@@Z 004d58f0 f i GameObject.obj
 0001:000d4950       ?_Construct@std@@YAXPAPAXABQAX@Z 004d5950 f i GameObject.obj
 0001:000d4970       ??0GameObjectInstance@@QAE@XZ 004d5970 f   GameObjectInstance.obj
 0001:000d49b0       ?RenderInternal@GameObjectInstance@@UAEXPAVST3D_Camera@@@Z 004d59b0 f   GameObjectInstance.obj
 0001:000d4a20       ?ComputeFadeOut@GameObjectInstance@@UBE_NAAM@Z 004d5a20 f   GameObjectInstance.obj
 0001:000d4ae0       ?GetCullingDistance@GameObjectInstance@@QBEMXZ 004d5ae0 f   GameObjectInstance.obj
 0001:000d4b50       ?GetXZWeightedDistance@@YAMABVVector3@@0M@Z 004d5b50 f   GameObjectInstance.obj
 0001:000d4bb0       ?DistanceCull@GameObjectInstance@@QAE_NABVVector3@@0@Z 004d5bb0 f   GameObjectInstance.obj
 0001:000d4cf0       ?Save@GameObjectInstance@@UAE_NAAVFileWriter@@@Z 004d5cf0 f   GameObjectInstance.obj
 0001:000d4d70       ?Load@GameObjectInstance@@UAE_NAAVFileReader@@@Z 004d5d70 f   GameObjectInstance.obj
 0001:000d4df0       ?Initialize@GameObjectInstance@@UAEXPBVGameObject@@@Z 004d5df0 f   GameObjectInstance.obj
 0001:000d4e40       ?Update@GameObjectInstance@@UAEXPBVGameObject@@@Z 004d5e40 f   GameObjectInstance.obj
 0001:000d4e50       ??1GameObjectInstance@@UAE@XZ 004d5e50 f   GameObjectInstance.obj
 0001:000d4eb0       ?CreateStrategicViewScaleEffect@GameObjectInstance@@QAEXXZ 004d5eb0 f   GameObjectInstance.obj
 0001:000d4f30       ??_EGameObjectInstance@@UAEPAXI@Z 004d5f30 f i GameObjectInstance.obj
 0001:000d4f30       ??_GGameObjectInstance@@UAEPAXI@Z 004d5f30 f i GameObjectInstance.obj
 0001:000d4f60       ?GetPosition@GameObjectSpirit@@UAEABVVector3@@XZ 004d5f60 f   GameObjectSpirit.obj
 0001:000d4f70       ?Render@GameObjectSpirit@@UAEXPAVST3D_Camera@@@Z 004d5f70 f   GameObjectSpirit.obj
 0001:000d4fb0       ?Save@GameObjectSpirit@@UAE_NAAVFileWriter@@@Z 004d5fb0 f   GameObjectSpirit.obj
 0001:000d5010       ?Load@GameObjectSpirit@@UAE_NAAVFileReader@@@Z 004d6010 f   GameObjectSpirit.obj
 0001:000d5060       ?PostLoad@GameObjectSpirit@@UAEXXZ 004d6060 f   GameObjectSpirit.obj
 0001:000d5070       ??1GameObjectSpirit@@UAE@XZ 004d6070 f   GameObjectSpirit.obj
 0001:000d50e0       ??1Spirit@@UAE@XZ          004d60e0 f i GameObjectSpirit.obj
 0001:000d50f0       ??_GSpirit@@UAEPAXI@Z      004d60f0 f i GameObjectSpirit.obj
 0001:000d50f0       ??_ESpirit@@UAEPAXI@Z      004d60f0 f i GameObjectSpirit.obj
 
 0001:000d5a70       ??0ResourceTransferInterface@@QAE@PBVResourceTransferData@@@Z 004d6a70 f   ResourceTransferInterface.obj
 0001:000d5aa0       ?Init@ResourceTransferInterface@@QAEXPAVCraft@@PBD@Z 004d6aa0 f   ResourceTransferInterface.obj
 0001:000d5d70       ?GetDockingMatrix@ResourceTransferInterface@@QBE?AVMatrix34@@XZ 004d6d70 f   ResourceTransferInterface.obj
 0001:000d5d90       ??1ResourceTransferInterface@@QAE@XZ 004d6d90 f   ResourceTransferInterface.obj
 0001:000d5e60       ?SimDock@ResourceTransferInterface@@UAE_NPAVFreighter@@M@Z 004d6e60 f   ResourceTransferInterface.obj
 0001:000d5f20       ?SetDock@ResourceTransferInterface@@UAEXPAVFreighter@@@Z 004d6f20 f   ResourceTransferInterface.obj
 0001:000d5ff0       ?Simulate@ResourceTransferInterface@@QAEXM@Z 004d6ff0 f   ResourceTransferInterface.obj
	0001:000d6020       ?IsShipDocked@ResourceTransferInterface@@QBE_NXZ 004d7020 f   ResourceTransferInterface.obj
 0001:000d6040       ?Load@ResourceTransferInterface@@QAE_NAAVFileReader@@@Z 004d7040 f   ResourceTransferInterface.obj
 0001:000d6090       ?Save@ResourceTransferInterface@@QAE_NAAVFileWriter@@@Z 004d7090 f   ResourceTransferInterface.obj
	0001:000d60e0       ?CanProcessFreighter@ResourceTransferInterface@@QBE_NPBVFreighter@@@Z 004d70e0 f   ResourceTransferInterface.obj
 0001:000d6160       ?CouldProcessFreighter@ResourceTransferInterface@@QBE_NPBVFreighter@@@Z 004d7160 f   ResourceTransferInterface.obj
 0001:000d61e0       ?GetNearestTransferStation@ResourceTransferInterface@@SAPAVCraft@@PBVFreighter@@@Z 004d71e0 f   ResourceTransferInterface.obj
 0001:000d6350       ??0ResourceTransferData@@QAE@ABVParameterDB@@@Z 004d7350 f   ResourceTransferInterface.obj
 0001:000d6660       ?CanProcessFreighter@ResourceTransferData@@QBE_NPBVFreighter@@@Z 004d7660 f   ResourceTransferInterface.obj
 0001:000d66c0       ?CouldProcessFreighter@ResourceTransferData@@QBE_NPBVFreighter@@@Z 004d76c0 f   ResourceTransferInterface.obj
 0001:000d6700       ?GetPreferredResource@ResourceTransferData@@QBE?AW4eResource@@PAVResourceInterface@@@Z 004d7700 f   ResourceTransferInterface.obj
 0001:000d6750       ?TransferResources@ResourceTransferData@@QBEXPAVFreighter@@PAVTeam@@HM@Z 004d7750 f   ResourceTransferInterface.obj
 0001:000d6890       ?GetName@MiningOutputQueueManager@@UAEPBDXZ 004d7890 f i ResourceTransferInterface.obj
 0001:000d68a0       ??_GMiningOutputQueueManager@@UAEPAXI@Z 004d78a0 f i ResourceTransferInterface.obj
 0001:000d68a0       ??_EMiningOutputQueueManager@@UAEPAXI@Z 004d78a0 f i ResourceTransferInterface.obj
 0001:000d68d0       ??1MiningOutputQueueManager@@UAE@XZ 004d78d0 f i ResourceTransferInterface.obj
 0001:000d68e0       ?GetName@MiningQueueManager@@UAEPBDXZ 004d78e0 f i ResourceTransferInterface.obj
 0001:000d68f0       ??_GMiningQueueManager@@UAEPAXI@Z 004d78f0 f i ResourceTransferInterface.obj
 0001:000d68f0       ??_EMiningQueueManager@@UAEPAXI@Z 004d78f0 f i ResourceTransferInterface.obj
 0001:000d6920       ??1MiningQueueManager@@UAE@XZ 004d7920 f i ResourceTransferInterface.obj
 0001:000d6930       ?size@?$vector@PAVResourceTransferInterface@@V?$allocator@PAVResourceTransferInterface@@@std@@@std@@QBEIXZ 004d7930 f i ResourceTransferInterface.obj
 0001:000d6950       ?_Destroy@?$vector@PAVResourceTransferInterface@@V?$allocator@PAVResourceTransferInterface@@@std@@@std@@IAEXPAPAVResourceTransferInterface@@0@Z 004d7950 f i ResourceTransferInterface.obj
 0001:000d6960       ?_Ucopy@?$vector@PAVResourceTransferInterface@@V?$allocator@PAVResourceTransferInterface@@@std@@@std@@IAEPAPAVResourceTransferInterface@@PBQAV3@0PAPAV3@@Z 004d7960 f i ResourceTransferInterface.obj
 0001:000d6990       ?_Ufill@?$vector@PAVResourceTransferInterface@@V?$allocator@PAVResourceTransferInterface@@@std@@@std@@IAEXPAPAVResourceTransferInterface@@IABQAV3@@Z 004d7990 f i ResourceTransferInterface.obj
 0001:000d69c0       ?AllowForceFeedback@@YAXXZ 004d79c0 f   forcfeed.obj
 0001:000d69d0       ?InitForceFeedback@@YAXXZ  004d79d0 f   forcfeed.obj
 0001:000d6a40       ?CloseForceFeedback@@YAXXZ 004d7a40 f   forcfeed.obj
 0001:000d6a60       ?EnableForceFeedback@@YAXXZ 004d7a60 f   forcfeed.obj
 0001:000d6a70       ?DisableForceFeedback@@YAXXZ 004d7a70 f   forcfeed.obj
 0001:000d6a80       ?ClearForceFeedback@@YAXXZ 004d7a80 f   forcfeed.obj
 0001:000d6a90       ?UpdateForceFeedback@@YAXPAVST3D_Node@@@Z 004d7a90 f   forcfeed.obj
 0001:000d6aa0       ?IForceInit@@YA?AW4Bool@@XZ 004d7aa0 f   Iforceld.obj
 0001:000d6d90       ?IForceEnd@@YAXXZ          004d7d90 f   Iforceld.obj
 0001:000d6db0       ?Shift@@YAXPAD@Z           004d7db0 f   Chatline.obj
 0001:000d6e30       ?get_chat_key@@YAHH@Z      004d7e30 f   Chatline.obj
 0001:000d6f40       ?test_cheat_codes@@YAXG@Z  004d7f40 f   Cheater.obj
 0001:000d6f50       ?GameKeysInit@@YAXXZ       004d7f50 f   Gamekeys.obj
 0001:000d6fc0       ?GameKeysProcessInput@@YAXXZ 004d7fc0 f   Gamekeys.obj
 0001:000d71d0       ?getInputMapLine@@YAHPADHPAU_iobuf@@@Z 004d81d0 f   Input.obj
 0001:000d7260       ?get_analog_sink@@YAPAUAnalogSink@@PBUFieldDesc@@@Z 004d8260 f   Input.obj
 0001:000d7680       ?read_chord@@YAHPAU_iobuf@@PAHPAVDiscreteChord@@@Z 004d8680 f   Input.obj
 0001:000d7a30       ?test_chord@@YA_NHPBVDiscreteChord@@@Z 004d8a30 f   Input.obj
 0001:000d7a70       ?write_temp_to_input@@YAHXZ 004d8a70 f   Input.obj
 0001:000d7b90       ?write_input_map_key@@YAHPAD0@Z 004d8b90 f   Input.obj
 0001:000d7f20       ?read_input_map_key@@YAHPAD0@Z 004d8f20 f   Input.obj
 0001:000d81e0       ??0TextLabelLookup@@QAE@PBD@Z 004d91e0 f   Input.obj
 0001:000d8660       ??1TextLabelLookup@@QAE@XZ 004d9660 f   Input.obj
 0001:000d8760       ?GetText@TextLabelLookup@@QAEPBDPBD0@Z 004d9760 f   Input.obj
 0001:000d88e0       ?GetTextAsString@TextLabelLookup@@QAEABV?$basic_string@DU?$char_traits@D@std@@V?$allocator@D@2@@std@@ABV23@0@Z 004d98e0 f   Input.obj
 0001:000d89e0       ?GetTextLabelLookup@@YAAAVTextLabelLookup@@XZ 004d99e0 f   Input.obj
 0001:000d8a30       ?read_text_label@@YAHPBD0PAD@Z 004d9a30 f   Input.obj
 0001:000d8ab0       ?LocalizeLabel@@YAABV?$basic_string@DU?$char_traits@D@std@@V?$allocator@D@2@@std@@ABV12@0@Z 004d9ab0 f   Input.obj
 0001:000d8d20       ?read_one_mapping_file@@YAHPAU_iobuf@@@Z 004d9d20 f   Input.obj
 0001:000d9ab0       ?read_mapping_table@@YAXXZ 004daab0 f   Input.obj
 0001:000d9af0       ?set_joystick_map@@YAHH@Z  004daaf0 f   Input.obj
 0001:000d9c20       ?simulate_analog@@YAHPAUAnalogSource@@@Z 004dac20 f   Input.obj
 0001:000d9db0       ?InputInit@@YAXXZ          004dadb0 f   Input.obj
 0001:000da270       ?InputStartGame@@YAXXZ     004db270 f   Input.obj
 0001:000da290       ?InputNext@@YAXXZ          004db290 f   Input.obj
 0001:000da560       ?InputEndGame@@YAXXZ       004db560 f   Input.obj
 0001:000da590       ?InputShutdown@@YAXXZ      004db590 f   Input.obj
 0001:000da690       ?InputErrorOkOrCancel@@YAXW4eInputErrorCode@@PBD1@Z 004db690 f   Input.obj
 0001:000da730       ?ControlsGetPointer@@YAPBHPBD@Z 004db730 f   Input.obj
 0001:000da7f0       ?ControlsGetNumber@@YAHXZ  004db7f0 f   Input.obj
 0001:000da800       ?ControlsGetName@@YAPBDHPAPBH@Z 004db800 f   Input.obj
 0001:000da850       ??1?$DynArray@VDiscreteMap@@@@QAE@XZ 004db850 f i Input.obj
 0001:000da8a0       ??1?$DynArray@UFieldDesc@@@@QAE@XZ 004db8a0 f i Input.obj
 0001:000da8f0       ??1?$map@$$CBV?$basic_string@DU?$char_traits@D@std@@V?$allocator@D@2@@std@@V12@U?$less@$$CBV?$basic_string@DU?$char_traits@D@std@@V?$allocator@D@2@@std@@@2@V?$allocator@V?$basic_string@DU?$char_traits@D@std@@V?$allocator@D@2@@std@@@2@@std@@QAE@XZ 004db8f0 f i Input.obj
 0001:000da9f0       ??0?$DynArray@VDiscreteMap@@@@QAE@H@Z 004db9f0 f i Input.obj
 0001:000daa20       ??0?$DynArray@UFieldDesc@@@@QAE@H@Z 004dba20 f i Input.obj
 0001:000daa50       ??A?$map@$$CBV?$basic_string@DU?$char_traits@D@std@@V?$allocator@D@2@@std@@V12@U?$less@$$CBV?$basic_string@DU?$char_traits@D@std@@V?$allocator@D@2@@std@@@2@V?$allocator@V?$basic_string@DU?$char_traits@D@std@@V?$allocator@D@2@@std@@@2@@std@@QAEAAV?$basic_string@DU?$char_traits@D@std@@V?$allocator@D@2@@1@ABV21@@Z 004dba50 f i Input.obj
 0001:000dab80       ??1?$pair@$$CBV?$basic_string@DU?$char_traits@D@std@@V?$allocator@D@2@@std@@V12@@std@@QAE@XZ 004dbb80 f i Input.obj
 0001:000dabf0       ?Grow@?$DynArrayGrowthRate@UFieldDesc@@$20AEC@@@QAEHH@Z 004dbbf0 f i Input.obj
 0001:000dace0       ?SetCapacity@?$DynArrayGrowthRate@UFieldDesc@@$20AEC@@@QAEXH@Z 004dbce0 f i Input.obj
